; Created by Map2Def on 20050107 203149

LIBRARY obdll  BASE=0x02BC0000

EXPORTS

 ??0vector3@OpenBabel@@QAE@NNN@Z @ 10 NONAME ; public: __thiscall OpenBabel::vector3::vector3(double,double,double)
 ??0OBAtom@OpenBabel@@QAE@XZ @ 11 NONAME ; public: __thiscall OpenBabel::OBAtom::OBAtom(void)
 ?DoTransformations@OBBase@OpenBabel@@UAEPAV12@PBD@Z @ 12 NONAME ; public: virtual class OpenBabel::OBBase * __thiscall OpenBabel::OBBase::DoTransformations(char const *)
 ??0OBNodeBase@OpenBabel@@QAE@XZ @ 13 NONAME ; public: __thiscall OpenBabel::OBNodeBase::OBNodeBase(void)
 ??1OBBase@OpenBabel@@UAE@XZ @ 14 NONAME ; public: virtual __thiscall OpenBabel::OBBase::~OBBase(void)
 ??1OBNodeBase@OpenBabel@@UAE@XZ @ 15 NONAME ; public: virtual __thiscall OpenBabel::OBNodeBase::~OBNodeBase(void)
 ?GetIdx@OBNodeBase@OpenBabel@@UBEIXZ @ 16 NONAME ; public: virtual unsigned int __thiscall OpenBabel::OBNodeBase::GetIdx(void)const 
 ?GetParent@OBNodeBase@OpenBabel@@UAEPAVOBGraphBase@2@XZ @ 17 NONAME ; public: virtual class OpenBabel::OBGraphBase * __thiscall OpenBabel::OBNodeBase::GetParent(void)
 ?GetValence@OBNodeBase@OpenBabel@@UBEIXZ @ 18 NONAME ; public: virtual unsigned int __thiscall OpenBabel::OBNodeBase::GetValence(void)const 
 ?GetFormalCharge@OBNodeBase@OpenBabel@@UBEHXZ @ 19 NONAME ; public: virtual int __thiscall OpenBabel::OBNodeBase::GetFormalCharge(void)const 
 ?Error@OBNodeBase@OpenBabel@@QAEXH@Z @ 20 NONAME ; public: void __thiscall OpenBabel::OBNodeBase::Error(int)
 ?ExplicitHydrogenCount@OBNodeBase@OpenBabel@@UBEIXZ @ 21 NONAME ; public: virtual unsigned int __thiscall OpenBabel::OBNodeBase::ExplicitHydrogenCount(void)const 
 ?ImplicitHydrogenCount@OBNodeBase@OpenBabel@@UBEIXZ @ 22 NONAME ; public: virtual unsigned int __thiscall OpenBabel::OBNodeBase::ImplicitHydrogenCount(void)const 
 ?GetImplicitValence@OBNodeBase@OpenBabel@@UBEIXZ @ 23 NONAME ; public: virtual unsigned int __thiscall OpenBabel::OBNodeBase::GetImplicitValence(void)const 
 ?GetHvyValence@OBNodeBase@OpenBabel@@UBEIXZ @ 24 NONAME ; public: virtual unsigned int __thiscall OpenBabel::OBNodeBase::GetHvyValence(void)const 
 ?KBOSum@OBNodeBase@OpenBabel@@UBEIXZ @ 25 NONAME ; public: virtual unsigned int __thiscall OpenBabel::OBNodeBase::KBOSum(void)const 
 ?GetHyb@OBNodeBase@OpenBabel@@UBEIXZ @ 26 NONAME ; public: virtual unsigned int __thiscall OpenBabel::OBNodeBase::GetHyb(void)const 
 ?MemberOfRingCount@OBNodeBase@OpenBabel@@UBEIXZ @ 27 NONAME ; public: virtual unsigned int __thiscall OpenBabel::OBNodeBase::MemberOfRingCount(void)const 
 ?GetAtomicNum@OBNodeBase@OpenBabel@@UBEIXZ @ 28 NONAME ; public: virtual unsigned int __thiscall OpenBabel::OBNodeBase::GetAtomicNum(void)const 
 ?SetMatch@OBNodeBase@OpenBabel@@UAEXPAV12@@Z @ 29 NONAME ; public: virtual void __thiscall OpenBabel::OBNodeBase::SetMatch(class OpenBabel::OBNodeBase *)
 ?SetAromatic@OBNodeBase@OpenBabel@@UAEXXZ @ 30 NONAME ; public: virtual void __thiscall OpenBabel::OBNodeBase::SetAromatic(void)
 ?IsInRingSize@OBNodeBase@OpenBabel@@UBE_NH@Z @ 31 NONAME ; public: virtual bool __thiscall OpenBabel::OBNodeBase::IsInRingSize(int)const 
 ?IsAromatic@OBNodeBase@OpenBabel@@UBE_NXZ @ 32 NONAME ; public: virtual bool __thiscall OpenBabel::OBNodeBase::IsAromatic(void)const 
 ?IsInRing@OBNodeBase@OpenBabel@@UBE_NXZ @ 33 NONAME ; public: virtual bool __thiscall OpenBabel::OBNodeBase::IsInRing(void)const 
 ?Eval@OBNodeBase@OpenBabel@@UBE_NPAV12@@Z @ 34 NONAME ; public: virtual bool __thiscall OpenBabel::OBNodeBase::Eval(class OpenBabel::OBNodeBase *)const 
 ?GetMatch@OBNodeBase@OpenBabel@@UAEPAV12@XZ @ 35 NONAME ; public: virtual class OpenBabel::OBNodeBase * __thiscall OpenBabel::OBNodeBase::GetMatch(void)
 ??0OBBase@OpenBabel@@QAE@XZ @ 36 NONAME ; public: __thiscall OpenBabel::OBBase::OBBase(void)
 ?SetAromatic@OBAtom@OpenBabel@@UAEXXZ @ 37 NONAME ; public: virtual void __thiscall OpenBabel::OBAtom::SetAromatic(void)
 ?SetFlag@OBAtom@OpenBabel@@IAEXH@Z @ 38 NONAME ; protected: void __thiscall OpenBabel::OBAtom::SetFlag(int)
 ?GetFormalCharge@OBAtom@OpenBabel@@UBEHXZ @ 39 NONAME ; public: virtual int __thiscall OpenBabel::OBAtom::GetFormalCharge(void)const 
 ?GetAtomicNum@OBAtom@OpenBabel@@UBEIXZ @ 40 NONAME ; public: virtual unsigned int __thiscall OpenBabel::OBAtom::GetAtomicNum(void)const 
 ?GetIdx@OBAtom@OpenBabel@@UBEIXZ @ 41 NONAME ; public: virtual unsigned int __thiscall OpenBabel::OBAtom::GetIdx(void)const 
 ?GetValence@OBAtom@OpenBabel@@UBEIXZ @ 42 NONAME ; public: virtual unsigned int __thiscall OpenBabel::OBAtom::GetValence(void)const 
 ??1OBAtom@OpenBabel@@UAE@XZ @ 43 NONAME ; public: virtual __thiscall OpenBabel::OBAtom::~OBAtom(void)
 ?Clear@OBAtom@OpenBabel@@QAEXXZ @ 44 NONAME ; public: void __thiscall OpenBabel::OBAtom::Clear(void)
 ??4OBAtom@OpenBabel@@QAEAAV01@AAV01@@Z @ 45 NONAME ; public: class OpenBabel::OBAtom & __thiscall OpenBabel::OBAtom::operator=(class OpenBabel::OBAtom &)
 ??4vector3@OpenBabel@@QAEAAV01@ABV01@@Z @ 46 NONAME ; public: class OpenBabel::vector3 & __thiscall OpenBabel::vector3::operator=(class OpenBabel::vector3 const &)
 ?GetFlag@OBAtom@OpenBabel@@IBEHXZ @ 47 NONAME ; protected: int __thiscall OpenBabel::OBAtom::GetFlag(void)const 
 ?GetIsotope@OBAtom@OpenBabel@@QBEGXZ @ 48 NONAME ; public: unsigned short __thiscall OpenBabel::OBAtom::GetIsotope(void)const 
 ?IsConnected@OBAtom@OpenBabel@@QAE_NPAV12@@Z @ 49 NONAME ; public: bool __thiscall OpenBabel::OBAtom::IsConnected(class OpenBabel::OBAtom *)
 ?GetBeginAtom@OBBond@OpenBabel@@QAEPAVOBAtom@2@XZ @ 50 NONAME ; public: class OpenBabel::OBAtom * __thiscall OpenBabel::OBBond::GetBeginAtom(void)
 ?GetEndAtom@OBBond@OpenBabel@@QAEPAVOBAtom@2@XZ @ 51 NONAME ; public: class OpenBabel::OBAtom * __thiscall OpenBabel::OBBond::GetEndAtom(void)
 ?IsOneThree@OBAtom@OpenBabel@@QAE_NPAV12@@Z @ 52 NONAME ; public: bool __thiscall OpenBabel::OBAtom::IsOneThree(class OpenBabel::OBAtom *)
 ?GetNbrAtom@OBBond@OpenBabel@@QAEPAVOBAtom@2@PAV32@@Z @ 53 NONAME ; public: class OpenBabel::OBAtom * __thiscall OpenBabel::OBBond::GetNbrAtom(class OpenBabel::OBAtom *)
 ?IsOneFour@OBAtom@OpenBabel@@QAE_NPAV12@@Z @ 54 NONAME ; public: bool __thiscall OpenBabel::OBAtom::IsOneFour(class OpenBabel::OBAtom *)
 ?IsAxial@OBAtom@OpenBabel@@QAE_NXZ @ 55 NONAME ; public: bool __thiscall OpenBabel::OBAtom::IsAxial(void)
 ?HasAlphaBetaUnsat@OBAtom@OpenBabel@@QAE_N_N@Z @ 56 NONAME ; public: bool __thiscall OpenBabel::OBAtom::HasAlphaBetaUnsat(bool)
 ?IsSulfur@OBAtom@OpenBabel@@QAE_NXZ @ 57 NONAME ; public: bool __thiscall OpenBabel::OBAtom::IsSulfur(void)
 ?IsPhosphorus@OBAtom@OpenBabel@@QAE_NXZ @ 58 NONAME ; public: bool __thiscall OpenBabel::OBAtom::IsPhosphorus(void)
 ?HasBondOfOrder@OBAtom@OpenBabel@@QAE_NI@Z @ 59 NONAME ; public: bool __thiscall OpenBabel::OBAtom::HasBondOfOrder(unsigned int)
 ?CountBondsOfOrder@OBAtom@OpenBabel@@QAEHI@Z @ 60 NONAME ; public: int __thiscall OpenBabel::OBAtom::CountBondsOfOrder(unsigned int)
 ?HasNonSingleBond@OBAtom@OpenBabel@@QAE_NXZ @ 61 NONAME ; public: bool __thiscall OpenBabel::OBAtom::HasNonSingleBond(void)
 ?IsPolarHydrogen@OBAtom@OpenBabel@@QAE_NXZ @ 62 NONAME ; public: bool __thiscall OpenBabel::OBAtom::IsPolarHydrogen(void)
 ?IsHydrogen@OBAtom@OpenBabel@@QAE_NXZ @ 63 NONAME ; public: bool __thiscall OpenBabel::OBAtom::IsHydrogen(void)
 ?IsNonPolarHydrogen@OBAtom@OpenBabel@@QAE_NXZ @ 64 NONAME ; public: bool __thiscall OpenBabel::OBAtom::IsNonPolarHydrogen(void)
 ?GetVector@OBAtom@OpenBabel@@QAEAAVvector3@2@XZ @ 65 NONAME ; public: class OpenBabel::vector3 & __thiscall OpenBabel::OBAtom::GetVector(void)
 ?Set@vector3@OpenBabel@@QAEXNNN@Z @ 66 NONAME ; public: void __thiscall OpenBabel::vector3::Set(double,double,double)
 ?SetVector@OBAtom@OpenBabel@@QAEXXZ @ 67 NONAME ; public: void __thiscall OpenBabel::OBAtom::SetVector(void)
 ?SetVector@OBAtom@OpenBabel@@QAEXAAVvector3@2@@Z @ 68 NONAME ; public: void __thiscall OpenBabel::OBAtom::SetVector(class OpenBabel::vector3 &)
 ?x@vector3@OpenBabel@@QBENXZ @ 69 NONAME ; public: double __thiscall OpenBabel::vector3::x(void)const 
 ?y@vector3@OpenBabel@@QBENXZ @ 70 NONAME ; public: double __thiscall OpenBabel::vector3::y(void)const 
 ?z@vector3@OpenBabel@@QBENXZ @ 71 NONAME ; public: double __thiscall OpenBabel::vector3::z(void)const 
 ?SetVector@OBAtom@OpenBabel@@QAEXNNN@Z @ 72 NONAME ; public: void __thiscall OpenBabel::OBAtom::SetVector(double,double,double)
 ?SetType@OBAtom@OpenBabel@@QAEXPAD@Z @ 73 NONAME ; public: void __thiscall OpenBabel::OBAtom::SetType(char *)
 ?SetType@OBAtom@OpenBabel@@QAEXAAV?$basic_string@DU?$char_traits@D@std@@V?$allocator@D@2@@std@@@Z @ 74 NONAME ; public: void __thiscall OpenBabel::OBAtom::SetType(class std::basic_string<char,struct std::char_traits<char>,class std::allocator<char> > &)
 ?SetIsotope@OBAtom@OpenBabel@@QAEXI@Z @ 75 NONAME ; public: void __thiscall OpenBabel::OBAtom::SetIsotope(unsigned int)
 ?GetNextAtom@OBAtom@OpenBabel@@QAEPAV12@XZ @ 76 NONAME ; public: class OpenBabel::OBAtom * __thiscall OpenBabel::OBAtom::GetNextAtom(void)
 ?NumAtoms@OBMol@OpenBabel@@QBEIXZ @ 77 NONAME ; public: unsigned int __thiscall OpenBabel::OBMol::NumAtoms(void)const 
 ?GetResidue@OBAtom@OpenBabel@@QAEPAVOBResidue@2@XZ @ 78 NONAME ; public: class OpenBabel::OBResidue * __thiscall OpenBabel::OBAtom::GetResidue(void)
 ?SetChainsPerceived@OBMol@OpenBabel@@QAEXXZ @ 79 NONAME ; public: void __thiscall OpenBabel::OBMol::SetChainsPerceived(void)
 ?SetFlag@OBMol@OpenBabel@@IAEXH@Z @ 80 NONAME ; protected: void __thiscall OpenBabel::OBMol::SetFlag(int)
 ?HasChainsPerceived@OBMol@OpenBabel@@QAE_NXZ @ 81 NONAME ; public: bool __thiscall OpenBabel::OBMol::HasChainsPerceived(void)
 ?HasFlag@OBMol@OpenBabel@@IAE_NH@Z @ 82 NONAME ; protected: bool __thiscall OpenBabel::OBMol::HasFlag(int)
 ?GetAtomicMass@OBAtom@OpenBabel@@QBENXZ @ 83 NONAME ; public: double __thiscall OpenBabel::OBAtom::GetAtomicMass(void)const 
 ?GetExactMass@OBAtom@OpenBabel@@QBENXZ @ 84 NONAME ; public: double __thiscall OpenBabel::OBAtom::GetExactMass(void)const 
 ?GetType@OBAtom@OpenBabel@@QAEPADXZ @ 85 NONAME ; public: char * __thiscall OpenBabel::OBAtom::GetType(void)
 ??1OBTypeTable@OpenBabel@@UAE@XZ @ 86 NONAME ; public: virtual __thiscall OpenBabel::OBTypeTable::~OBTypeTable(void)
 ??1OBGlobalDataBase@OpenBabel@@UAE@XZ @ 87 NONAME ; public: virtual __thiscall OpenBabel::OBGlobalDataBase::~OBGlobalDataBase(void)
 ?ParseLine@OBGlobalDataBase@OpenBabel@@UAEXPBD@Z @ 88 NONAME ; public: virtual void __thiscall OpenBabel::OBGlobalDataBase::ParseLine(char const *)
 ?HasAtomTypesPerceived@OBMol@OpenBabel@@QAE_NXZ @ 89 NONAME ; public: bool __thiscall OpenBabel::OBMol::HasAtomTypesPerceived(void)
 ?GetImplicitValence@OBAtom@OpenBabel@@UBEIXZ @ 90 NONAME ; public: virtual unsigned int __thiscall OpenBabel::OBAtom::GetImplicitValence(void)const 
 ?HasImplicitValencePerceived@OBMol@OpenBabel@@QAE_NXZ @ 91 NONAME ; public: bool __thiscall OpenBabel::OBMol::HasImplicitValencePerceived(void)
 ?GetHyb@OBAtom@OpenBabel@@UBEIXZ @ 92 NONAME ; public: virtual unsigned int __thiscall OpenBabel::OBAtom::GetHyb(void)const 
 ?HasHybridizationPerceived@OBMol@OpenBabel@@QAE_NXZ @ 93 NONAME ; public: bool __thiscall OpenBabel::OBMol::HasHybridizationPerceived(void)
 ?GetHvyValence@OBAtom@OpenBabel@@UBEIXZ @ 94 NONAME ; public: virtual unsigned int __thiscall OpenBabel::OBAtom::GetHvyValence(void)const 
 ?GetHeteroValence@OBAtom@OpenBabel@@QBEIXZ @ 95 NONAME ; public: unsigned int __thiscall OpenBabel::OBAtom::GetHeteroValence(void)const 
 ?GetPartialCharge@OBAtom@OpenBabel@@QAENXZ @ 96 NONAME ; public: double __thiscall OpenBabel::OBAtom::GetPartialCharge(void)
 ?SetPartialCharge@OBAtom@OpenBabel@@QAEXN@Z @ 97 NONAME ; public: void __thiscall OpenBabel::OBAtom::SetPartialCharge(double)
 ?AutomaticPartialCharge@OBMol@OpenBabel@@QAE_NXZ @ 98 NONAME ; public: bool __thiscall OpenBabel::OBMol::AutomaticPartialCharge(void)
 ?HasPartialChargesPerceived@OBMol@OpenBabel@@QAE_NXZ @ 99 NONAME ; public: bool __thiscall OpenBabel::OBMol::HasPartialChargesPerceived(void)
 ??0OBGastChrg@OpenBabel@@QAE@XZ @ 100 NONAME ; public: __thiscall OpenBabel::OBGastChrg::OBGastChrg(void)
 ?IsAmideNitrogen@OBAtom@OpenBabel@@QAE_NXZ @ 101 NONAME ; public: bool __thiscall OpenBabel::OBAtom::IsAmideNitrogen(void)
 ?IsNitrogen@OBAtom@OpenBabel@@QAE_NXZ @ 102 NONAME ; public: bool __thiscall OpenBabel::OBAtom::IsNitrogen(void)
 ?IsAromaticNOxide@OBAtom@OpenBabel@@QAE_NXZ @ 103 NONAME ; public: bool __thiscall OpenBabel::OBAtom::IsAromaticNOxide(void)
 ?IsOxygen@OBAtom@OpenBabel@@QAE_NXZ @ 104 NONAME ; public: bool __thiscall OpenBabel::OBAtom::IsOxygen(void)
 ?IsCarboxylOxygen@OBAtom@OpenBabel@@QAE_NXZ @ 105 NONAME ; public: bool __thiscall OpenBabel::OBAtom::IsCarboxylOxygen(void)
 ?IsCarbon@OBAtom@OpenBabel@@QAE_NXZ @ 106 NONAME ; public: bool __thiscall OpenBabel::OBAtom::IsCarbon(void)
 ?IsPhosphateOxygen@OBAtom@OpenBabel@@QAE_NXZ @ 107 NONAME ; public: bool __thiscall OpenBabel::OBAtom::IsPhosphateOxygen(void)
 ?IsSulfateOxygen@OBAtom@OpenBabel@@QAE_NXZ @ 108 NONAME ; public: bool __thiscall OpenBabel::OBAtom::IsSulfateOxygen(void)
 ?IsNitroOxygen@OBAtom@OpenBabel@@QAE_NXZ @ 109 NONAME ; public: bool __thiscall OpenBabel::OBAtom::IsNitroOxygen(void)
 ?IsHeteroatom@OBAtom@OpenBabel@@QAE_NXZ @ 110 NONAME ; public: bool __thiscall OpenBabel::OBAtom::IsHeteroatom(void)
 ?IsNotCorH@OBAtom@OpenBabel@@QAE_NXZ @ 111 NONAME ; public: bool __thiscall OpenBabel::OBAtom::IsNotCorH(void)
 ?IsAromatic@OBAtom@OpenBabel@@UBE_NXZ @ 112 NONAME ; public: virtual bool __thiscall OpenBabel::OBAtom::IsAromatic(void)const 
 ?HasFlag@OBAtom@OpenBabel@@IAE_NH@Z @ 113 NONAME ; protected: bool __thiscall OpenBabel::OBAtom::HasFlag(int)
 ?HasAromaticPerceived@OBMol@OpenBabel@@QAE_NXZ @ 114 NONAME ; public: bool __thiscall OpenBabel::OBMol::HasAromaticPerceived(void)
 ?IsInRing@OBAtom@OpenBabel@@UBE_NXZ @ 115 NONAME ; public: virtual bool __thiscall OpenBabel::OBAtom::IsInRing(void)const 
 ?HasRingAtomsAndBondsPerceived@OBMol@OpenBabel@@QAE_NXZ @ 116 NONAME ; public: bool __thiscall OpenBabel::OBMol::HasRingAtomsAndBondsPerceived(void)
 ?IsChiral@OBAtom@OpenBabel@@QAE_NXZ @ 117 NONAME ; public: bool __thiscall OpenBabel::OBAtom::IsChiral(void)
 ?HasChiralityPerceived@OBMol@OpenBabel@@QAE_NXZ @ 118 NONAME ; public: bool __thiscall OpenBabel::OBMol::HasChiralityPerceived(void)
 ?IsInRingSize@OBAtom@OpenBabel@@UBE_NH@Z @ 119 NONAME ; public: virtual bool __thiscall OpenBabel::OBAtom::IsInRingSize(int)const 
 ?PathSize@OBRing@OpenBabel@@QBEHXZ @ 120 NONAME ; public: int __thiscall OpenBabel::OBRing::PathSize(void)const 
 ?IsInRing@OBRing@OpenBabel@@QAE_NH@Z @ 121 NONAME ; public: bool __thiscall OpenBabel::OBRing::IsInRing(int)
 ?BitIsOn@OBBitVec@OpenBabel@@QAE_NH@Z @ 122 NONAME ; public: bool __thiscall OpenBabel::OBBitVec::BitIsOn(int)
 ?GetSize@OBBitVec@OpenBabel@@QBEHXZ @ 123 NONAME ; public: int __thiscall OpenBabel::OBBitVec::GetSize(void)const 
 ?HasSSSRPerceived@OBMol@OpenBabel@@QAE_NXZ @ 124 NONAME ; public: bool __thiscall OpenBabel::OBMol::HasSSSRPerceived(void)
 ?MemberOfRingCount@OBAtom@OpenBabel@@UBEIXZ @ 125 NONAME ; public: virtual unsigned int __thiscall OpenBabel::OBAtom::MemberOfRingCount(void)const 
 ?MemberOfRingSize@OBAtom@OpenBabel@@QBEIXZ @ 126 NONAME ; public: unsigned int __thiscall OpenBabel::OBAtom::MemberOfRingSize(void)const 
 ?Size@OBRing@OpenBabel@@QBEHXZ @ 127 NONAME ; public: int __thiscall OpenBabel::OBRing::Size(void)const 
 ?SmallestBondAngle@OBAtom@OpenBabel@@QAENXZ @ 128 NONAME ; public: double __thiscall OpenBabel::OBAtom::SmallestBondAngle(void)
 ??G@YA?AVvector3@OpenBabel@@ABV01@0@Z @ 129 NONAME ; class OpenBabel::vector3 __cdecl operator-(class OpenBabel::vector3 const &,class OpenBabel::vector3 const &)
 ?AverageBondAngle@OBAtom@OpenBabel@@QAENXZ @ 130 NONAME ; public: double __thiscall OpenBabel::OBAtom::AverageBondAngle(void)
 ?CountFreeOxygens@OBAtom@OpenBabel@@QBEIXZ @ 131 NONAME ; public: unsigned int __thiscall OpenBabel::OBAtom::CountFreeOxygens(void)const 
 ?BOSum@OBAtom@OpenBabel@@QBEIXZ @ 132 NONAME ; public: unsigned int __thiscall OpenBabel::OBAtom::BOSum(void)const 
 ?KBOSum@OBAtom@OpenBabel@@UBEIXZ @ 133 NONAME ; public: virtual unsigned int __thiscall OpenBabel::OBAtom::KBOSum(void)const 
 ?ImplicitHydrogenCount@OBAtom@OpenBabel@@UBEIXZ @ 134 NONAME ; public: virtual unsigned int __thiscall OpenBabel::OBAtom::ImplicitHydrogenCount(void)const 
 ?ExplicitHydrogenCount@OBAtom@OpenBabel@@UBEIXZ @ 135 NONAME ; public: virtual unsigned int __thiscall OpenBabel::OBAtom::ExplicitHydrogenCount(void)const 
 ?DeleteBond@OBAtom@OpenBabel@@QAE_NPAVOBBond@2@@Z @ 136 NONAME ; public: bool __thiscall OpenBabel::OBAtom::DeleteBond(class OpenBabel::OBBond *)
 ?MatchesSMARTS@OBAtom@OpenBabel@@QAE_NPBD@Z @ 137 NONAME ; public: bool __thiscall OpenBabel::OBAtom::MatchesSMARTS(char const *)
 ??0OBSmartsPattern@OpenBabel@@QAE@XZ @ 138 NONAME ; public: __thiscall OpenBabel::OBSmartsPattern::OBSmartsPattern(void)
 ?BeginBond@OBAtom@OpenBabel@@QAEPAVOBBond@2@AAPAPAVOBEdgeBase@2@@Z @ 139 NONAME ; public: class OpenBabel::OBBond * __thiscall OpenBabel::OBAtom::BeginBond(class OpenBabel::OBEdgeBase * * &)
 ?NextBond@OBAtom@OpenBabel@@QAEPAVOBBond@2@AAPAPAVOBEdgeBase@2@@Z @ 140 NONAME ; public: class OpenBabel::OBBond * __thiscall OpenBabel::OBAtom::NextBond(class OpenBabel::OBEdgeBase * * &)
 ?BeginNbrAtom@OBAtom@OpenBabel@@QAEPAV12@AAPAPAVOBEdgeBase@2@@Z @ 141 NONAME ; public: class OpenBabel::OBAtom * __thiscall OpenBabel::OBAtom::BeginNbrAtom(class OpenBabel::OBEdgeBase * * &)
 ?NextNbrAtom@OBAtom@OpenBabel@@QAEPAV12@AAPAPAVOBEdgeBase@2@@Z @ 142 NONAME ; public: class OpenBabel::OBAtom * __thiscall OpenBabel::OBAtom::NextNbrAtom(class OpenBabel::OBEdgeBase * * &)
 ?GetDistance@OBAtom@OpenBabel@@QAENPAV12@@Z @ 143 NONAME ; public: double __thiscall OpenBabel::OBAtom::GetDistance(class OpenBabel::OBAtom *)
 ?length@vector3@OpenBabel@@QBENXZ @ 144 NONAME ; public: double __thiscall OpenBabel::vector3::length(void)const 
 ?GetDistance@OBAtom@OpenBabel@@QAENH@Z @ 145 NONAME ; public: double __thiscall OpenBabel::OBAtom::GetDistance(int)
 ?GetAngle@OBAtom@OpenBabel@@QAENPAV12@0@Z @ 146 NONAME ; public: double __thiscall OpenBabel::OBAtom::GetAngle(class OpenBabel::OBAtom *,class OpenBabel::OBAtom *)
 ?GetAngle@OBAtom@OpenBabel@@QAENHH@Z @ 147 NONAME ; public: double __thiscall OpenBabel::OBAtom::GetAngle(int,int)
 ?GetNewBondVector@OBAtom@OpenBabel@@QAE_NAAVvector3@2@N@Z @ 148 NONAME ; public: bool __thiscall OpenBabel::OBAtom::GetNewBondVector(class OpenBabel::vector3 &,double)
 ??H@YA?AVvector3@OpenBabel@@ABV01@0@Z @ 149 NONAME ; class OpenBabel::vector3 __cdecl operator+(class OpenBabel::vector3 const &,class OpenBabel::vector3 const &)
 ??Yvector3@OpenBabel@@QAEAAV01@ABV01@@Z @ 150 NONAME ; public: class OpenBabel::vector3 & __thiscall OpenBabel::vector3::operator+=(class OpenBabel::vector3 const &)
 ??Xvector3@OpenBabel@@QAEAAV01@ABN@Z @ 151 NONAME ; public: class OpenBabel::vector3 & __thiscall OpenBabel::vector3::operator*=(double const &)
 ??_0vector3@OpenBabel@@QAEAAV01@ABN@Z @ 152 NONAME ; public: class OpenBabel::vector3 & __thiscall OpenBabel::vector3::operator/=(double const &)
 ??0matrix3x3@OpenBabel@@QAE@XZ @ 153 NONAME ; public: __thiscall OpenBabel::matrix3x3::matrix3x3(void)
 ?HtoMethyl@OBAtom@OpenBabel@@QAE_NXZ @ 154 NONAME ; public: bool __thiscall OpenBabel::OBAtom::HtoMethyl(void)
 ?SetHyb@OBAtom@OpenBabel@@QAEXH@Z @ 155 NONAME ; public: void __thiscall OpenBabel::OBAtom::SetHyb(int)
 ?SetAtomicNum@OBAtom@OpenBabel@@QAEXH@Z @ 156 NONAME ; public: void __thiscall OpenBabel::OBAtom::SetAtomicNum(int)
 ?SetHybAndGeom@OBAtom@OpenBabel@@QAE_NH@Z @ 157 NONAME ; public: bool __thiscall OpenBabel::OBAtom::SetHybAndGeom(int)
 ?IncrementMod@OBMol@OpenBabel@@QAEXXZ @ 158 NONAME ; public: void __thiscall OpenBabel::OBMol::IncrementMod(void)
 ?DecrementMod@OBMol@OpenBabel@@QAEXXZ @ 159 NONAME ; public: void __thiscall OpenBabel::OBMol::DecrementMod(void)
 ??Zvector3@OpenBabel@@QAEAAV01@ABV01@@Z @ 160 NONAME ; public: class OpenBabel::vector3 & __thiscall OpenBabel::vector3::operator-=(class OpenBabel::vector3 const &)
 ?GetBond@OBAtom@OpenBabel@@QAEPAVOBBond@2@PAV12@@Z @ 161 NONAME ; public: class OpenBabel::OBBond * __thiscall OpenBabel::OBAtom::GetBond(class OpenBabel::OBAtom *)
 ?HasData@OBAtom@OpenBabel@@QAE_NAAV?$basic_string@DU?$char_traits@D@std@@V?$allocator@D@2@@std@@@Z @ 162 NONAME ; public: bool __thiscall OpenBabel::OBAtom::HasData(class std::basic_string<char,struct std::char_traits<char>,class std::allocator<char> > &)
 ?HasData@OBAtom@OpenBabel@@QAE_NPBD@Z @ 163 NONAME ; public: bool __thiscall OpenBabel::OBAtom::HasData(char const *)
 ?HasData@OBAtom@OpenBabel@@QAE_NW4obDataType@2@@Z @ 164 NONAME ; public: bool __thiscall OpenBabel::OBAtom::HasData(enum OpenBabel::obDataType)
 ?GetDataType@OBGenericData@OpenBabel@@QBE?AW4obDataType@2@XZ @ 165 NONAME ; public: enum OpenBabel::obDataType __thiscall OpenBabel::OBGenericData::GetDataType(void)const 
 ?GetData@OBAtom@OpenBabel@@QAEPAVOBGenericData@2@AAV?$basic_string@DU?$char_traits@D@std@@V?$allocator@D@2@@std@@@Z @ 166 NONAME ; public: class OpenBabel::OBGenericData * __thiscall OpenBabel::OBAtom::GetData(class std::basic_string<char,struct std::char_traits<char>,class std::allocator<char> > &)
 ?GetData@OBAtom@OpenBabel@@QAEPAVOBGenericData@2@PBD@Z @ 167 NONAME ; public: class OpenBabel::OBGenericData * __thiscall OpenBabel::OBAtom::GetData(char const *)
 ?GetData@OBAtom@OpenBabel@@QAEPAVOBGenericData@2@W4obDataType@2@@Z @ 168 NONAME ; public: class OpenBabel::OBGenericData * __thiscall OpenBabel::OBAtom::GetData(enum OpenBabel::obDataType)
 ?DeleteData@OBAtom@OpenBabel@@QAEXW4obDataType@2@@Z @ 169 NONAME ; public: void __thiscall OpenBabel::OBAtom::DeleteData(enum OpenBabel::obDataType)
 ?DeleteData@OBAtom@OpenBabel@@QAEXAAV?$vector@PAVOBGenericData@OpenBabel@@V?$allocator@PAVOBGenericData@OpenBabel@@@std@@@std@@@Z @ 170 NONAME ; public: void __thiscall OpenBabel::OBAtom::DeleteData(class std::vector<class OpenBabel::OBGenericData *,class std::allocator<class OpenBabel::OBGenericData *> > &)
 ?DeleteData@OBAtom@OpenBabel@@QAEXPAVOBGenericData@2@@Z @ 171 NONAME ; public: void __thiscall OpenBabel::OBAtom::DeleteData(class OpenBabel::OBGenericData *)
 ??0?$vector@PAVOBEdgeBase@OpenBabel@@V?$allocator@PAVOBEdgeBase@OpenBabel@@@std@@@std@@QAE@ABV?$allocator@PAVOBEdgeBase@OpenBabel@@@1@@Z @ 172 NONAME ; public: __thiscall std::vector<class OpenBabel::OBEdgeBase *,class std::allocator<class OpenBabel::OBEdgeBase *> >::vector<class OpenBabel::OBEdgeBase *,class std::allocator<class OpenBabel::OBEdgeBase *> >(class std::allocator<class OpenBabel::OBEdgeBase *> const &)
 ??1?$vector@PAVOBEdgeBase@OpenBabel@@V?$allocator@PAVOBEdgeBase@OpenBabel@@@std@@@std@@QAE@XZ @ 173 NONAME ; public: __thiscall std::vector<class OpenBabel::OBEdgeBase *,class std::allocator<class OpenBabel::OBEdgeBase *> >::~vector<class OpenBabel::OBEdgeBase *,class std::allocator<class OpenBabel::OBEdgeBase *> >(void)
 ?reserve@?$vector@PAVOBEdgeBase@OpenBabel@@V?$allocator@PAVOBEdgeBase@OpenBabel@@@std@@@std@@QAEXI@Z @ 174 NONAME ; public: void __thiscall std::vector<class OpenBabel::OBEdgeBase *,class std::allocator<class OpenBabel::OBEdgeBase *> >::reserve(unsigned int)
 ?begin@?$vector@PAVOBEdgeBase@OpenBabel@@V?$allocator@PAVOBEdgeBase@OpenBabel@@@std@@@std@@QAEPAPAVOBEdgeBase@OpenBabel@@XZ @ 175 NONAME ; public: class OpenBabel::OBEdgeBase * * __thiscall std::vector<class OpenBabel::OBEdgeBase *,class std::allocator<class OpenBabel::OBEdgeBase *> >::begin(void)
 ?end@?$vector@PAVOBEdgeBase@OpenBabel@@V?$allocator@PAVOBEdgeBase@OpenBabel@@@std@@@std@@QAEPAPAVOBEdgeBase@OpenBabel@@XZ @ 176 NONAME ; public: class OpenBabel::OBEdgeBase * * __thiscall std::vector<class OpenBabel::OBEdgeBase *,class std::allocator<class OpenBabel::OBEdgeBase *> >::end(void)
 ?size@?$vector@PAVOBEdgeBase@OpenBabel@@V?$allocator@PAVOBEdgeBase@OpenBabel@@@std@@@std@@QBEIXZ @ 177 NONAME ; public: unsigned int __thiscall std::vector<class OpenBabel::OBEdgeBase *,class std::allocator<class OpenBabel::OBEdgeBase *> >::size(void)const 
 ?empty@?$vector@PAVOBEdgeBase@OpenBabel@@V?$allocator@PAVOBEdgeBase@OpenBabel@@@std@@@std@@QBE_NXZ @ 178 NONAME ; public: bool __thiscall std::vector<class OpenBabel::OBEdgeBase *,class std::allocator<class OpenBabel::OBEdgeBase *> >::empty(void)const 
 ?erase@?$vector@PAVOBEdgeBase@OpenBabel@@V?$allocator@PAVOBEdgeBase@OpenBabel@@@std@@@std@@QAEPAPAVOBEdgeBase@OpenBabel@@PAPAV34@@Z @ 179 NONAME ; public: class OpenBabel::OBEdgeBase * * __thiscall std::vector<class OpenBabel::OBEdgeBase *,class std::allocator<class OpenBabel::OBEdgeBase *> >::erase(class OpenBabel::OBEdgeBase * *)
 ?clear@?$vector@PAVOBEdgeBase@OpenBabel@@V?$allocator@PAVOBEdgeBase@OpenBabel@@@std@@@std@@QAEXXZ @ 180 NONAME ; public: void __thiscall std::vector<class OpenBabel::OBEdgeBase *,class std::allocator<class OpenBabel::OBEdgeBase *> >::clear(void)
 ??1?$vector@V?$basic_string@DU?$char_traits@D@std@@V?$allocator@D@2@@std@@V?$allocator@V?$basic_string@DU?$char_traits@D@std@@V?$allocator@D@2@@std@@@2@@std@@QAE@XZ @ 181 NONAME ; public: __thiscall std::vector<class std::basic_string<char,struct std::char_traits<char>,class std::allocator<char> >,class std::allocator<class std::basic_string<char,struct std::char_traits<char>,class std::allocator<char> > > >::~vector<class std::basic_string<char,struct std::char_traits<char>,class std::allocator<char> >,class std::allocator<class std::basic_string<char,struct std::char_traits<char>,class std::allocator<char> > > >(void)
 ??1?$vector@V?$vector@V?$basic_string@DU?$char_traits@D@std@@V?$allocator@D@2@@std@@V?$allocator@V?$basic_string@DU?$char_traits@D@std@@V?$allocator@D@2@@std@@@2@@std@@V?$allocator@V?$vector@V?$basic_string@DU?$char_traits@D@std@@V?$allocator@D@2@@std@@V?$allocator@V?$basic_string@DU?$char_traits@D@std@@V?$allocator@D@2@@std@@@2@@std@@@2@@std@@QAE@XZ @ 182 NONAME ; public: __thiscall std::vector<class std::vector<class std::basic_string<char,struct std::char_traits<char>,class std::allocator<char> >,class std::allocator<class std::basic_string<char,struct std::char_traits<char>,class std::allocator<char> > > >,class std::allocator<class std::vector<class std::basic_string<char,struct std::char_traits<char>,class std::allocator<char> >,class std::allocator<class std::basic_string<char,struct std::char_traits<char>,class std::allocator<char> > > > > >::~vector<class st
 ??0?$vector@HV?$allocator@H@std@@@std@@QAE@ABV?$allocator@H@1@@Z @ 183 NONAME ; public: __thiscall std::vector<int,class std::allocator<int> >::vector<int,class std::allocator<int> >(class std::allocator<int> const &)
 ??1?$vector@HV?$allocator@H@std@@@std@@QAE@XZ @ 184 NONAME ; public: __thiscall std::vector<int,class std::allocator<int> >::~vector<int,class std::allocator<int> >(void)
 ?begin@?$vector@HV?$allocator@H@std@@@std@@QAEPAHXZ @ 185 NONAME ; public: int * __thiscall std::vector<int,class std::allocator<int> >::begin(void)
 ?end@?$vector@HV?$allocator@H@std@@@std@@QAEPAHXZ @ 186 NONAME ; public: int * __thiscall std::vector<int,class std::allocator<int> >::end(void)
 ?size@?$vector@HV?$allocator@H@std@@@std@@QBEIXZ @ 187 NONAME ; public: unsigned int __thiscall std::vector<int,class std::allocator<int> >::size(void)const 
 ??A?$vector@HV?$allocator@H@std@@@std@@QAEAAHI@Z @ 188 NONAME ; public: int & __thiscall std::vector<int,class std::allocator<int> >::operator[](unsigned int)
 ?push_back@?$vector@HV?$allocator@H@std@@@std@@QAEXABH@Z @ 189 NONAME ; public: void __thiscall std::vector<int,class std::allocator<int> >::push_back(int const &)
 ??0?$vector@PAVOBRing@OpenBabel@@V?$allocator@PAVOBRing@OpenBabel@@@std@@@std@@QAE@ABV?$allocator@PAVOBRing@OpenBabel@@@1@@Z @ 190 NONAME ; public: __thiscall std::vector<class OpenBabel::OBRing *,class std::allocator<class OpenBabel::OBRing *> >::vector<class OpenBabel::OBRing *,class std::allocator<class OpenBabel::OBRing *> >(class std::allocator<class OpenBabel::OBRing *> const &)
 ??1?$vector@PAVOBRing@OpenBabel@@V?$allocator@PAVOBRing@OpenBabel@@@std@@@std@@QAE@XZ @ 191 NONAME ; public: __thiscall std::vector<class OpenBabel::OBRing *,class std::allocator<class OpenBabel::OBRing *> >::~vector<class OpenBabel::OBRing *,class std::allocator<class OpenBabel::OBRing *> >(void)
 ??4?$vector@PAVOBRing@OpenBabel@@V?$allocator@PAVOBRing@OpenBabel@@@std@@@std@@QAEAAV01@ABV01@@Z @ 192 NONAME ; public: class std::vector<class OpenBabel::OBRing *,class std::allocator<class OpenBabel::OBRing *> > & __thiscall std::vector<class OpenBabel::OBRing *,class std::allocator<class OpenBabel::OBRing *> >::operator=(class std::vector<class OpenBabel::OBRing *,class std::allocator<class OpenBabel::OBRing *> > const &)
 ?begin@?$vector@PAVOBRing@OpenBabel@@V?$allocator@PAVOBRing@OpenBabel@@@std@@@std@@QAEPAPAVOBRing@OpenBabel@@XZ @ 193 NONAME ; public: class OpenBabel::OBRing * * __thiscall std::vector<class OpenBabel::OBRing *,class std::allocator<class OpenBabel::OBRing *> >::begin(void)
 ?end@?$vector@PAVOBRing@OpenBabel@@V?$allocator@PAVOBRing@OpenBabel@@@std@@@std@@QAEPAPAVOBRing@OpenBabel@@XZ @ 194 NONAME ; public: class OpenBabel::OBRing * * __thiscall std::vector<class OpenBabel::OBRing *,class std::allocator<class OpenBabel::OBRing *> >::end(void)
 ??0?$vector@_NV?$allocator@_N@std@@@std@@QAE@ABV?$allocator@_N@1@@Z @ 195 NONAME ; public: __thiscall std::vector<bool,class std::allocator<bool> >::vector<bool,class std::allocator<bool> >(class std::allocator<bool> const &)
 ??1?$vector@_NV?$allocator@_N@std@@@std@@QAE@XZ @ 196 NONAME ; public: __thiscall std::vector<bool,class std::allocator<bool> >::~vector<bool,class std::allocator<bool> >(void)
 ??0?$vector@V?$vector@HV?$allocator@H@std@@@std@@V?$allocator@V?$vector@HV?$allocator@H@std@@@std@@@2@@std@@QAE@ABV?$allocator@V?$vector@HV?$allocator@H@std@@@std@@@1@@Z @ 197 NONAME ; public: __thiscall std::vector<class std::vector<int,class std::allocator<int> >,class std::allocator<class std::vector<int,class std::allocator<int> > > >::vector<class std::vector<int,class std::allocator<int> >,class std::allocator<class std::vector<int,class std::allocator<int> > > >(class std::allocator<class std::vector<int,class std::allocator<int> > > const &)
 ??1?$vector@V?$vector@HV?$allocator@H@std@@@std@@V?$allocator@V?$vector@HV?$allocator@H@std@@@std@@@2@@std@@QAE@XZ @ 198 NONAME ; public: __thiscall std::vector<class std::vector<int,class std::allocator<int> >,class std::allocator<class std::vector<int,class std::allocator<int> > > >::~vector<class std::vector<int,class std::allocator<int> >,class std::allocator<class std::vector<int,class std::allocator<int> > > >(void)
 ??4?$vector@V?$vector@HV?$allocator@H@std@@@std@@V?$allocator@V?$vector@HV?$allocator@H@std@@@std@@@2@@std@@QAEAAV01@ABV01@@Z @ 199 NONAME ; public: class std::vector<class std::vector<int,class std::allocator<int> >,class std::allocator<class std::vector<int,class std::allocator<int> > > > & __thiscall std::vector<class std::vector<int,class std::allocator<int> >,class std::allocator<class std::vector<int,class std::allocator<int> > > >::operator=(class std::vector<class std::vector<int,class std::allocator<int> >,class std::allocator<class std::vector<int,class std::allocator<int> > > > const &)
 ?begin@?$vector@V?$vector@HV?$allocator@H@std@@@std@@V?$allocator@V?$vector@HV?$allocator@H@std@@@std@@@2@@std@@QAEPAV?$vector@HV?$allocator@H@std@@@2@XZ @ 200 NONAME ; public: class std::vector<int,class std::allocator<int> > * __thiscall std::vector<class std::vector<int,class std::allocator<int> >,class std::allocator<class std::vector<int,class std::allocator<int> > > >::begin(void)
 ?end@?$vector@V?$vector@HV?$allocator@H@std@@@std@@V?$allocator@V?$vector@HV?$allocator@H@std@@@std@@@2@@std@@QAEPAV?$vector@HV?$allocator@H@std@@@2@XZ @ 201 NONAME ; public: class std::vector<int,class std::allocator<int> > * __thiscall std::vector<class std::vector<int,class std::allocator<int> >,class std::allocator<class std::vector<int,class std::allocator<int> > > >::end(void)
 ?size@?$vector@V?$vector@HV?$allocator@H@std@@@std@@V?$allocator@V?$vector@HV?$allocator@H@std@@@std@@@2@@std@@QBEIXZ @ 202 NONAME ; public: unsigned int __thiscall std::vector<class std::vector<int,class std::allocator<int> >,class std::allocator<class std::vector<int,class std::allocator<int> > > >::size(void)const 
 ??0?$vector@PAVOBAtom@OpenBabel@@V?$allocator@PAVOBAtom@OpenBabel@@@std@@@std@@QAE@ABV?$allocator@PAVOBAtom@OpenBabel@@@1@@Z @ 203 NONAME ; public: __thiscall std::vector<class OpenBabel::OBAtom *,class std::allocator<class OpenBabel::OBAtom *> >::vector<class OpenBabel::OBAtom *,class std::allocator<class OpenBabel::OBAtom *> >(class std::allocator<class OpenBabel::OBAtom *> const &)
 ??1?$vector@PAVOBAtom@OpenBabel@@V?$allocator@PAVOBAtom@OpenBabel@@@std@@@std@@QAE@XZ @ 204 NONAME ; public: __thiscall std::vector<class OpenBabel::OBAtom *,class std::allocator<class OpenBabel::OBAtom *> >::~vector<class OpenBabel::OBAtom *,class std::allocator<class OpenBabel::OBAtom *> >(void)
 ?begin@?$vector@PAVOBAtom@OpenBabel@@V?$allocator@PAVOBAtom@OpenBabel@@@std@@@std@@QAEPAPAVOBAtom@OpenBabel@@XZ @ 205 NONAME ; public: class OpenBabel::OBAtom * * __thiscall std::vector<class OpenBabel::OBAtom *,class std::allocator<class OpenBabel::OBAtom *> >::begin(void)
 ?end@?$vector@PAVOBAtom@OpenBabel@@V?$allocator@PAVOBAtom@OpenBabel@@@std@@@std@@QAEPAPAVOBAtom@OpenBabel@@XZ @ 206 NONAME ; public: class OpenBabel::OBAtom * * __thiscall std::vector<class OpenBabel::OBAtom *,class std::allocator<class OpenBabel::OBAtom *> >::end(void)
 ?push_back@?$vector@PAVOBAtom@OpenBabel@@V?$allocator@PAVOBAtom@OpenBabel@@@std@@@std@@QAEXABQAVOBAtom@OpenBabel@@@Z @ 207 NONAME ; public: void __thiscall std::vector<class OpenBabel::OBAtom *,class std::allocator<class OpenBabel::OBAtom *> >::push_back(class OpenBabel::OBAtom * const &)
 ??0?$vector@PAVOBGenericData@OpenBabel@@V?$allocator@PAVOBGenericData@OpenBabel@@@std@@@std@@QAE@ABV?$allocator@PAVOBGenericData@OpenBabel@@@1@@Z @ 208 NONAME ; public: __thiscall std::vector<class OpenBabel::OBGenericData *,class std::allocator<class OpenBabel::OBGenericData *> >::vector<class OpenBabel::OBGenericData *,class std::allocator<class OpenBabel::OBGenericData *> >(class std::allocator<class OpenBabel::OBGenericData *> const &)
 ??1?$vector@PAVOBGenericData@OpenBabel@@V?$allocator@PAVOBGenericData@OpenBabel@@@std@@@std@@QAE@XZ @ 209 NONAME ; public: __thiscall std::vector<class OpenBabel::OBGenericData *,class std::allocator<class OpenBabel::OBGenericData *> >::~vector<class OpenBabel::OBGenericData *,class std::allocator<class OpenBabel::OBGenericData *> >(void)
 ??4?$vector@PAVOBGenericData@OpenBabel@@V?$allocator@PAVOBGenericData@OpenBabel@@@std@@@std@@QAEAAV01@ABV01@@Z @ 210 NONAME ; public: class std::vector<class OpenBabel::OBGenericData *,class std::allocator<class OpenBabel::OBGenericData *> > & __thiscall std::vector<class OpenBabel::OBGenericData *,class std::allocator<class OpenBabel::OBGenericData *> >::operator=(class std::vector<class OpenBabel::OBGenericData *,class std::allocator<class OpenBabel::OBGenericData *> > const &)
 ?begin@?$vector@PAVOBGenericData@OpenBabel@@V?$allocator@PAVOBGenericData@OpenBabel@@@std@@@std@@QAEPAPAVOBGenericData@OpenBabel@@XZ @ 211 NONAME ; public: class OpenBabel::OBGenericData * * __thiscall std::vector<class OpenBabel::OBGenericData *,class std::allocator<class OpenBabel::OBGenericData *> >::begin(void)
 ?end@?$vector@PAVOBGenericData@OpenBabel@@V?$allocator@PAVOBGenericData@OpenBabel@@@std@@@std@@QAEPAPAVOBGenericData@OpenBabel@@XZ @ 212 NONAME ; public: class OpenBabel::OBGenericData * * __thiscall std::vector<class OpenBabel::OBGenericData *,class std::allocator<class OpenBabel::OBGenericData *> >::end(void)
 ?size@?$vector@PAVOBGenericData@OpenBabel@@V?$allocator@PAVOBGenericData@OpenBabel@@@std@@@std@@QBEIXZ @ 213 NONAME ; public: unsigned int __thiscall std::vector<class OpenBabel::OBGenericData *,class std::allocator<class OpenBabel::OBGenericData *> >::size(void)const 
 ?empty@?$vector@PAVOBGenericData@OpenBabel@@V?$allocator@PAVOBGenericData@OpenBabel@@@std@@@std@@QBE_NXZ @ 214 NONAME ; public: bool __thiscall std::vector<class OpenBabel::OBGenericData *,class std::allocator<class OpenBabel::OBGenericData *> >::empty(void)const 
 ?push_back@?$vector@PAVOBGenericData@OpenBabel@@V?$allocator@PAVOBGenericData@OpenBabel@@@std@@@std@@QAEXABQAVOBGenericData@OpenBabel@@@Z @ 215 NONAME ; public: void __thiscall std::vector<class OpenBabel::OBGenericData *,class std::allocator<class OpenBabel::OBGenericData *> >::push_back(class OpenBabel::OBGenericData * const &)
 ?erase@?$vector@PAVOBGenericData@OpenBabel@@V?$allocator@PAVOBGenericData@OpenBabel@@@std@@@std@@QAEPAPAVOBGenericData@OpenBabel@@PAPAV34@@Z @ 216 NONAME ; public: class OpenBabel::OBGenericData * * __thiscall std::vector<class OpenBabel::OBGenericData *,class std::allocator<class OpenBabel::OBGenericData *> >::erase(class OpenBabel::OBGenericData * *)
 ?clear@?$vector@PAVOBGenericData@OpenBabel@@V?$allocator@PAVOBGenericData@OpenBabel@@@std@@@std@@QAEXXZ @ 217 NONAME ; public: void __thiscall std::vector<class OpenBabel::OBGenericData *,class std::allocator<class OpenBabel::OBGenericData *> >::clear(void)
 ??0?$vector@PAVGasteigerState@OpenBabel@@V?$allocator@PAVGasteigerState@OpenBabel@@@std@@@std@@QAE@ABV?$allocator@PAVGasteigerState@OpenBabel@@@1@@Z @ 218 NONAME ; public: __thiscall std::vector<class OpenBabel::GasteigerState *,class std::allocator<class OpenBabel::GasteigerState *> >::vector<class OpenBabel::GasteigerState *,class std::allocator<class OpenBabel::GasteigerState *> >(class std::allocator<class OpenBabel::GasteigerState *> const &)
 ?capacity@?$vector@PAVOBEdgeBase@OpenBabel@@V?$allocator@PAVOBEdgeBase@OpenBabel@@@std@@@std@@QBEIXZ @ 219 NONAME ; public: unsigned int __thiscall std::vector<class OpenBabel::OBEdgeBase *,class std::allocator<class OpenBabel::OBEdgeBase *> >::capacity(void)const 
 ?erase@?$vector@PAVOBEdgeBase@OpenBabel@@V?$allocator@PAVOBEdgeBase@OpenBabel@@@std@@@std@@QAEPAPAVOBEdgeBase@OpenBabel@@PAPAV34@0@Z @ 220 NONAME ; public: class OpenBabel::OBEdgeBase * * __thiscall std::vector<class OpenBabel::OBEdgeBase *,class std::allocator<class OpenBabel::OBEdgeBase *> >::erase(class OpenBabel::OBEdgeBase * *,class OpenBabel::OBEdgeBase * *)
 ?_Destroy@?$vector@PAVOBEdgeBase@OpenBabel@@V?$allocator@PAVOBEdgeBase@OpenBabel@@@std@@@std@@IAEXPAPAVOBEdgeBase@OpenBabel@@0@Z @ 221 NONAME ; protected: void __thiscall std::vector<class OpenBabel::OBEdgeBase *,class std::allocator<class OpenBabel::OBEdgeBase *> >::_Destroy(class OpenBabel::OBEdgeBase * *,class OpenBabel::OBEdgeBase * *)
 ?_Ucopy@?$vector@PAVOBEdgeBase@OpenBabel@@V?$allocator@PAVOBEdgeBase@OpenBabel@@@std@@@std@@IAEPAPAVOBEdgeBase@OpenBabel@@PBQAV34@0PAPAV34@@Z @ 222 NONAME ; protected: class OpenBabel::OBEdgeBase * * __thiscall std::vector<class OpenBabel::OBEdgeBase *,class std::allocator<class OpenBabel::OBEdgeBase *> >::_Ucopy(class OpenBabel::OBEdgeBase * const *,class OpenBabel::OBEdgeBase * const *,class OpenBabel::OBEdgeBase * *)
 ?allocate@?$allocator@PAVOBEdgeBase@OpenBabel@@@std@@QAEPAPAVOBEdgeBase@OpenBabel@@IPBX@Z @ 223 NONAME ; public: class OpenBabel::OBEdgeBase * * __thiscall std::allocator<class OpenBabel::OBEdgeBase *>::allocate(unsigned int,void const *)
 ?deallocate@?$allocator@PAVOBEdgeBase@OpenBabel@@@std@@QAEXPAXI@Z @ 224 NONAME ; public: void __thiscall std::allocator<class OpenBabel::OBEdgeBase *>::deallocate(void *,unsigned int)
 ?_Destroy@?$vector@V?$basic_string@DU?$char_traits@D@std@@V?$allocator@D@2@@std@@V?$allocator@V?$basic_string@DU?$char_traits@D@std@@V?$allocator@D@2@@std@@@2@@std@@IAEXPAV?$basic_string@DU?$char_traits@D@std@@V?$allocator@D@2@@2@0@Z @ 225 NONAME ; protected: void __thiscall std::vector<class std::basic_string<char,struct std::char_traits<char>,class std::allocator<char> >,class std::allocator<class std::basic_string<char,struct std::char_traits<char>,class std::allocator<char> > > >::_Destroy(class std::basic_string<char,struct std::char_traits<char>,class std::allocator<char> > *,class std::basic_string<char,struct std::char_traits<char>,class std::allocator<char> > *)
 ?deallocate@?$allocator@V?$basic_string@DU?$char_traits@D@std@@V?$allocator@D@2@@std@@@std@@QAEXPAXI@Z @ 226 NONAME ; public: void __thiscall std::allocator<class std::basic_string<char,struct std::char_traits<char>,class std::allocator<char> > >::deallocate(void *,unsigned int)
 ?_Destroy@?$vector@V?$vector@V?$basic_string@DU?$char_traits@D@std@@V?$allocator@D@2@@std@@V?$allocator@V?$basic_string@DU?$char_traits@D@std@@V?$allocator@D@2@@std@@@2@@std@@V?$allocator@V?$vector@V?$basic_string@DU?$char_traits@D@std@@V?$allocator@D@2@@std@@V?$allocator@V?$basic_string@DU?$char_traits@D@std@@V?$allocator@D@2@@std@@@2@@std@@@2@@std@@IAEXPAV?$vector@V?$basic_string@DU?$char_traits@D@std@@V?$allocator@D@2@@std@@V?$allocator@V?$basic_string@DU?$char_traits@D@std@@V?$allocator@D@2@@std@@@2@@2@0@Z @ 227 NONAME ; protected: void __thiscall std::vector<class std::vector<class std::basic_string<char,struct std::char_traits<char>,class std::allocator<char> >,class std::allocator<class std::basic_string<char,struct std::char_traits<char>,class std::allocator<char> > > >,class std::allocator<class std::vector<class std::basic_string<char,struct std::char_traits<char>,class std::allocator<char> >,class std::allocator<class std::basic_string<char,struct std::char_traits<char>,class std::allocator<char> > > > > >::_Destroy
 ?deallocate@?$allocator@V?$vector@V?$basic_string@DU?$char_traits@D@std@@V?$allocator@D@2@@std@@V?$allocator@V?$basic_string@DU?$char_traits@D@std@@V?$allocator@D@2@@std@@@2@@std@@@std@@QAEXPAXI@Z @ 228 NONAME ; public: void __thiscall std::allocator<class std::vector<class std::basic_string<char,struct std::char_traits<char>,class std::allocator<char> >,class std::allocator<class std::basic_string<char,struct std::char_traits<char>,class std::allocator<char> > > > >::deallocate(void *,unsigned int)
 ?insert@?$vector@HV?$allocator@H@std@@@std@@QAEPAHPAHABH@Z @ 229 NONAME ; public: int * __thiscall std::vector<int,class std::allocator<int> >::insert(int *,int const &)
 ?insert@?$vector@HV?$allocator@H@std@@@std@@QAEXPAHIABH@Z @ 230 NONAME ; public: void __thiscall std::vector<int,class std::allocator<int> >::insert(int *,unsigned int,int const &)
 ?_Destroy@?$vector@HV?$allocator@H@std@@@std@@IAEXPAH0@Z @ 231 NONAME ; protected: void __thiscall std::vector<int,class std::allocator<int> >::_Destroy(int *,int *)
 ?deallocate@?$allocator@H@std@@QAEXPAXI@Z @ 232 NONAME ; public: void __thiscall std::allocator<int>::deallocate(void *,unsigned int)
 ?capacity@?$vector@PAVOBRing@OpenBabel@@V?$allocator@PAVOBRing@OpenBabel@@@std@@@std@@QBEIXZ @ 233 NONAME ; public: unsigned int __thiscall std::vector<class OpenBabel::OBRing *,class std::allocator<class OpenBabel::OBRing *> >::capacity(void)const 
 ?begin@?$vector@PAVOBRing@OpenBabel@@V?$allocator@PAVOBRing@OpenBabel@@@std@@@std@@QBEPBQAVOBRing@OpenBabel@@XZ @ 234 NONAME ; public: class OpenBabel::OBRing * const * __thiscall std::vector<class OpenBabel::OBRing *,class std::allocator<class OpenBabel::OBRing *> >::begin(void)const 
 ?end@?$vector@PAVOBRing@OpenBabel@@V?$allocator@PAVOBRing@OpenBabel@@@std@@@std@@QBEPBQAVOBRing@OpenBabel@@XZ @ 235 NONAME ; public: class OpenBabel::OBRing * const * __thiscall std::vector<class OpenBabel::OBRing *,class std::allocator<class OpenBabel::OBRing *> >::end(void)const 
 ?size@?$vector@PAVOBRing@OpenBabel@@V?$allocator@PAVOBRing@OpenBabel@@@std@@@std@@QBEIXZ @ 236 NONAME ; public: unsigned int __thiscall std::vector<class OpenBabel::OBRing *,class std::allocator<class OpenBabel::OBRing *> >::size(void)const 
 ?_Destroy@?$vector@PAVOBRing@OpenBabel@@V?$allocator@PAVOBRing@OpenBabel@@@std@@@std@@IAEXPAPAVOBRing@OpenBabel@@0@Z @ 237 NONAME ; protected: void __thiscall std::vector<class OpenBabel::OBRing *,class std::allocator<class OpenBabel::OBRing *> >::_Destroy(class OpenBabel::OBRing * *,class OpenBabel::OBRing * *)
 ?_Ucopy@?$vector@PAVOBRing@OpenBabel@@V?$allocator@PAVOBRing@OpenBabel@@@std@@@std@@IAEPAPAVOBRing@OpenBabel@@PBQAV34@0PAPAV34@@Z @ 238 NONAME ; protected: class OpenBabel::OBRing * * __thiscall std::vector<class OpenBabel::OBRing *,class std::allocator<class OpenBabel::OBRing *> >::_Ucopy(class OpenBabel::OBRing * const *,class OpenBabel::OBRing * const *,class OpenBabel::OBRing * *)
 ?allocate@?$allocator@PAVOBRing@OpenBabel@@@std@@QAEPAPAVOBRing@OpenBabel@@IPBX@Z @ 239 NONAME ; public: class OpenBabel::OBRing * * __thiscall std::allocator<class OpenBabel::OBRing *>::allocate(unsigned int,void const *)
 ?deallocate@?$allocator@PAVOBRing@OpenBabel@@@std@@QAEXPAXI@Z @ 240 NONAME ; public: void __thiscall std::allocator<class OpenBabel::OBRing *>::deallocate(void *,unsigned int)
 ?_Destroy@?$vector@_NV?$allocator@_N@std@@@std@@IAEXPA_N0@Z @ 241 NONAME ; protected: void __thiscall std::vector<bool,class std::allocator<bool> >::_Destroy(bool *,bool *)
 ?deallocate@?$allocator@_N@std@@QAEXPAXI@Z @ 242 NONAME ; public: void __thiscall std::allocator<bool>::deallocate(void *,unsigned int)
 ?capacity@?$vector@V?$vector@HV?$allocator@H@std@@@std@@V?$allocator@V?$vector@HV?$allocator@H@std@@@std@@@2@@std@@QBEIXZ @ 243 NONAME ; public: unsigned int __thiscall std::vector<class std::vector<int,class std::allocator<int> >,class std::allocator<class std::vector<int,class std::allocator<int> > > >::capacity(void)const 
 ?begin@?$vector@V?$vector@HV?$allocator@H@std@@@std@@V?$allocator@V?$vector@HV?$allocator@H@std@@@std@@@2@@std@@QBEPBV?$vector@HV?$allocator@H@std@@@2@XZ @ 244 NONAME ; public: class std::vector<int,class std::allocator<int> > const * __thiscall std::vector<class std::vector<int,class std::allocator<int> >,class std::allocator<class std::vector<int,class std::allocator<int> > > >::begin(void)const 
 ?end@?$vector@V?$vector@HV?$allocator@H@std@@@std@@V?$allocator@V?$vector@HV?$allocator@H@std@@@std@@@2@@std@@QBEPBV?$vector@HV?$allocator@H@std@@@2@XZ @ 245 NONAME ; public: class std::vector<int,class std::allocator<int> > const * __thiscall std::vector<class std::vector<int,class std::allocator<int> >,class std::allocator<class std::vector<int,class std::allocator<int> > > >::end(void)const 
 ?_Destroy@?$vector@V?$vector@HV?$allocator@H@std@@@std@@V?$allocator@V?$vector@HV?$allocator@H@std@@@std@@@2@@std@@IAEXPAV?$vector@HV?$allocator@H@std@@@2@0@Z @ 246 NONAME ; protected: void __thiscall std::vector<class std::vector<int,class std::allocator<int> >,class std::allocator<class std::vector<int,class std::allocator<int> > > >::_Destroy(class std::vector<int,class std::allocator<int> > *,class std::vector<int,class std::allocator<int> > *)
 ?_Ucopy@?$vector@V?$vector@HV?$allocator@H@std@@@std@@V?$allocator@V?$vector@HV?$allocator@H@std@@@std@@@2@@std@@IAEPAV?$vector@HV?$allocator@H@std@@@2@PBV32@0PAV32@@Z @ 247 NONAME ; protected: class std::vector<int,class std::allocator<int> > * __thiscall std::vector<class std::vector<int,class std::allocator<int> >,class std::allocator<class std::vector<int,class std::allocator<int> > > >::_Ucopy(class std::vector<int,class std::allocator<int> > const *,class std::vector<int,class std::allocator<int> > const *,class std::vector<int,class std::allocator<int> > *)
 ?allocate@?$allocator@V?$vector@HV?$allocator@H@std@@@std@@@std@@QAEPAV?$vector@HV?$allocator@H@std@@@2@IPBX@Z @ 248 NONAME ; public: class std::vector<int,class std::allocator<int> > * __thiscall std::allocator<class std::vector<int,class std::allocator<int> > >::allocate(unsigned int,void const *)
 ?deallocate@?$allocator@V?$vector@HV?$allocator@H@std@@@std@@@std@@QAEXPAXI@Z @ 249 NONAME ; public: void __thiscall std::allocator<class std::vector<int,class std::allocator<int> > >::deallocate(void *,unsigned int)
 ?insert@?$vector@PAVOBAtom@OpenBabel@@V?$allocator@PAVOBAtom@OpenBabel@@@std@@@std@@QAEPAPAVOBAtom@OpenBabel@@PAPAV34@ABQAV34@@Z @ 250 NONAME ; public: class OpenBabel::OBAtom * * __thiscall std::vector<class OpenBabel::OBAtom *,class std::allocator<class OpenBabel::OBAtom *> >::insert(class OpenBabel::OBAtom * *,class OpenBabel::OBAtom * const &)
 ?_Destroy@?$vector@PAVOBAtom@OpenBabel@@V?$allocator@PAVOBAtom@OpenBabel@@@std@@@std@@IAEXPAPAVOBAtom@OpenBabel@@0@Z @ 251 NONAME ; protected: void __thiscall std::vector<class OpenBabel::OBAtom *,class std::allocator<class OpenBabel::OBAtom *> >::_Destroy(class OpenBabel::OBAtom * *,class OpenBabel::OBAtom * *)
 ?deallocate@?$allocator@PAVOBAtom@OpenBabel@@@std@@QAEXPAXI@Z @ 252 NONAME ; public: void __thiscall std::allocator<class OpenBabel::OBAtom *>::deallocate(void *,unsigned int)
 ?capacity@?$vector@PAVOBGenericData@OpenBabel@@V?$allocator@PAVOBGenericData@OpenBabel@@@std@@@std@@QBEIXZ @ 253 NONAME ; public: unsigned int __thiscall std::vector<class OpenBabel::OBGenericData *,class std::allocator<class OpenBabel::OBGenericData *> >::capacity(void)const 
 ?begin@?$vector@PAVOBGenericData@OpenBabel@@V?$allocator@PAVOBGenericData@OpenBabel@@@std@@@std@@QBEPBQAVOBGenericData@OpenBabel@@XZ @ 254 NONAME ; public: class OpenBabel::OBGenericData * const * __thiscall std::vector<class OpenBabel::OBGenericData *,class std::allocator<class OpenBabel::OBGenericData *> >::begin(void)const 
 ?end@?$vector@PAVOBGenericData@OpenBabel@@V?$allocator@PAVOBGenericData@OpenBabel@@@std@@@std@@QBEPBQAVOBGenericData@OpenBabel@@XZ @ 255 NONAME ; public: class OpenBabel::OBGenericData * const * __thiscall std::vector<class OpenBabel::OBGenericData *,class std::allocator<class OpenBabel::OBGenericData *> >::end(void)const 
 ?insert@?$vector@PAVOBGenericData@OpenBabel@@V?$allocator@PAVOBGenericData@OpenBabel@@@std@@@std@@QAEPAPAVOBGenericData@OpenBabel@@PAPAV34@ABQAV34@@Z @ 256 NONAME ; public: class OpenBabel::OBGenericData * * __thiscall std::vector<class OpenBabel::OBGenericData *,class std::allocator<class OpenBabel::OBGenericData *> >::insert(class OpenBabel::OBGenericData * *,class OpenBabel::OBGenericData * const &)
 ?erase@?$vector@PAVOBGenericData@OpenBabel@@V?$allocator@PAVOBGenericData@OpenBabel@@@std@@@std@@QAEPAPAVOBGenericData@OpenBabel@@PAPAV34@0@Z @ 257 NONAME ; public: class OpenBabel::OBGenericData * * __thiscall std::vector<class OpenBabel::OBGenericData *,class std::allocator<class OpenBabel::OBGenericData *> >::erase(class OpenBabel::OBGenericData * *,class OpenBabel::OBGenericData * *)
 ?_Destroy@?$vector@PAVOBGenericData@OpenBabel@@V?$allocator@PAVOBGenericData@OpenBabel@@@std@@@std@@IAEXPAPAVOBGenericData@OpenBabel@@0@Z @ 258 NONAME ; protected: void __thiscall std::vector<class OpenBabel::OBGenericData *,class std::allocator<class OpenBabel::OBGenericData *> >::_Destroy(class OpenBabel::OBGenericData * *,class OpenBabel::OBGenericData * *)
 ?_Ucopy@?$vector@PAVOBGenericData@OpenBabel@@V?$allocator@PAVOBGenericData@OpenBabel@@@std@@@std@@IAEPAPAVOBGenericData@OpenBabel@@PBQAV34@0PAPAV34@@Z @ 259 NONAME ; protected: class OpenBabel::OBGenericData * * __thiscall std::vector<class OpenBabel::OBGenericData *,class std::allocator<class OpenBabel::OBGenericData *> >::_Ucopy(class OpenBabel::OBGenericData * const *,class OpenBabel::OBGenericData * const *,class OpenBabel::OBGenericData * *)
 ?allocate@?$allocator@PAVOBGenericData@OpenBabel@@@std@@QAEPAPAVOBGenericData@OpenBabel@@IPBX@Z @ 260 NONAME ; public: class OpenBabel::OBGenericData * * __thiscall std::allocator<class OpenBabel::OBGenericData *>::allocate(unsigned int,void const *)
 ?deallocate@?$allocator@PAVOBGenericData@OpenBabel@@@std@@QAEXPAXI@Z @ 261 NONAME ; public: void __thiscall std::allocator<class OpenBabel::OBGenericData *>::deallocate(void *,unsigned int)
 ?construct@?$allocator@PAVOBEdgeBase@OpenBabel@@@std@@QAEXPAPAVOBEdgeBase@OpenBabel@@ABQAV34@@Z @ 262 NONAME ; public: void __thiscall std::allocator<class OpenBabel::OBEdgeBase *>::construct(class OpenBabel::OBEdgeBase * *,class OpenBabel::OBEdgeBase * const &)
 ?destroy@?$allocator@PAVOBEdgeBase@OpenBabel@@@std@@QAEXPAPAVOBEdgeBase@OpenBabel@@@Z @ 263 NONAME ; public: void __thiscall std::allocator<class OpenBabel::OBEdgeBase *>::destroy(class OpenBabel::OBEdgeBase * *)
 ?destroy@?$allocator@V?$basic_string@DU?$char_traits@D@std@@V?$allocator@D@2@@std@@@std@@QAEXPAV?$basic_string@DU?$char_traits@D@std@@V?$allocator@D@2@@2@@Z @ 264 NONAME ; public: void __thiscall std::allocator<class std::basic_string<char,struct std::char_traits<char>,class std::allocator<char> > >::destroy(class std::basic_string<char,struct std::char_traits<char>,class std::allocator<char> > *)
 ?destroy@?$allocator@V?$vector@V?$basic_string@DU?$char_traits@D@std@@V?$allocator@D@2@@std@@V?$allocator@V?$basic_string@DU?$char_traits@D@std@@V?$allocator@D@2@@std@@@2@@std@@@std@@QAEXPAV?$vector@V?$basic_string@DU?$char_traits@D@std@@V?$allocator@D@2@@std@@V?$allocator@V?$basic_string@DU?$char_traits@D@std@@V?$allocator@D@2@@std@@@2@@2@@Z @ 265 NONAME ; public: void __thiscall std::allocator<class std::vector<class std::basic_string<char,struct std::char_traits<char>,class std::allocator<char> >,class std::allocator<class std::basic_string<char,struct std::char_traits<char>,class std::allocator<char> > > > >::destroy(class std::vector<class std::basic_string<char,struct std::char_traits<char>,class std::allocator<char> >,class std::allocator<class std::basic_string<char,struct std::char_traits<char>,class std::allocator<char> > > > *)
 ?_Ucopy@?$vector@HV?$allocator@H@std@@@std@@IAEPAHPBH0PAH@Z @ 266 NONAME ; protected: int * __thiscall std::vector<int,class std::allocator<int> >::_Ucopy(int const *,int const *,int *)
 ?_Ufill@?$vector@HV?$allocator@H@std@@@std@@IAEXPAHIABH@Z @ 267 NONAME ; protected: void __thiscall std::vector<int,class std::allocator<int> >::_Ufill(int *,unsigned int,int const &)
 ?allocate@?$allocator@H@std@@QAEPAHIPBX@Z @ 268 NONAME ; public: int * __thiscall std::allocator<int>::allocate(unsigned int,void const *)
 ?destroy@?$allocator@H@std@@QAEXPAH@Z @ 269 NONAME ; public: void __thiscall std::allocator<int>::destroy(int *)
 ?construct@?$allocator@PAVOBRing@OpenBabel@@@std@@QAEXPAPAVOBRing@OpenBabel@@ABQAV34@@Z @ 270 NONAME ; public: void __thiscall std::allocator<class OpenBabel::OBRing *>::construct(class OpenBabel::OBRing * *,class OpenBabel::OBRing * const &)
 ?destroy@?$allocator@PAVOBRing@OpenBabel@@@std@@QAEXPAPAVOBRing@OpenBabel@@@Z @ 271 NONAME ; public: void __thiscall std::allocator<class OpenBabel::OBRing *>::destroy(class OpenBabel::OBRing * *)
 ?destroy@?$allocator@_N@std@@QAEXPA_N@Z @ 272 NONAME ; public: void __thiscall std::allocator<bool>::destroy(bool *)
 ?construct@?$allocator@V?$vector@HV?$allocator@H@std@@@std@@@std@@QAEXPAV?$vector@HV?$allocator@H@std@@@2@ABV32@@Z @ 273 NONAME ; public: void __thiscall std::allocator<class std::vector<int,class std::allocator<int> > >::construct(class std::vector<int,class std::allocator<int> > *,class std::vector<int,class std::allocator<int> > const &)
 ?destroy@?$allocator@V?$vector@HV?$allocator@H@std@@@std@@@std@@QAEXPAV?$vector@HV?$allocator@H@std@@@2@@Z @ 274 NONAME ; public: void __thiscall std::allocator<class std::vector<int,class std::allocator<int> > >::destroy(class std::vector<int,class std::allocator<int> > *)
 ?insert@?$vector@PAVOBAtom@OpenBabel@@V?$allocator@PAVOBAtom@OpenBabel@@@std@@@std@@QAEXPAPAVOBAtom@OpenBabel@@IABQAV34@@Z @ 275 NONAME ; public: void __thiscall std::vector<class OpenBabel::OBAtom *,class std::allocator<class OpenBabel::OBAtom *> >::insert(class OpenBabel::OBAtom * *,unsigned int,class OpenBabel::OBAtom * const &)
 ?destroy@?$allocator@PAVOBAtom@OpenBabel@@@std@@QAEXPAPAVOBAtom@OpenBabel@@@Z @ 276 NONAME ; public: void __thiscall std::allocator<class OpenBabel::OBAtom *>::destroy(class OpenBabel::OBAtom * *)
 ?insert@?$vector@PAVOBGenericData@OpenBabel@@V?$allocator@PAVOBGenericData@OpenBabel@@@std@@@std@@QAEXPAPAVOBGenericData@OpenBabel@@IABQAV34@@Z @ 277 NONAME ; public: void __thiscall std::vector<class OpenBabel::OBGenericData *,class std::allocator<class OpenBabel::OBGenericData *> >::insert(class OpenBabel::OBGenericData * *,unsigned int,class OpenBabel::OBGenericData * const &)
 ?construct@?$allocator@PAVOBGenericData@OpenBabel@@@std@@QAEXPAPAVOBGenericData@OpenBabel@@ABQAV34@@Z @ 278 NONAME ; public: void __thiscall std::allocator<class OpenBabel::OBGenericData *>::construct(class OpenBabel::OBGenericData * *,class OpenBabel::OBGenericData * const &)
 ?destroy@?$allocator@PAVOBGenericData@OpenBabel@@@std@@QAEXPAPAVOBGenericData@OpenBabel@@@Z @ 279 NONAME ; public: void __thiscall std::allocator<class OpenBabel::OBGenericData *>::destroy(class OpenBabel::OBGenericData * *)
 ?construct@?$allocator@H@std@@QAEXPAHABH@Z @ 280 NONAME ; public: void __thiscall std::allocator<int>::construct(int *,int const &)
 ?size@?$vector@PAVOBAtom@OpenBabel@@V?$allocator@PAVOBAtom@OpenBabel@@@std@@@std@@QBEIXZ @ 281 NONAME ; public: unsigned int __thiscall std::vector<class OpenBabel::OBAtom *,class std::allocator<class OpenBabel::OBAtom *> >::size(void)const 
 ?_Ucopy@?$vector@PAVOBAtom@OpenBabel@@V?$allocator@PAVOBAtom@OpenBabel@@@std@@@std@@IAEPAPAVOBAtom@OpenBabel@@PBQAV34@0PAPAV34@@Z @ 282 NONAME ; protected: class OpenBabel::OBAtom * * __thiscall std::vector<class OpenBabel::OBAtom *,class std::allocator<class OpenBabel::OBAtom *> >::_Ucopy(class OpenBabel::OBAtom * const *,class OpenBabel::OBAtom * const *,class OpenBabel::OBAtom * *)
 ?_Ufill@?$vector@PAVOBAtom@OpenBabel@@V?$allocator@PAVOBAtom@OpenBabel@@@std@@@std@@IAEXPAPAVOBAtom@OpenBabel@@IABQAV34@@Z @ 283 NONAME ; protected: void __thiscall std::vector<class OpenBabel::OBAtom *,class std::allocator<class OpenBabel::OBAtom *> >::_Ufill(class OpenBabel::OBAtom * *,unsigned int,class OpenBabel::OBAtom * const &)
 ?allocate@?$allocator@PAVOBAtom@OpenBabel@@@std@@QAEPAPAVOBAtom@OpenBabel@@IPBX@Z @ 284 NONAME ; public: class OpenBabel::OBAtom * * __thiscall std::allocator<class OpenBabel::OBAtom *>::allocate(unsigned int,void const *)
 ?_Ufill@?$vector@PAVOBGenericData@OpenBabel@@V?$allocator@PAVOBGenericData@OpenBabel@@@std@@@std@@IAEXPAPAVOBGenericData@OpenBabel@@IABQAV34@@Z @ 285 NONAME ; protected: void __thiscall std::vector<class OpenBabel::OBGenericData *,class std::allocator<class OpenBabel::OBGenericData *> >::_Ufill(class OpenBabel::OBGenericData * *,unsigned int,class OpenBabel::OBGenericData * const &)
 ?construct@?$allocator@PAVOBAtom@OpenBabel@@@std@@QAEXPAPAVOBAtom@OpenBabel@@ABQAV34@@Z @ 286 NONAME ; public: void __thiscall std::allocator<class OpenBabel::OBAtom *>::construct(class OpenBabel::OBAtom * *,class OpenBabel::OBAtom * const &)
 ?copy@std@@YAPAPAVOBEdgeBase@OpenBabel@@PAPAV23@00@Z @ 287 NONAME ; class OpenBabel::OBEdgeBase * * __cdecl std::copy(class OpenBabel::OBEdgeBase * *,class OpenBabel::OBEdgeBase * *,class OpenBabel::OBEdgeBase * *)
 ?copy@std@@YAPAPAVOBRing@OpenBabel@@PBQAV23@0PAPAV23@@Z @ 288 NONAME ; class OpenBabel::OBRing * * __cdecl std::copy(class OpenBabel::OBRing * const *,class OpenBabel::OBRing * const *,class OpenBabel::OBRing * *)
 ?copy@std@@YAPAV?$vector@HV?$allocator@H@std@@@1@PBV21@0PAV21@@Z @ 289 NONAME ; class std::vector<int,class std::allocator<int> > * __cdecl std::copy(class std::vector<int,class std::allocator<int> > const *,class std::vector<int,class std::allocator<int> > const *,class std::vector<int,class std::allocator<int> > *)
 ?copy@std@@YAPAPAVOBGenericData@OpenBabel@@PBQAV23@0PAPAV23@@Z @ 290 NONAME ; class OpenBabel::OBGenericData * * __cdecl std::copy(class OpenBabel::OBGenericData * const *,class OpenBabel::OBGenericData * const *,class OpenBabel::OBGenericData * *)
 ?copy@std@@YAPAPAVOBGenericData@OpenBabel@@PAPAV23@00@Z @ 291 NONAME ; class OpenBabel::OBGenericData * * __cdecl std::copy(class OpenBabel::OBGenericData * *,class OpenBabel::OBGenericData * *,class OpenBabel::OBGenericData * *)
 ?_Allocate@std@@YAPAPAVOBEdgeBase@OpenBabel@@HPAPAV23@@Z @ 292 NONAME ; class OpenBabel::OBEdgeBase * * __cdecl std::_Allocate(int,class OpenBabel::OBEdgeBase * *)
 ?fill@std@@YAXPAH0ABH@Z @ 293 NONAME ; void __cdecl std::fill(int *,int *,int const &)
 ?copy_backward@std@@YAPAHPAH00@Z @ 294 NONAME ; int * __cdecl std::copy_backward(int *,int *,int *)
 ?_Allocate@std@@YAPAPAVOBRing@OpenBabel@@HPAPAV23@@Z @ 295 NONAME ; class OpenBabel::OBRing * * __cdecl std::_Allocate(int,class OpenBabel::OBRing * *)
 ?_Allocate@std@@YAPAV?$vector@HV?$allocator@H@std@@@1@HPAV21@@Z @ 296 NONAME ; class std::vector<int,class std::allocator<int> > * __cdecl std::_Allocate(int,class std::vector<int,class std::allocator<int> > *)
 ?_Allocate@std@@YAPAPAVOBGenericData@OpenBabel@@HPAPAV23@@Z @ 297 NONAME ; class OpenBabel::OBGenericData * * __cdecl std::_Allocate(int,class OpenBabel::OBGenericData * *)
 ?_Construct@std@@YAXPAPAVOBEdgeBase@OpenBabel@@ABQAV23@@Z @ 298 NONAME ; void __cdecl std::_Construct(class OpenBabel::OBEdgeBase * *,class OpenBabel::OBEdgeBase * const &)
 ??2@YAPAXIPAX@Z @ 299 NONAME ; void * __cdecl operator new(unsigned int,void *)
 ?_Destroy@std@@YAXPAPAVOBEdgeBase@OpenBabel@@@Z @ 300 NONAME ; void __cdecl std::_Destroy(class OpenBabel::OBEdgeBase * *)
 ?_Destroy@std@@YAXPAV?$basic_string@DU?$char_traits@D@std@@V?$allocator@D@2@@1@@Z @ 301 NONAME ; void __cdecl std::_Destroy(class std::basic_string<char,struct std::char_traits<char>,class std::allocator<char> > *)
 ?_Destroy@std@@YAXPAV?$vector@V?$basic_string@DU?$char_traits@D@std@@V?$allocator@D@2@@std@@V?$allocator@V?$basic_string@DU?$char_traits@D@std@@V?$allocator@D@2@@std@@@2@@1@@Z @ 302 NONAME ; void __cdecl std::_Destroy(class std::vector<class std::basic_string<char,struct std::char_traits<char>,class std::allocator<char> >,class std::allocator<class std::basic_string<char,struct std::char_traits<char>,class std::allocator<char> > > > *)
 ?_Allocate@std@@YAPAHHPAH@Z @ 303 NONAME ; int * __cdecl std::_Allocate(int,int *)
 ?_Destroy@std@@YAXPAH@Z @ 304 NONAME ; void __cdecl std::_Destroy(int *)
 ?_Construct@std@@YAXPAPAVOBRing@OpenBabel@@ABQAV23@@Z @ 305 NONAME ; void __cdecl std::_Construct(class OpenBabel::OBRing * *,class OpenBabel::OBRing * const &)
 ?_Destroy@std@@YAXPAPAVOBRing@OpenBabel@@@Z @ 306 NONAME ; void __cdecl std::_Destroy(class OpenBabel::OBRing * *)
 ?_Destroy@std@@YAXPA_N@Z @ 307 NONAME ; void __cdecl std::_Destroy(bool *)
 ?_Construct@std@@YAXPAV?$vector@HV?$allocator@H@std@@@1@ABV21@@Z @ 308 NONAME ; void __cdecl std::_Construct(class std::vector<int,class std::allocator<int> > *,class std::vector<int,class std::allocator<int> > const &)
 ??3@YAXPAX0@Z @ 309 NONAME ; void __cdecl operator delete(void *,void *)
 ?_Destroy@std@@YAXPAV?$vector@HV?$allocator@H@std@@@1@@Z @ 310 NONAME ; void __cdecl std::_Destroy(class std::vector<int,class std::allocator<int> > *)
 ?fill@std@@YAXPAPAVOBAtom@OpenBabel@@0ABQAV23@@Z @ 311 NONAME ; void __cdecl std::fill(class OpenBabel::OBAtom * *,class OpenBabel::OBAtom * *,class OpenBabel::OBAtom * const &)
 ?copy_backward@std@@YAPAPAVOBAtom@OpenBabel@@PAPAV23@00@Z @ 312 NONAME ; class OpenBabel::OBAtom * * __cdecl std::copy_backward(class OpenBabel::OBAtom * *,class OpenBabel::OBAtom * *,class OpenBabel::OBAtom * *)
 ?_Destroy@std@@YAXPAPAVOBAtom@OpenBabel@@@Z @ 313 NONAME ; void __cdecl std::_Destroy(class OpenBabel::OBAtom * *)
 ?fill@std@@YAXPAPAVOBGenericData@OpenBabel@@0ABQAV23@@Z @ 314 NONAME ; void __cdecl std::fill(class OpenBabel::OBGenericData * *,class OpenBabel::OBGenericData * *,class OpenBabel::OBGenericData * const &)
 ?copy_backward@std@@YAPAPAVOBGenericData@OpenBabel@@PAPAV23@00@Z @ 315 NONAME ; class OpenBabel::OBGenericData * * __cdecl std::copy_backward(class OpenBabel::OBGenericData * *,class OpenBabel::OBGenericData * *,class OpenBabel::OBGenericData * *)
 ?_Construct@std@@YAXPAPAVOBGenericData@OpenBabel@@ABQAV23@@Z @ 316 NONAME ; void __cdecl std::_Construct(class OpenBabel::OBGenericData * *,class OpenBabel::OBGenericData * const &)
 ?_Destroy@std@@YAXPAPAVOBGenericData@OpenBabel@@@Z @ 317 NONAME ; void __cdecl std::_Destroy(class OpenBabel::OBGenericData * *)
 ?_Construct@std@@YAXPAHABH@Z @ 318 NONAME ; void __cdecl std::_Construct(int *,int const &)
 ?_Allocate@std@@YAPAPAVOBAtom@OpenBabel@@HPAPAV23@@Z @ 319 NONAME ; class OpenBabel::OBAtom * * __cdecl std::_Allocate(int,class OpenBabel::OBAtom * *)
 ?_Construct@std@@YAXPAPAVOBAtom@OpenBabel@@ABQAV23@@Z @ 320 NONAME ; void __cdecl std::_Construct(class OpenBabel::OBAtom * *,class OpenBabel::OBAtom * const &)
 ??0?$vector@HV?$allocator@H@std@@@std@@QAE@ABV01@@Z @ 321 NONAME ; public: __thiscall std::vector<int,class std::allocator<int> >::vector<int,class std::allocator<int> >(class std::vector<int,class std::allocator<int> > const &)
 ??4?$vector@HV?$allocator@H@std@@@std@@QAEAAV01@ABV01@@Z @ 322 NONAME ; public: class std::vector<int,class std::allocator<int> > & __thiscall std::vector<int,class std::allocator<int> >::operator=(class std::vector<int,class std::allocator<int> > const &)
 ?capacity@?$vector@HV?$allocator@H@std@@@std@@QBEIXZ @ 323 NONAME ; public: unsigned int __thiscall std::vector<int,class std::allocator<int> >::capacity(void)const 
 ?begin@?$vector@HV?$allocator@H@std@@@std@@QBEPBHXZ @ 324 NONAME ; public: int const * __thiscall std::vector<int,class std::allocator<int> >::begin(void)const 
 ?end@?$vector@HV?$allocator@H@std@@@std@@QBEPBHXZ @ 325 NONAME ; public: int const * __thiscall std::vector<int,class std::allocator<int> >::end(void)const 
 ?copy@std@@YAPAHPBH0PAH@Z @ 326 NONAME ; int * __cdecl std::copy(int const *,int const *,int *)
 ?Match@OBGraphBase@OpenBabel@@QAE_NAAV12@_N@Z @ 327 NONAME ; public: bool __thiscall OpenBabel::OBGraphBase::Match(class OpenBabel::OBGraphBase &,bool)
 ?Match@OBGraphBase@OpenBabel@@QAE_NAAV12@PAU?$pair@PAVOBNodeBase@OpenBabel@@V?$vector@PAVOBEdgeBase@OpenBabel@@V?$allocator@PAVOBEdgeBase@OpenBabel@@@std@@@std@@@std@@PAPAVOBEdgeBase@2@@Z @ 328 NONAME ; public: bool __thiscall OpenBabel::OBGraphBase::Match(class OpenBabel::OBGraphBase &,struct std::pair<class OpenBabel::OBNodeBase *,class std::vector<class OpenBabel::OBEdgeBase *,class std::allocator<class OpenBabel::OBEdgeBase *> > > *,class OpenBabel::OBEdgeBase * *)
 ?GetBgn@OBEdgeBase@OpenBabel@@QAEPAVOBNodeBase@2@XZ @ 329 NONAME ; public: class OpenBabel::OBNodeBase * __thiscall OpenBabel::OBEdgeBase::GetBgn(void)
 ?GetEnd@OBEdgeBase@OpenBabel@@QAEPAVOBNodeBase@2@XZ @ 330 NONAME ; public: class OpenBabel::OBNodeBase * __thiscall OpenBabel::OBEdgeBase::GetEnd(void)
 ?Begin@OBGraphBase@OpenBabel@@QAEPAVOBNodeBase@2@AAPAPAV32@@Z @ 331 NONAME ; public: class OpenBabel::OBNodeBase * __thiscall OpenBabel::OBGraphBase::Begin(class OpenBabel::OBNodeBase * * &)
 ?Next@OBGraphBase@OpenBabel@@QAEPAVOBNodeBase@2@AAPAPAV32@@Z @ 332 NONAME ; public: class OpenBabel::OBNodeBase * __thiscall OpenBabel::OBGraphBase::Next(class OpenBabel::OBNodeBase * * &)
 ?Begin@OBGraphBase@OpenBabel@@QAEPAVOBEdgeBase@2@AAPAPAV32@@Z @ 333 NONAME ; public: class OpenBabel::OBEdgeBase * __thiscall OpenBabel::OBGraphBase::Begin(class OpenBabel::OBEdgeBase * * &)
 ?Next@OBGraphBase@OpenBabel@@QAEPAVOBEdgeBase@2@AAPAPAV32@@Z @ 334 NONAME ; public: class OpenBabel::OBEdgeBase * __thiscall OpenBabel::OBGraphBase::Next(class OpenBabel::OBEdgeBase * * &)
 ?BeginNbr@OBNodeBase@OpenBabel@@QAEPAV12@AAPAPAVOBEdgeBase@2@@Z @ 335 NONAME ; public: class OpenBabel::OBNodeBase * __thiscall OpenBabel::OBNodeBase::BeginNbr(class OpenBabel::OBEdgeBase * * &)
 ?NextNbr@OBNodeBase@OpenBabel@@QAEPAV12@AAPAPAVOBEdgeBase@2@@Z @ 336 NONAME ; public: class OpenBabel::OBNodeBase * __thiscall OpenBabel::OBNodeBase::NextNbr(class OpenBabel::OBEdgeBase * * &)
 ?SetParent@OBNodeBase@OpenBabel@@QAEXPAVOBGraphBase@2@@Z @ 337 NONAME ; public: void __thiscall OpenBabel::OBNodeBase::SetParent(class OpenBabel::OBGraphBase *)
 ?SetParent@OBEdgeBase@OpenBabel@@QAEXPAVOBGraphBase@2@@Z @ 338 NONAME ; public: void __thiscall OpenBabel::OBEdgeBase::SetParent(class OpenBabel::OBGraphBase *)
 ?IsConnected@OBNodeBase@OpenBabel@@UAE_NPAV12@@Z @ 339 NONAME ; public: virtual bool __thiscall OpenBabel::OBNodeBase::IsConnected(class OpenBabel::OBNodeBase *)
 ?ResetVisitFlags@OBGraphBase@OpenBabel@@QAEXXZ @ 340 NONAME ; public: void __thiscall OpenBabel::OBGraphBase::ResetVisitFlags(void)
 ?SetVisitLock@OBGraphBase@OpenBabel@@QAE_N_N@Z @ 341 NONAME ; public: bool __thiscall OpenBabel::OBGraphBase::SetVisitLock(bool)
 ??0?$vector@PAVOBNodeBase@OpenBabel@@V?$allocator@PAVOBNodeBase@OpenBabel@@@std@@@std@@QAE@ABV?$allocator@PAVOBNodeBase@OpenBabel@@@1@@Z @ 342 NONAME ; public: __thiscall std::vector<class OpenBabel::OBNodeBase *,class std::allocator<class OpenBabel::OBNodeBase *> >::vector<class OpenBabel::OBNodeBase *,class std::allocator<class OpenBabel::OBNodeBase *> >(class std::allocator<class OpenBabel::OBNodeBase *> const &)
 ??1?$vector@PAVOBNodeBase@OpenBabel@@V?$allocator@PAVOBNodeBase@OpenBabel@@@std@@@std@@QAE@XZ @ 343 NONAME ; public: __thiscall std::vector<class OpenBabel::OBNodeBase *,class std::allocator<class OpenBabel::OBNodeBase *> >::~vector<class OpenBabel::OBNodeBase *,class std::allocator<class OpenBabel::OBNodeBase *> >(void)
 ?begin@?$vector@PAVOBNodeBase@OpenBabel@@V?$allocator@PAVOBNodeBase@OpenBabel@@@std@@@std@@QAEPAPAVOBNodeBase@OpenBabel@@XZ @ 344 NONAME ; public: class OpenBabel::OBNodeBase * * __thiscall std::vector<class OpenBabel::OBNodeBase *,class std::allocator<class OpenBabel::OBNodeBase *> >::begin(void)
 ?end@?$vector@PAVOBNodeBase@OpenBabel@@V?$allocator@PAVOBNodeBase@OpenBabel@@@std@@@std@@QAEPAPAVOBNodeBase@OpenBabel@@XZ @ 345 NONAME ; public: class OpenBabel::OBNodeBase * * __thiscall std::vector<class OpenBabel::OBNodeBase *,class std::allocator<class OpenBabel::OBNodeBase *> >::end(void)
 ?push_back@?$vector@PAVOBNodeBase@OpenBabel@@V?$allocator@PAVOBNodeBase@OpenBabel@@@std@@@std@@QAEXABQAVOBNodeBase@OpenBabel@@@Z @ 346 NONAME ; public: void __thiscall std::vector<class OpenBabel::OBNodeBase *,class std::allocator<class OpenBabel::OBNodeBase *> >::push_back(class OpenBabel::OBNodeBase * const &)
 ?insert@?$vector@PAVOBNodeBase@OpenBabel@@V?$allocator@PAVOBNodeBase@OpenBabel@@@std@@@std@@QAEPAPAVOBNodeBase@OpenBabel@@PAPAV34@ABQAV34@@Z @ 347 NONAME ; public: class OpenBabel::OBNodeBase * * __thiscall std::vector<class OpenBabel::OBNodeBase *,class std::allocator<class OpenBabel::OBNodeBase *> >::insert(class OpenBabel::OBNodeBase * *,class OpenBabel::OBNodeBase * const &)
 ?_Destroy@?$vector@PAVOBNodeBase@OpenBabel@@V?$allocator@PAVOBNodeBase@OpenBabel@@@std@@@std@@IAEXPAPAVOBNodeBase@OpenBabel@@0@Z @ 348 NONAME ; protected: void __thiscall std::vector<class OpenBabel::OBNodeBase *,class std::allocator<class OpenBabel::OBNodeBase *> >::_Destroy(class OpenBabel::OBNodeBase * *,class OpenBabel::OBNodeBase * *)
 ?deallocate@?$allocator@PAVOBNodeBase@OpenBabel@@@std@@QAEXPAXI@Z @ 349 NONAME ; public: void __thiscall std::allocator<class OpenBabel::OBNodeBase *>::deallocate(void *,unsigned int)
 ?insert@?$vector@PAVOBNodeBase@OpenBabel@@V?$allocator@PAVOBNodeBase@OpenBabel@@@std@@@std@@QAEXPAPAVOBNodeBase@OpenBabel@@IABQAV34@@Z @ 350 NONAME ; public: void __thiscall std::vector<class OpenBabel::OBNodeBase *,class std::allocator<class OpenBabel::OBNodeBase *> >::insert(class OpenBabel::OBNodeBase * *,unsigned int,class OpenBabel::OBNodeBase * const &)
 ?size@?$vector@PAVOBNodeBase@OpenBabel@@V?$allocator@PAVOBNodeBase@OpenBabel@@@std@@@std@@QBEIXZ @ 351 NONAME ; public: unsigned int __thiscall std::vector<class OpenBabel::OBNodeBase *,class std::allocator<class OpenBabel::OBNodeBase *> >::size(void)const 
 ?destroy@?$allocator@PAVOBNodeBase@OpenBabel@@@std@@QAEXPAPAVOBNodeBase@OpenBabel@@@Z @ 352 NONAME ; public: void __thiscall std::allocator<class OpenBabel::OBNodeBase *>::destroy(class OpenBabel::OBNodeBase * *)
 ?_Ucopy@?$vector@PAVOBNodeBase@OpenBabel@@V?$allocator@PAVOBNodeBase@OpenBabel@@@std@@@std@@IAEPAPAVOBNodeBase@OpenBabel@@PBQAV34@0PAPAV34@@Z @ 353 NONAME ; protected: class OpenBabel::OBNodeBase * * __thiscall std::vector<class OpenBabel::OBNodeBase *,class std::allocator<class OpenBabel::OBNodeBase *> >::_Ucopy(class OpenBabel::OBNodeBase * const *,class OpenBabel::OBNodeBase * const *,class OpenBabel::OBNodeBase * *)
 ?_Ufill@?$vector@PAVOBNodeBase@OpenBabel@@V?$allocator@PAVOBNodeBase@OpenBabel@@@std@@@std@@IAEXPAPAVOBNodeBase@OpenBabel@@IABQAV34@@Z @ 354 NONAME ; protected: void __thiscall std::vector<class OpenBabel::OBNodeBase *,class std::allocator<class OpenBabel::OBNodeBase *> >::_Ufill(class OpenBabel::OBNodeBase * *,unsigned int,class OpenBabel::OBNodeBase * const &)
 ?allocate@?$allocator@PAVOBNodeBase@OpenBabel@@@std@@QAEPAPAVOBNodeBase@OpenBabel@@IPBX@Z @ 355 NONAME ; public: class OpenBabel::OBNodeBase * * __thiscall std::allocator<class OpenBabel::OBNodeBase *>::allocate(unsigned int,void const *)
 ?construct@?$allocator@PAVOBNodeBase@OpenBabel@@@std@@QAEXPAPAVOBNodeBase@OpenBabel@@ABQAV34@@Z @ 356 NONAME ; public: void __thiscall std::allocator<class OpenBabel::OBNodeBase *>::construct(class OpenBabel::OBNodeBase * *,class OpenBabel::OBNodeBase * const &)
 ?fill@std@@YAXPAPAVOBNodeBase@OpenBabel@@0ABQAV23@@Z @ 357 NONAME ; void __cdecl std::fill(class OpenBabel::OBNodeBase * *,class OpenBabel::OBNodeBase * *,class OpenBabel::OBNodeBase * const &)
 ?copy_backward@std@@YAPAPAVOBNodeBase@OpenBabel@@PAPAV23@00@Z @ 358 NONAME ; class OpenBabel::OBNodeBase * * __cdecl std::copy_backward(class OpenBabel::OBNodeBase * *,class OpenBabel::OBNodeBase * *,class OpenBabel::OBNodeBase * *)
 ?_Destroy@std@@YAXPAPAVOBNodeBase@OpenBabel@@@Z @ 359 NONAME ; void __cdecl std::_Destroy(class OpenBabel::OBNodeBase * *)
 ?_Allocate@std@@YAPAPAVOBNodeBase@OpenBabel@@HPAPAV23@@Z @ 360 NONAME ; class OpenBabel::OBNodeBase * * __cdecl std::_Allocate(int,class OpenBabel::OBNodeBase * *)
 ?_Construct@std@@YAXPAPAVOBNodeBase@OpenBabel@@ABQAV23@@Z @ 361 NONAME ; void __cdecl std::_Construct(class OpenBabel::OBNodeBase * *,class OpenBabel::OBNodeBase * const &)
 ?Swab@OpenBabel@@YAHH@Z @ 362 NONAME ; int __cdecl OpenBabel::Swab(int)
 ??1OBRotamerList@OpenBabel@@UAE@XZ @ 363 NONAME ; public: virtual __thiscall OpenBabel::OBRotamerList::~OBRotamerList(void)
 ??1OBGenericData@OpenBabel@@UAE@XZ @ 364 NONAME ; public: virtual __thiscall OpenBabel::OBGenericData::~OBGenericData(void)
 ?GetAttribute@OBGenericData@OpenBabel@@UBEABV?$basic_string@DU?$char_traits@D@std@@V?$allocator@D@2@@std@@XZ @ 365 NONAME ; public: virtual class std::basic_string<char,struct std::char_traits<char>,class std::allocator<char> > const & __thiscall OpenBabel::OBGenericData::GetAttribute(void)const 
 ?GetReferenceArray@OBRotamerList@OpenBabel@@QAEXPAE@Z @ 366 NONAME ; public: void __thiscall OpenBabel::OBRotamerList::GetReferenceArray(unsigned char *)
 ?Setup@OBRotamerList@OpenBabel@@QAEXAAVOBMol@2@AAVOBRotorList@2@@Z @ 367 NONAME ; public: void __thiscall OpenBabel::OBRotamerList::Setup(class OpenBabel::OBMol &,class OpenBabel::OBRotorList &)
 ?GetDihedralAtoms@OBRotor@OpenBabel@@QAEXQAH@Z @ 368 NONAME ; public: void __thiscall OpenBabel::OBRotor::GetDihedralAtoms(int * const)
 ?GetResolution@OBRotor@OpenBabel@@QAEAAV?$vector@NV?$allocator@N@std@@@std@@XZ @ 369 NONAME ; public: class std::vector<double,class std::allocator<double> > & __thiscall OpenBabel::OBRotor::GetResolution(void)
 ?BeginRotor@OBRotorList@OpenBabel@@QAEPAVOBRotor@2@AAPAPAV32@@Z @ 370 NONAME ; public: class OpenBabel::OBRotor * __thiscall OpenBabel::OBRotorList::BeginRotor(class OpenBabel::OBRotor * * &)
 ?NextRotor@OBRotorList@OpenBabel@@QAEPAVOBRotor@2@AAPAPAV32@@Z @ 371 NONAME ; public: class OpenBabel::OBRotor * __thiscall OpenBabel::OBRotorList::NextRotor(class OpenBabel::OBRotor * * &)
 ??1?$pair@PAPAVOBAtom@OpenBabel@@V?$vector@HV?$allocator@H@std@@@std@@@std@@QAE@XZ @ 372 NONAME ; public: __thiscall std::pair<class OpenBabel::OBAtom * *,class std::vector<int,class std::allocator<int> > >::~pair<class OpenBabel::OBAtom * *,class std::vector<int,class std::allocator<int> > >(void)
 ?Setup@OBRotamerList@OpenBabel@@QAEXAAVOBMol@2@PAEH@Z @ 373 NONAME ; public: void __thiscall OpenBabel::OBRotamerList::Setup(class OpenBabel::OBMol &,unsigned char *,int)
 ?AddRotamer@OBRotamerList@OpenBabel@@QAEXPAN@Z @ 374 NONAME ; public: void __thiscall OpenBabel::OBRotamerList::AddRotamer(double *)
 ?GetCIdx@OBAtom@OpenBabel@@QBEIXZ @ 375 NONAME ; public: unsigned int __thiscall OpenBabel::OBAtom::GetCIdx(void)const 
 ?rint@OpenBabel@@YANN@Z @ 376 NONAME ; double __cdecl OpenBabel::rint(double)
 ?AddRotamer@OBRotamerList@OpenBabel@@QAEXPAH@Z @ 377 NONAME ; public: void __thiscall OpenBabel::OBRotamerList::AddRotamer(int *)
 ?AddRotamer@OBRotamerList@OpenBabel@@QAEXPAE@Z @ 378 NONAME ; public: void __thiscall OpenBabel::OBRotamerList::AddRotamer(unsigned char *)
 ?AddRotamers@OBRotamerList@OpenBabel@@QAEXPAEH@Z @ 379 NONAME ; public: void __thiscall OpenBabel::OBRotamerList::AddRotamers(unsigned char *,int)
 ?ExpandConformerList@OBRotamerList@OpenBabel@@QAEXAAVOBMol@2@AAV?$vector@PANV?$allocator@PAN@std@@@std@@@Z @ 380 NONAME ; public: void __thiscall OpenBabel::OBRotamerList::ExpandConformerList(class OpenBabel::OBMol &,class std::vector<double *,class std::allocator<double *> > &)
 ?CreateConformerList@OBRotamerList@OpenBabel@@QAE?AV?$vector@PANV?$allocator@PAN@std@@@std@@AAVOBMol@2@@Z @ 381 NONAME ; public: class std::vector<double *,class std::allocator<double *> > __thiscall OpenBabel::OBRotamerList::CreateConformerList(class OpenBabel::OBMol &)
 ?SetBaseCoordinateSets@OBRotamerList@OpenBabel@@QAEXV?$vector@PANV?$allocator@PAN@std@@@std@@I@Z @ 382 NONAME ; public: void __thiscall OpenBabel::OBRotamerList::SetBaseCoordinateSets(class std::vector<double *,class std::allocator<double *> >,unsigned int)
 ?PackCoordinate@OpenBabel@@YAHQAN0@Z @ 383 NONAME ; int __cdecl OpenBabel::PackCoordinate(double * const,double * const)
 ?UnpackCoordinate@OpenBabel@@YAXQAN0H@Z @ 384 NONAME ; void __cdecl OpenBabel::UnpackCoordinate(double * const,double * const,int)
 ?WriteBinary@OpenBabel@@YA_NAAV?$basic_ostream@DU?$char_traits@D@std@@@std@@AAVOBMol@1@@Z @ 385 NONAME ; bool __cdecl OpenBabel::WriteBinary(class std::basic_ostream<char,struct std::char_traits<char> > &,class OpenBabel::OBMol &)
 ?SetOutputType@OBMol@OpenBabel@@QAEXW4io_type@2@@Z @ 386 NONAME ; public: void __thiscall OpenBabel::OBMol::SetOutputType(enum OpenBabel::io_type)
 ?WriteBinary@OpenBabel@@YA_NAAV?$basic_string@DU?$char_traits@D@std@@V?$allocator@D@2@@std@@AAHAAVOBMol@1@@Z @ 387 NONAME ; bool __cdecl OpenBabel::WriteBinary(class std::basic_string<char,struct std::char_traits<char>,class std::allocator<char> > &,int &,class OpenBabel::OBMol &)
 ?GetIdx@OBEdgeBase@OpenBabel@@QAEIXZ @ 388 NONAME ; public: unsigned int __thiscall OpenBabel::OBEdgeBase::GetIdx(void)
 ?Get@vector3@OpenBabel@@QAEXPAN@Z @ 389 NONAME ; public: void __thiscall OpenBabel::vector3::Get(double *)
 ?GetBeginAtomIdx@OBBond@OpenBabel@@QBEIXZ @ 390 NONAME ; public: unsigned int __thiscall OpenBabel::OBBond::GetBeginAtomIdx(void)const 
 ?GetEndAtomIdx@OBBond@OpenBabel@@QBEIXZ @ 391 NONAME ; public: unsigned int __thiscall OpenBabel::OBBond::GetEndAtomIdx(void)const 
 ?GetTitle@OBMol@OpenBabel@@QBEPBDXZ @ 392 NONAME ; public: char const * __thiscall OpenBabel::OBMol::GetTitle(void)const 
 ?NumBonds@OBMol@OpenBabel@@QBEIXZ @ 393 NONAME ; public: unsigned int __thiscall OpenBabel::OBMol::NumBonds(void)const 
 ?NumConformers@OBMol@OpenBabel@@QAEHXZ @ 394 NONAME ; public: int __thiscall OpenBabel::OBMol::NumConformers(void)
 ?GetConformers@OBMol@OpenBabel@@QAEAAV?$vector@PANV?$allocator@PAN@std@@@std@@XZ @ 395 NONAME ; public: class std::vector<double *,class std::allocator<double *> > & __thiscall OpenBabel::OBMol::GetConformers(void)
 ?NumRotors@OBRotamerList@OpenBabel@@QBEIXZ @ 396 NONAME ; public: unsigned int __thiscall OpenBabel::OBRotamerList::NumRotors(void)const 
 ?NumRotamers@OBRotamerList@OpenBabel@@QBEIXZ @ 397 NONAME ; public: unsigned int __thiscall OpenBabel::OBRotamerList::NumRotamers(void)const 
 ?BeginRotamer@OBRotamerList@OpenBabel@@QAEPAPAEXZ @ 398 NONAME ; public: unsigned char * * __thiscall OpenBabel::OBRotamerList::BeginRotamer(void)
 ?EndRotamer@OBRotamerList@OpenBabel@@QAEPAPAEXZ @ 399 NONAME ; public: unsigned char * * __thiscall OpenBabel::OBRotamerList::EndRotamer(void)
 ?NumBaseCoordinateSets@OBRotamerList@OpenBabel@@QBEIXZ @ 400 NONAME ; public: unsigned int __thiscall OpenBabel::OBRotamerList::NumBaseCoordinateSets(void)const 
 ?GetBaseCoordinateSet@OBRotamerList@OpenBabel@@QAEPANI@Z @ 401 NONAME ; public: double * __thiscall OpenBabel::OBRotamerList::GetBaseCoordinateSet(unsigned int)
 ?NumAtoms@OBRotamerList@OpenBabel@@QBEIXZ @ 402 NONAME ; public: unsigned int __thiscall OpenBabel::OBRotamerList::NumAtoms(void)const 
 ?ReadBinary@OpenBabel@@YA_NAAV?$basic_istream@DU?$char_traits@D@std@@@std@@AAVOBMol@1@@Z @ 403 NONAME ; bool __cdecl OpenBabel::ReadBinary(class std::basic_istream<char,struct std::char_traits<char> > &,class OpenBabel::OBMol &)
 ?ReadBinary@OpenBabel@@YA_NAAV?$basic_istream@DU?$char_traits@D@std@@@std@@PAPAE@Z @ 404 NONAME ; bool __cdecl OpenBabel::ReadBinary(class std::basic_istream<char,struct std::char_traits<char> > &,unsigned char * *)
 ?ReadBinary@OpenBabel@@YA_NPAEAAVOBMol@1@H@Z @ 405 NONAME ; bool __cdecl OpenBabel::ReadBinary(unsigned char *,class OpenBabel::OBMol &,int)
 ?Set@vector3@OpenBabel@@QAEXPBN@Z @ 406 NONAME ; public: void __thiscall OpenBabel::vector3::Set(double const *)
 ?SetAromatic@OBBond@OpenBabel@@QAEXXZ @ 407 NONAME ; public: void __thiscall OpenBabel::OBBond::SetAromatic(void)
 ?SetFlag@OBBond@OpenBabel@@IAEXH@Z @ 408 NONAME ; protected: void __thiscall OpenBabel::OBBond::SetFlag(int)
 ?SetData@OBMol@OpenBabel@@QAEXPAVOBGenericData@2@@Z @ 409 NONAME ; public: void __thiscall OpenBabel::OBMol::SetData(class OpenBabel::OBGenericData *)
 ?SetTitle@OBMol@OpenBabel@@QAEXPBD@Z @ 410 NONAME ; public: void __thiscall OpenBabel::OBMol::SetTitle(char const *)
 ?SetAromaticPerceived@OBMol@OpenBabel@@QAEXXZ @ 411 NONAME ; public: void __thiscall OpenBabel::OBMol::SetAromaticPerceived(void)
 ??0OBRotamerList@OpenBabel@@QAE@XZ @ 412 NONAME ; public: __thiscall OpenBabel::OBRotamerList::OBRotamerList(void)
 ?SetRotorToAngle@OpenBabel@@YAXPANPAPAVOBAtom@1@NV?$vector@HV?$allocator@H@std@@@std@@@Z @ 413 NONAME ; void __cdecl OpenBabel::SetRotorToAngle(double *,class OpenBabel::OBAtom * *,double,class std::vector<int,class std::allocator<int> >)
 ??0OBBinaryDBase@OpenBabel@@QAE@PBD@Z @ 414 NONAME ; public: __thiscall OpenBabel::OBBinaryDBase::OBBinaryDBase(char const *)
 ??0OBBinaryDBase@OpenBabel@@QAE@AAV?$basic_string@DU?$char_traits@D@std@@V?$allocator@D@2@@std@@@Z @ 415 NONAME ; public: __thiscall OpenBabel::OBBinaryDBase::OBBinaryDBase(class std::basic_string<char,struct std::char_traits<char>,class std::allocator<char> > &)
 ?Size@OBBinaryDBase@OpenBabel@@QAEHXZ @ 416 NONAME ; public: int __thiscall OpenBabel::OBBinaryDBase::Size(void)
 ??1OBBinaryDBase@OpenBabel@@QAE@XZ @ 417 NONAME ; public: __thiscall OpenBabel::OBBinaryDBase::~OBBinaryDBase(void)
 ??0?$fpos@H@std@@QAE@J@Z @ 418 NONAME ; public: __thiscall std::fpos<int>::fpos<int>(long)
 ??0?$vector@PANV?$allocator@PAN@std@@@std@@QAE@ABV?$allocator@PAN@1@@Z @ 419 NONAME ; public: __thiscall std::vector<double *,class std::allocator<double *> >::vector<double *,class std::allocator<double *> >(class std::allocator<double *> const &)
 ??0?$vector@PANV?$allocator@PAN@std@@@std@@QAE@ABV01@@Z @ 420 NONAME ; public: __thiscall std::vector<double *,class std::allocator<double *> >::vector<double *,class std::allocator<double *> >(class std::vector<double *,class std::allocator<double *> > const &)
 ??1?$vector@PANV?$allocator@PAN@std@@@std@@QAE@XZ @ 421 NONAME ; public: __thiscall std::vector<double *,class std::allocator<double *> >::~vector<double *,class std::allocator<double *> >(void)
 ??4?$vector@PANV?$allocator@PAN@std@@@std@@QAEAAV01@ABV01@@Z @ 422 NONAME ; public: class std::vector<double *,class std::allocator<double *> > & __thiscall std::vector<double *,class std::allocator<double *> >::operator=(class std::vector<double *,class std::allocator<double *> > const &)
 ?begin@?$vector@PANV?$allocator@PAN@std@@@std@@QAEPAPANXZ @ 423 NONAME ; public: double * * __thiscall std::vector<double *,class std::allocator<double *> >::begin(void)
 ?end@?$vector@PANV?$allocator@PAN@std@@@std@@QAEPAPANXZ @ 424 NONAME ; public: double * * __thiscall std::vector<double *,class std::allocator<double *> >::end(void)
 ?size@?$vector@PANV?$allocator@PAN@std@@@std@@QBEIXZ @ 425 NONAME ; public: unsigned int __thiscall std::vector<double *,class std::allocator<double *> >::size(void)const 
 ?empty@?$vector@PANV?$allocator@PAN@std@@@std@@QBE_NXZ @ 426 NONAME ; public: bool __thiscall std::vector<double *,class std::allocator<double *> >::empty(void)const 
 ??A?$vector@PANV?$allocator@PAN@std@@@std@@QAEAAPANI@Z @ 427 NONAME ; public: double * & __thiscall std::vector<double *,class std::allocator<double *> >::operator[](unsigned int)
 ?push_back@?$vector@PANV?$allocator@PAN@std@@@std@@QAEXABQAN@Z @ 428 NONAME ; public: void __thiscall std::vector<double *,class std::allocator<double *> >::push_back(double * const &)
 ?clear@?$vector@PANV?$allocator@PAN@std@@@std@@QAEXXZ @ 429 NONAME ; public: void __thiscall std::vector<double *,class std::allocator<double *> >::clear(void)
 ?begin@?$vector@NV?$allocator@N@std@@@std@@QAEPANXZ @ 430 NONAME ; public: double * __thiscall std::vector<double,class std::allocator<double> >::begin(void)
 ?end@?$vector@NV?$allocator@N@std@@@std@@QAEPANXZ @ 431 NONAME ; public: double * __thiscall std::vector<double,class std::allocator<double> >::end(void)
 ??A?$vector@NV?$allocator@N@std@@@std@@QAEAANI@Z @ 432 NONAME ; public: double & __thiscall std::vector<double,class std::allocator<double> >::operator[](unsigned int)
 ??0?$vector@V?$vector@NV?$allocator@N@std@@@std@@V?$allocator@V?$vector@NV?$allocator@N@std@@@std@@@2@@std@@QAE@ABV?$allocator@V?$vector@NV?$allocator@N@std@@@std@@@1@@Z @ 433 NONAME ; public: __thiscall std::vector<class std::vector<double,class std::allocator<double> >,class std::allocator<class std::vector<double,class std::allocator<double> > > >::vector<class std::vector<double,class std::allocator<double> >,class std::allocator<class std::vector<double,class std::allocator<double> > > >(class std::allocator<class std::vector<double,class std::allocator<double> > > const &)
 ??1?$vector@V?$vector@NV?$allocator@N@std@@@std@@V?$allocator@V?$vector@NV?$allocator@N@std@@@std@@@2@@std@@QAE@XZ @ 434 NONAME ; public: __thiscall std::vector<class std::vector<double,class std::allocator<double> >,class std::allocator<class std::vector<double,class std::allocator<double> > > >::~vector<class std::vector<double,class std::allocator<double> >,class std::allocator<class std::vector<double,class std::allocator<double> > > >(void)
 ?begin@?$vector@V?$vector@NV?$allocator@N@std@@@std@@V?$allocator@V?$vector@NV?$allocator@N@std@@@std@@@2@@std@@QAEPAV?$vector@NV?$allocator@N@std@@@2@XZ @ 435 NONAME ; public: class std::vector<double,class std::allocator<double> > * __thiscall std::vector<class std::vector<double,class std::allocator<double> >,class std::allocator<class std::vector<double,class std::allocator<double> > > >::begin(void)
 ?end@?$vector@V?$vector@NV?$allocator@N@std@@@std@@V?$allocator@V?$vector@NV?$allocator@N@std@@@std@@@2@@std@@QAEPAV?$vector@NV?$allocator@N@std@@@2@XZ @ 436 NONAME ; public: class std::vector<double,class std::allocator<double> > * __thiscall std::vector<class std::vector<double,class std::allocator<double> >,class std::allocator<class std::vector<double,class std::allocator<double> > > >::end(void)
 ??A?$vector@V?$vector@NV?$allocator@N@std@@@std@@V?$allocator@V?$vector@NV?$allocator@N@std@@@std@@@2@@std@@QAEAAV?$vector@NV?$allocator@N@std@@@1@I@Z @ 437 NONAME ; public: class std::vector<double,class std::allocator<double> > & __thiscall std::vector<class std::vector<double,class std::allocator<double> >,class std::allocator<class std::vector<double,class std::allocator<double> > > >::operator[](unsigned int)
 ?push_back@?$vector@V?$vector@NV?$allocator@N@std@@@std@@V?$allocator@V?$vector@NV?$allocator@N@std@@@std@@@2@@std@@QAEXABV?$vector@NV?$allocator@N@std@@@2@@Z @ 438 NONAME ; public: void __thiscall std::vector<class std::vector<double,class std::allocator<double> >,class std::allocator<class std::vector<double,class std::allocator<double> > > >::push_back(class std::vector<double,class std::allocator<double> > const &)
 ?clear@?$vector@V?$vector@NV?$allocator@N@std@@@std@@V?$allocator@V?$vector@NV?$allocator@N@std@@@std@@@2@@std@@QAEXXZ @ 439 NONAME ; public: void __thiscall std::vector<class std::vector<double,class std::allocator<double> >,class std::allocator<class std::vector<double,class std::allocator<double> > > >::clear(void)
 ?begin@?$vector@PAVOBRotor@OpenBabel@@V?$allocator@PAVOBRotor@OpenBabel@@@std@@@std@@QAEPAPAVOBRotor@OpenBabel@@XZ @ 440 NONAME ; public: class OpenBabel::OBRotor * * __thiscall std::vector<class OpenBabel::OBRotor *,class std::allocator<class OpenBabel::OBRotor *> >::begin(void)
 ?end@?$vector@PAVOBRotor@OpenBabel@@V?$allocator@PAVOBRotor@OpenBabel@@@std@@@std@@QAEPAPAVOBRotor@OpenBabel@@XZ @ 441 NONAME ; public: class OpenBabel::OBRotor * * __thiscall std::vector<class OpenBabel::OBRotor *,class std::allocator<class OpenBabel::OBRotor *> >::end(void)
 ??0?$vector@PAEV?$allocator@PAE@std@@@std@@QAE@ABV?$allocator@PAE@1@@Z @ 442 NONAME ; public: __thiscall std::vector<unsigned char *,class std::allocator<unsigned char *> >::vector<unsigned char *,class std::allocator<unsigned char *> >(class std::allocator<unsigned char *> const &)
 ??1?$vector@PAEV?$allocator@PAE@std@@@std@@QAE@XZ @ 443 NONAME ; public: __thiscall std::vector<unsigned char *,class std::allocator<unsigned char *> >::~vector<unsigned char *,class std::allocator<unsigned char *> >(void)
 ?begin@?$vector@PAEV?$allocator@PAE@std@@@std@@QAEPAPAEXZ @ 444 NONAME ; public: unsigned char * * __thiscall std::vector<unsigned char *,class std::allocator<unsigned char *> >::begin(void)
 ?end@?$vector@PAEV?$allocator@PAE@std@@@std@@QAEPAPAEXZ @ 445 NONAME ; public: unsigned char * * __thiscall std::vector<unsigned char *,class std::allocator<unsigned char *> >::end(void)
 ?size@?$vector@PAEV?$allocator@PAE@std@@@std@@QBEIXZ @ 446 NONAME ; public: unsigned int __thiscall std::vector<unsigned char *,class std::allocator<unsigned char *> >::size(void)const 
 ?push_back@?$vector@PAEV?$allocator@PAE@std@@@std@@QAEXABQAE@Z @ 447 NONAME ; public: void __thiscall std::vector<unsigned char *,class std::allocator<unsigned char *> >::push_back(unsigned char * const &)
 ?clear@?$vector@PAEV?$allocator@PAE@std@@@std@@QAEXXZ @ 448 NONAME ; public: void __thiscall std::vector<unsigned char *,class std::allocator<unsigned char *> >::clear(void)
 ??0?$vector@U?$pair@PAPAVOBAtom@OpenBabel@@V?$vector@HV?$allocator@H@std@@@std@@@std@@V?$allocator@U?$pair@PAPAVOBAtom@OpenBabel@@V?$vector@HV?$allocator@H@std@@@std@@@std@@@2@@std@@QAE@ABV?$allocator@U?$pair@PAPAVOBAtom@OpenBabel@@V?$vector@HV?$allocator@H@std@@@std@@@std@@@1@@Z @ 449 NONAME ; public: __thiscall std::vector<struct std::pair<class OpenBabel::OBAtom * *,class std::vector<int,class std::allocator<int> > >,class std::allocator<struct std::pair<class OpenBabel::OBAtom * *,class std::vector<int,class std::allocator<int> > > > >::vector<struct std::pair<class OpenBabel::OBAtom * *,class std::vector<int,class std::allocator<int> > >,class std::allocator<struct std::pair<class OpenBabel::OBAtom * *,class std::vector<int,class std::allocator<int> > > > >(class std::allocator<struct std::p
 ??1?$vector@U?$pair@PAPAVOBAtom@OpenBabel@@V?$vector@HV?$allocator@H@std@@@std@@@std@@V?$allocator@U?$pair@PAPAVOBAtom@OpenBabel@@V?$vector@HV?$allocator@H@std@@@std@@@std@@@2@@std@@QAE@XZ @ 450 NONAME ; public: __thiscall std::vector<struct std::pair<class OpenBabel::OBAtom * *,class std::vector<int,class std::allocator<int> > >,class std::allocator<struct std::pair<class OpenBabel::OBAtom * *,class std::vector<int,class std::allocator<int> > > > >::~vector<struct std::pair<class OpenBabel::OBAtom * *,class std::vector<int,class std::allocator<int> > >,class std::allocator<struct std::pair<class OpenBabel::OBAtom * *,class std::vector<int,class std::allocator<int> > > > >(void)
 ?begin@?$vector@U?$pair@PAPAVOBAtom@OpenBabel@@V?$vector@HV?$allocator@H@std@@@std@@@std@@V?$allocator@U?$pair@PAPAVOBAtom@OpenBabel@@V?$vector@HV?$allocator@H@std@@@std@@@std@@@2@@std@@QAEPAU?$pair@PAPAVOBAtom@OpenBabel@@V?$vector@HV?$allocator@H@std@@@std@@@2@XZ @ 451 NONAME ; public: struct std::pair<class OpenBabel::OBAtom * *,class std::vector<int,class std::allocator<int> > > * __thiscall std::vector<struct std::pair<class OpenBabel::OBAtom * *,class std::vector<int,class std::allocator<int> > >,class std::allocator<struct std::pair<class OpenBabel::OBAtom * *,class std::vector<int,class std::allocator<int> > > > >::begin(void)
 ?end@?$vector@U?$pair@PAPAVOBAtom@OpenBabel@@V?$vector@HV?$allocator@H@std@@@std@@@std@@V?$allocator@U?$pair@PAPAVOBAtom@OpenBabel@@V?$vector@HV?$allocator@H@std@@@std@@@std@@@2@@std@@QAEPAU?$pair@PAPAVOBAtom@OpenBabel@@V?$vector@HV?$allocator@H@std@@@std@@@2@XZ @ 452 NONAME ; public: struct std::pair<class OpenBabel::OBAtom * *,class std::vector<int,class std::allocator<int> > > * __thiscall std::vector<struct std::pair<class OpenBabel::OBAtom * *,class std::vector<int,class std::allocator<int> > >,class std::allocator<struct std::pair<class OpenBabel::OBAtom * *,class std::vector<int,class std::allocator<int> > > > >::end(void)
 ?size@?$vector@U?$pair@PAPAVOBAtom@OpenBabel@@V?$vector@HV?$allocator@H@std@@@std@@@std@@V?$allocator@U?$pair@PAPAVOBAtom@OpenBabel@@V?$vector@HV?$allocator@H@std@@@std@@@std@@@2@@std@@QBEIXZ @ 453 NONAME ; public: unsigned int __thiscall std::vector<struct std::pair<class OpenBabel::OBAtom * *,class std::vector<int,class std::allocator<int> > >,class std::allocator<struct std::pair<class OpenBabel::OBAtom * *,class std::vector<int,class std::allocator<int> > > > >::size(void)const 
 ??A?$vector@U?$pair@PAPAVOBAtom@OpenBabel@@V?$vector@HV?$allocator@H@std@@@std@@@std@@V?$allocator@U?$pair@PAPAVOBAtom@OpenBabel@@V?$vector@HV?$allocator@H@std@@@std@@@std@@@2@@std@@QAEAAU?$pair@PAPAVOBAtom@OpenBabel@@V?$vector@HV?$allocator@H@std@@@std@@@1@I@Z @ 454 NONAME ; public: struct std::pair<class OpenBabel::OBAtom * *,class std::vector<int,class std::allocator<int> > > & __thiscall std::vector<struct std::pair<class OpenBabel::OBAtom * *,class std::vector<int,class std::allocator<int> > >,class std::allocator<struct std::pair<class OpenBabel::OBAtom * *,class std::vector<int,class std::allocator<int> > > > >::operator[](unsigned int)
 ?push_back@?$vector@U?$pair@PAPAVOBAtom@OpenBabel@@V?$vector@HV?$allocator@H@std@@@std@@@std@@V?$allocator@U?$pair@PAPAVOBAtom@OpenBabel@@V?$vector@HV?$allocator@H@std@@@std@@@std@@@2@@std@@QAEXABU?$pair@PAPAVOBAtom@OpenBabel@@V?$vector@HV?$allocator@H@std@@@std@@@2@@Z @ 455 NONAME ; public: void __thiscall std::vector<struct std::pair<class OpenBabel::OBAtom * *,class std::vector<int,class std::allocator<int> > >,class std::allocator<struct std::pair<class OpenBabel::OBAtom * *,class std::vector<int,class std::allocator<int> > > > >::push_back(struct std::pair<class OpenBabel::OBAtom * *,class std::vector<int,class std::allocator<int> > > const &)
 ?clear@?$vector@U?$pair@PAPAVOBAtom@OpenBabel@@V?$vector@HV?$allocator@H@std@@@std@@@std@@V?$allocator@U?$pair@PAPAVOBAtom@OpenBabel@@V?$vector@HV?$allocator@H@std@@@std@@@std@@@2@@std@@QAEXXZ @ 456 NONAME ; public: void __thiscall std::vector<struct std::pair<class OpenBabel::OBAtom * *,class std::vector<int,class std::allocator<int> > >,class std::allocator<struct std::pair<class OpenBabel::OBAtom * *,class std::vector<int,class std::allocator<int> > > > >::clear(void)
 ??0?$vector@V?$fpos@H@std@@V?$allocator@V?$fpos@H@std@@@2@@std@@QAE@ABV?$allocator@V?$fpos@H@std@@@1@@Z @ 457 NONAME ; public: __thiscall std::vector<class std::fpos<int>,class std::allocator<class std::fpos<int> > >::vector<class std::fpos<int>,class std::allocator<class std::fpos<int> > >(class std::allocator<class std::fpos<int> > const &)
 ??1?$vector@V?$fpos@H@std@@V?$allocator@V?$fpos@H@std@@@2@@std@@QAE@XZ @ 458 NONAME ; public: __thiscall std::vector<class std::fpos<int>,class std::allocator<class std::fpos<int> > >::~vector<class std::fpos<int>,class std::allocator<class std::fpos<int> > >(void)
 ?size@?$vector@V?$fpos@H@std@@V?$allocator@V?$fpos@H@std@@@2@@std@@QBEIXZ @ 459 NONAME ; public: unsigned int __thiscall std::vector<class std::fpos<int>,class std::allocator<class std::fpos<int> > >::size(void)const 
 ?push_back@?$vector@V?$fpos@H@std@@V?$allocator@V?$fpos@H@std@@@2@@std@@QAEXABV?$fpos@H@2@@Z @ 460 NONAME ; public: void __thiscall std::vector<class std::fpos<int>,class std::allocator<class std::fpos<int> > >::push_back(class std::fpos<int> const &)
 ??0?$pair@PAPAVOBAtom@OpenBabel@@V?$vector@HV?$allocator@H@std@@@std@@@std@@QAE@ABQAPAVOBAtom@OpenBabel@@ABV?$vector@HV?$allocator@H@std@@@1@@Z @ 461 NONAME ; public: __thiscall std::pair<class OpenBabel::OBAtom * *,class std::vector<int,class std::allocator<int> > >::pair<class OpenBabel::OBAtom * *,class std::vector<int,class std::allocator<int> > >(class OpenBabel::OBAtom * * const &,class std::vector<int,class std::allocator<int> > const &)
 ?capacity@?$vector@PANV?$allocator@PAN@std@@@std@@QBEIXZ @ 462 NONAME ; public: unsigned int __thiscall std::vector<double *,class std::allocator<double *> >::capacity(void)const 
 ?begin@?$vector@PANV?$allocator@PAN@std@@@std@@QBEPBQANXZ @ 463 NONAME ; public: double * const * __thiscall std::vector<double *,class std::allocator<double *> >::begin(void)const 
 ?end@?$vector@PANV?$allocator@PAN@std@@@std@@QBEPBQANXZ @ 464 NONAME ; public: double * const * __thiscall std::vector<double *,class std::allocator<double *> >::end(void)const 
 ?insert@?$vector@PANV?$allocator@PAN@std@@@std@@QAEPAPANPAPANABQAN@Z @ 465 NONAME ; public: double * * __thiscall std::vector<double *,class std::allocator<double *> >::insert(double * *,double * const &)
 ?erase@?$vector@PANV?$allocator@PAN@std@@@std@@QAEPAPANPAPAN0@Z @ 466 NONAME ; public: double * * __thiscall std::vector<double *,class std::allocator<double *> >::erase(double * *,double * *)
 ?_Destroy@?$vector@PANV?$allocator@PAN@std@@@std@@IAEXPAPAN0@Z @ 467 NONAME ; protected: void __thiscall std::vector<double *,class std::allocator<double *> >::_Destroy(double * *,double * *)
 ?_Ucopy@?$vector@PANV?$allocator@PAN@std@@@std@@IAEPAPANPBQAN0PAPAN@Z @ 468 NONAME ; protected: double * * __thiscall std::vector<double *,class std::allocator<double *> >::_Ucopy(double * const *,double * const *,double * *)
 ?allocate@?$allocator@PAN@std@@QAEPAPANIPBX@Z @ 469 NONAME ; public: double * * __thiscall std::allocator<double *>::allocate(unsigned int,void const *)
 ?deallocate@?$allocator@PAN@std@@QAEXPAXI@Z @ 470 NONAME ; public: void __thiscall std::allocator<double *>::deallocate(void *,unsigned int)
 ?insert@?$vector@V?$vector@NV?$allocator@N@std@@@std@@V?$allocator@V?$vector@NV?$allocator@N@std@@@std@@@2@@std@@QAEPAV?$vector@NV?$allocator@N@std@@@2@PAV32@ABV32@@Z @ 471 NONAME ; public: class std::vector<double,class std::allocator<double> > * __thiscall std::vector<class std::vector<double,class std::allocator<double> >,class std::allocator<class std::vector<double,class std::allocator<double> > > >::insert(class std::vector<double,class std::allocator<double> > *,class std::vector<double,class std::allocator<double> > const &)
 ?erase@?$vector@V?$vector@NV?$allocator@N@std@@@std@@V?$allocator@V?$vector@NV?$allocator@N@std@@@std@@@2@@std@@QAEPAV?$vector@NV?$allocator@N@std@@@2@PAV32@0@Z @ 472 NONAME ; public: class std::vector<double,class std::allocator<double> > * __thiscall std::vector<class std::vector<double,class std::allocator<double> >,class std::allocator<class std::vector<double,class std::allocator<double> > > >::erase(class std::vector<double,class std::allocator<double> > *,class std::vector<double,class std::allocator<double> > *)
 ?_Destroy@?$vector@V?$vector@NV?$allocator@N@std@@@std@@V?$allocator@V?$vector@NV?$allocator@N@std@@@std@@@2@@std@@IAEXPAV?$vector@NV?$allocator@N@std@@@2@0@Z @ 473 NONAME ; protected: void __thiscall std::vector<class std::vector<double,class std::allocator<double> >,class std::allocator<class std::vector<double,class std::allocator<double> > > >::_Destroy(class std::vector<double,class std::allocator<double> > *,class std::vector<double,class std::allocator<double> > *)
 ?deallocate@?$allocator@V?$vector@NV?$allocator@N@std@@@std@@@std@@QAEXPAXI@Z @ 474 NONAME ; public: void __thiscall std::allocator<class std::vector<double,class std::allocator<double> > >::deallocate(void *,unsigned int)
 ?insert@?$vector@PAEV?$allocator@PAE@std@@@std@@QAEPAPAEPAPAEABQAE@Z @ 475 NONAME ; public: unsigned char * * __thiscall std::vector<unsigned char *,class std::allocator<unsigned char *> >::insert(unsigned char * *,unsigned char * const &)
 ?erase@?$vector@PAEV?$allocator@PAE@std@@@std@@QAEPAPAEPAPAE0@Z @ 476 NONAME ; public: unsigned char * * __thiscall std::vector<unsigned char *,class std::allocator<unsigned char *> >::erase(unsigned char * *,unsigned char * *)
 ?_Destroy@?$vector@PAEV?$allocator@PAE@std@@@std@@IAEXPAPAE0@Z @ 477 NONAME ; protected: void __thiscall std::vector<unsigned char *,class std::allocator<unsigned char *> >::_Destroy(unsigned char * *,unsigned char * *)
 ?deallocate@?$allocator@PAE@std@@QAEXPAXI@Z @ 478 NONAME ; public: void __thiscall std::allocator<unsigned char *>::deallocate(void *,unsigned int)
 ?insert@?$vector@U?$pair@PAPAVOBAtom@OpenBabel@@V?$vector@HV?$allocator@H@std@@@std@@@std@@V?$allocator@U?$pair@PAPAVOBAtom@OpenBabel@@V?$vector@HV?$allocator@H@std@@@std@@@std@@@2@@std@@QAEPAU?$pair@PAPAVOBAtom@OpenBabel@@V?$vector@HV?$allocator@H@std@@@std@@@2@PAU32@ABU32@@Z @ 479 NONAME ; public: struct std::pair<class OpenBabel::OBAtom * *,class std::vector<int,class std::allocator<int> > > * __thiscall std::vector<struct std::pair<class OpenBabel::OBAtom * *,class std::vector<int,class std::allocator<int> > >,class std::allocator<struct std::pair<class OpenBabel::OBAtom * *,class std::vector<int,class std::allocator<int> > > > >::insert(struct std::pair<class OpenBabel::OBAtom * *,class std::vector<int,class std::allocator<int> > > *,struct std::pair<class OpenBabel::OBAtom * *,class std:
 ?erase@?$vector@U?$pair@PAPAVOBAtom@OpenBabel@@V?$vector@HV?$allocator@H@std@@@std@@@std@@V?$allocator@U?$pair@PAPAVOBAtom@OpenBabel@@V?$vector@HV?$allocator@H@std@@@std@@@std@@@2@@std@@QAEPAU?$pair@PAPAVOBAtom@OpenBabel@@V?$vector@HV?$allocator@H@std@@@std@@@2@PAU32@0@Z @ 480 NONAME ; public: struct std::pair<class OpenBabel::OBAtom * *,class std::vector<int,class std::allocator<int> > > * __thiscall std::vector<struct std::pair<class OpenBabel::OBAtom * *,class std::vector<int,class std::allocator<int> > >,class std::allocator<struct std::pair<class OpenBabel::OBAtom * *,class std::vector<int,class std::allocator<int> > > > >::erase(struct std::pair<class OpenBabel::OBAtom * *,class std::vector<int,class std::allocator<int> > > *,struct std::pair<class OpenBabel::OBAtom * *,class std::
 ?_Destroy@?$vector@U?$pair@PAPAVOBAtom@OpenBabel@@V?$vector@HV?$allocator@H@std@@@std@@@std@@V?$allocator@U?$pair@PAPAVOBAtom@OpenBabel@@V?$vector@HV?$allocator@H@std@@@std@@@std@@@2@@std@@IAEXPAU?$pair@PAPAVOBAtom@OpenBabel@@V?$vector@HV?$allocator@H@std@@@std@@@2@0@Z @ 481 NONAME ; protected: void __thiscall std::vector<struct std::pair<class OpenBabel::OBAtom * *,class std::vector<int,class std::allocator<int> > >,class std::allocator<struct std::pair<class OpenBabel::OBAtom * *,class std::vector<int,class std::allocator<int> > > > >::_Destroy(struct std::pair<class OpenBabel::OBAtom * *,class std::vector<int,class std::allocator<int> > > *,struct std::pair<class OpenBabel::OBAtom * *,class std::vector<int,class std::allocator<int> > > *)
 ?deallocate@?$allocator@U?$pair@PAPAVOBAtom@OpenBabel@@V?$vector@HV?$allocator@H@std@@@std@@@std@@@std@@QAEXPAXI@Z @ 482 NONAME ; public: void __thiscall std::allocator<struct std::pair<class OpenBabel::OBAtom * *,class std::vector<int,class std::allocator<int> > > >::deallocate(void *,unsigned int)
 ?end@?$vector@V?$fpos@H@std@@V?$allocator@V?$fpos@H@std@@@2@@std@@QAEPAV?$fpos@H@2@XZ @ 483 NONAME ; public: class std::fpos<int> * __thiscall std::vector<class std::fpos<int>,class std::allocator<class std::fpos<int> > >::end(void)
 ?insert@?$vector@V?$fpos@H@std@@V?$allocator@V?$fpos@H@std@@@2@@std@@QAEPAV?$fpos@H@2@PAV32@ABV32@@Z @ 484 NONAME ; public: class std::fpos<int> * __thiscall std::vector<class std::fpos<int>,class std::allocator<class std::fpos<int> > >::insert(class std::fpos<int> *,class std::fpos<int> const &)
 ?_Destroy@?$vector@V?$fpos@H@std@@V?$allocator@V?$fpos@H@std@@@2@@std@@IAEXPAV?$fpos@H@2@0@Z @ 485 NONAME ; protected: void __thiscall std::vector<class std::fpos<int>,class std::allocator<class std::fpos<int> > >::_Destroy(class std::fpos<int> *,class std::fpos<int> *)
 ?deallocate@?$allocator@V?$fpos@H@std@@@std@@QAEXPAXI@Z @ 486 NONAME ; public: void __thiscall std::allocator<class std::fpos<int> >::deallocate(void *,unsigned int)
 ?insert@?$vector@PANV?$allocator@PAN@std@@@std@@QAEXPAPANIABQAN@Z @ 487 NONAME ; public: void __thiscall std::vector<double *,class std::allocator<double *> >::insert(double * *,unsigned int,double * const &)
 ?construct@?$allocator@PAN@std@@QAEXPAPANABQAN@Z @ 488 NONAME ; public: void __thiscall std::allocator<double *>::construct(double * *,double * const &)
 ?destroy@?$allocator@PAN@std@@QAEXPAPAN@Z @ 489 NONAME ; public: void __thiscall std::allocator<double *>::destroy(double * *)
 ?insert@?$vector@V?$vector@NV?$allocator@N@std@@@std@@V?$allocator@V?$vector@NV?$allocator@N@std@@@std@@@2@@std@@QAEXPAV?$vector@NV?$allocator@N@std@@@2@IABV32@@Z @ 490 NONAME ; public: void __thiscall std::vector<class std::vector<double,class std::allocator<double> >,class std::allocator<class std::vector<double,class std::allocator<double> > > >::insert(class std::vector<double,class std::allocator<double> > *,unsigned int,class std::vector<double,class std::allocator<double> > const &)
 ?destroy@?$allocator@V?$vector@NV?$allocator@N@std@@@std@@@std@@QAEXPAV?$vector@NV?$allocator@N@std@@@2@@Z @ 491 NONAME ; public: void __thiscall std::allocator<class std::vector<double,class std::allocator<double> > >::destroy(class std::vector<double,class std::allocator<double> > *)
 ?insert@?$vector@PAEV?$allocator@PAE@std@@@std@@QAEXPAPAEIABQAE@Z @ 492 NONAME ; public: void __thiscall std::vector<unsigned char *,class std::allocator<unsigned char *> >::insert(unsigned char * *,unsigned int,unsigned char * const &)
 ?destroy@?$allocator@PAE@std@@QAEXPAPAE@Z @ 493 NONAME ; public: void __thiscall std::allocator<unsigned char *>::destroy(unsigned char * *)
 ?insert@?$vector@U?$pair@PAPAVOBAtom@OpenBabel@@V?$vector@HV?$allocator@H@std@@@std@@@std@@V?$allocator@U?$pair@PAPAVOBAtom@OpenBabel@@V?$vector@HV?$allocator@H@std@@@std@@@std@@@2@@std@@QAEXPAU?$pair@PAPAVOBAtom@OpenBabel@@V?$vector@HV?$allocator@H@std@@@std@@@2@IABU32@@Z @ 494 NONAME ; public: void __thiscall std::vector<struct std::pair<class OpenBabel::OBAtom * *,class std::vector<int,class std::allocator<int> > >,class std::allocator<struct std::pair<class OpenBabel::OBAtom * *,class std::vector<int,class std::allocator<int> > > > >::insert(struct std::pair<class OpenBabel::OBAtom * *,class std::vector<int,class std::allocator<int> > > *,unsigned int,struct std::pair<class OpenBabel::OBAtom * *,class std::vector<int,class std::allocator<int> > > const &)
 ?destroy@?$allocator@U?$pair@PAPAVOBAtom@OpenBabel@@V?$vector@HV?$allocator@H@std@@@std@@@std@@@std@@QAEXPAU?$pair@PAPAVOBAtom@OpenBabel@@V?$vector@HV?$allocator@H@std@@@std@@@2@@Z @ 495 NONAME ; public: void __thiscall std::allocator<struct std::pair<class OpenBabel::OBAtom * *,class std::vector<int,class std::allocator<int> > > >::destroy(struct std::pair<class OpenBabel::OBAtom * *,class std::vector<int,class std::allocator<int> > > *)
 ?begin@?$vector@V?$fpos@H@std@@V?$allocator@V?$fpos@H@std@@@2@@std@@QAEPAV?$fpos@H@2@XZ @ 496 NONAME ; public: class std::fpos<int> * __thiscall std::vector<class std::fpos<int>,class std::allocator<class std::fpos<int> > >::begin(void)
 ?insert@?$vector@V?$fpos@H@std@@V?$allocator@V?$fpos@H@std@@@2@@std@@QAEXPAV?$fpos@H@2@IABV32@@Z @ 497 NONAME ; public: void __thiscall std::vector<class std::fpos<int>,class std::allocator<class std::fpos<int> > >::insert(class std::fpos<int> *,unsigned int,class std::fpos<int> const &)
 ?destroy@?$allocator@V?$fpos@H@std@@@std@@QAEXPAV?$fpos@H@2@@Z @ 498 NONAME ; public: void __thiscall std::allocator<class std::fpos<int> >::destroy(class std::fpos<int> *)
 ?_Ufill@?$vector@PANV?$allocator@PAN@std@@@std@@IAEXPAPANIABQAN@Z @ 499 NONAME ; protected: void __thiscall std::vector<double *,class std::allocator<double *> >::_Ufill(double * *,unsigned int,double * const &)
 ?size@?$vector@V?$vector@NV?$allocator@N@std@@@std@@V?$allocator@V?$vector@NV?$allocator@N@std@@@std@@@2@@std@@QBEIXZ @ 500 NONAME ; public: unsigned int __thiscall std::vector<class std::vector<double,class std::allocator<double> >,class std::allocator<class std::vector<double,class std::allocator<double> > > >::size(void)const 
 ?_Ucopy@?$vector@V?$vector@NV?$allocator@N@std@@@std@@V?$allocator@V?$vector@NV?$allocator@N@std@@@std@@@2@@std@@IAEPAV?$vector@NV?$allocator@N@std@@@2@PBV32@0PAV32@@Z @ 501 NONAME ; protected: class std::vector<double,class std::allocator<double> > * __thiscall std::vector<class std::vector<double,class std::allocator<double> >,class std::allocator<class std::vector<double,class std::allocator<double> > > >::_Ucopy(class std::vector<double,class std::allocator<double> > const *,class std::vector<double,class std::allocator<double> > const *,class std::vector<double,class std::allocator<double> > *)
 ?_Ufill@?$vector@V?$vector@NV?$allocator@N@std@@@std@@V?$allocator@V?$vector@NV?$allocator@N@std@@@std@@@2@@std@@IAEXPAV?$vector@NV?$allocator@N@std@@@2@IABV32@@Z @ 502 NONAME ; protected: void __thiscall std::vector<class std::vector<double,class std::allocator<double> >,class std::allocator<class std::vector<double,class std::allocator<double> > > >::_Ufill(class std::vector<double,class std::allocator<double> > *,unsigned int,class std::vector<double,class std::allocator<double> > const &)
 ?allocate@?$allocator@V?$vector@NV?$allocator@N@std@@@std@@@std@@QAEPAV?$vector@NV?$allocator@N@std@@@2@IPBX@Z @ 503 NONAME ; public: class std::vector<double,class std::allocator<double> > * __thiscall std::allocator<class std::vector<double,class std::allocator<double> > >::allocate(unsigned int,void const *)
 ?_Ucopy@?$vector@PAEV?$allocator@PAE@std@@@std@@IAEPAPAEPBQAE0PAPAE@Z @ 504 NONAME ; protected: unsigned char * * __thiscall std::vector<unsigned char *,class std::allocator<unsigned char *> >::_Ucopy(unsigned char * const *,unsigned char * const *,unsigned char * *)
 ?_Ufill@?$vector@PAEV?$allocator@PAE@std@@@std@@IAEXPAPAEIABQAE@Z @ 505 NONAME ; protected: void __thiscall std::vector<unsigned char *,class std::allocator<unsigned char *> >::_Ufill(unsigned char * *,unsigned int,unsigned char * const &)
 ?allocate@?$allocator@PAE@std@@QAEPAPAEIPBX@Z @ 506 NONAME ; public: unsigned char * * __thiscall std::allocator<unsigned char *>::allocate(unsigned int,void const *)
 ?_Ucopy@?$vector@U?$pair@PAPAVOBAtom@OpenBabel@@V?$vector@HV?$allocator@H@std@@@std@@@std@@V?$allocator@U?$pair@PAPAVOBAtom@OpenBabel@@V?$vector@HV?$allocator@H@std@@@std@@@std@@@2@@std@@IAEPAU?$pair@PAPAVOBAtom@OpenBabel@@V?$vector@HV?$allocator@H@std@@@std@@@2@PBU32@0PAU32@@Z @ 507 NONAME ; protected: struct std::pair<class OpenBabel::OBAtom * *,class std::vector<int,class std::allocator<int> > > * __thiscall std::vector<struct std::pair<class OpenBabel::OBAtom * *,class std::vector<int,class std::allocator<int> > >,class std::allocator<struct std::pair<class OpenBabel::OBAtom * *,class std::vector<int,class std::allocator<int> > > > >::_Ucopy(struct std::pair<class OpenBabel::OBAtom * *,class std::vector<int,class std::allocator<int> > > const *,struct std::pair<class OpenBabel::OBAtom * *,c
 ?_Ufill@?$vector@U?$pair@PAPAVOBAtom@OpenBabel@@V?$vector@HV?$allocator@H@std@@@std@@@std@@V?$allocator@U?$pair@PAPAVOBAtom@OpenBabel@@V?$vector@HV?$allocator@H@std@@@std@@@std@@@2@@std@@IAEXPAU?$pair@PAPAVOBAtom@OpenBabel@@V?$vector@HV?$allocator@H@std@@@std@@@2@IABU32@@Z @ 508 NONAME ; protected: void __thiscall std::vector<struct std::pair<class OpenBabel::OBAtom * *,class std::vector<int,class std::allocator<int> > >,class std::allocator<struct std::pair<class OpenBabel::OBAtom * *,class std::vector<int,class std::allocator<int> > > > >::_Ufill(struct std::pair<class OpenBabel::OBAtom * *,class std::vector<int,class std::allocator<int> > > *,unsigned int,struct std::pair<class OpenBabel::OBAtom * *,class std::vector<int,class std::allocator<int> > > const &)
 ?allocate@?$allocator@U?$pair@PAPAVOBAtom@OpenBabel@@V?$vector@HV?$allocator@H@std@@@std@@@std@@@std@@QAEPAU?$pair@PAPAVOBAtom@OpenBabel@@V?$vector@HV?$allocator@H@std@@@std@@@2@IPBX@Z @ 509 NONAME ; public: struct std::pair<class OpenBabel::OBAtom * *,class std::vector<int,class std::allocator<int> > > * __thiscall std::allocator<struct std::pair<class OpenBabel::OBAtom * *,class std::vector<int,class std::allocator<int> > > >::allocate(unsigned int,void const *)
 ?_Ucopy@?$vector@V?$fpos@H@std@@V?$allocator@V?$fpos@H@std@@@2@@std@@IAEPAV?$fpos@H@2@PBV32@0PAV32@@Z @ 510 NONAME ; protected: class std::fpos<int> * __thiscall std::vector<class std::fpos<int>,class std::allocator<class std::fpos<int> > >::_Ucopy(class std::fpos<int> const *,class std::fpos<int> const *,class std::fpos<int> *)
 ?_Ufill@?$vector@V?$fpos@H@std@@V?$allocator@V?$fpos@H@std@@@2@@std@@IAEXPAV?$fpos@H@2@IABV32@@Z @ 511 NONAME ; protected: void __thiscall std::vector<class std::fpos<int>,class std::allocator<class std::fpos<int> > >::_Ufill(class std::fpos<int> *,unsigned int,class std::fpos<int> const &)
 ?allocate@?$allocator@V?$fpos@H@std@@@std@@QAEPAV?$fpos@H@2@IPBX@Z @ 512 NONAME ; public: class std::fpos<int> * __thiscall std::allocator<class std::fpos<int> >::allocate(unsigned int,void const *)
 ?construct@?$allocator@V?$vector@NV?$allocator@N@std@@@std@@@std@@QAEXPAV?$vector@NV?$allocator@N@std@@@2@ABV32@@Z @ 513 NONAME ; public: void __thiscall std::allocator<class std::vector<double,class std::allocator<double> > >::construct(class std::vector<double,class std::allocator<double> > *,class std::vector<double,class std::allocator<double> > const &)
 ?construct@?$allocator@PAE@std@@QAEXPAPAEABQAE@Z @ 514 NONAME ; public: void __thiscall std::allocator<unsigned char *>::construct(unsigned char * *,unsigned char * const &)
 ?construct@?$allocator@U?$pair@PAPAVOBAtom@OpenBabel@@V?$vector@HV?$allocator@H@std@@@std@@@std@@@std@@QAEXPAU?$pair@PAPAVOBAtom@OpenBabel@@V?$vector@HV?$allocator@H@std@@@std@@@2@ABU32@@Z @ 515 NONAME ; public: void __thiscall std::allocator<struct std::pair<class OpenBabel::OBAtom * *,class std::vector<int,class std::allocator<int> > > >::construct(struct std::pair<class OpenBabel::OBAtom * *,class std::vector<int,class std::allocator<int> > > *,struct std::pair<class OpenBabel::OBAtom * *,class std::vector<int,class std::allocator<int> > > const &)
 ?construct@?$allocator@V?$fpos@H@std@@@std@@QAEXPAV?$fpos@H@2@ABV32@@Z @ 516 NONAME ; public: void __thiscall std::allocator<class std::fpos<int> >::construct(class std::fpos<int> *,class std::fpos<int> const &)
 ?copy@std@@YAPAPANPBQAN0PAPAN@Z @ 517 NONAME ; double * * __cdecl std::copy(double * const *,double * const *,double * *)
 ?copy@std@@YAPAPANPAPAN00@Z @ 518 NONAME ; double * * __cdecl std::copy(double * *,double * *,double * *)
 ?_Allocate@std@@YAPAPANHPAPAN@Z @ 519 NONAME ; double * * __cdecl std::_Allocate(int,double * *)
 ?copy@std@@YAPAV?$vector@NV?$allocator@N@std@@@1@PAV21@00@Z @ 520 NONAME ; class std::vector<double,class std::allocator<double> > * __cdecl std::copy(class std::vector<double,class std::allocator<double> > *,class std::vector<double,class std::allocator<double> > *,class std::vector<double,class std::allocator<double> > *)
 ??4?$vector@NV?$allocator@N@std@@@std@@QAEAAV01@ABV01@@Z @ 521 NONAME ; public: class std::vector<double,class std::allocator<double> > & __thiscall std::vector<double,class std::allocator<double> >::operator=(class std::vector<double,class std::allocator<double> > const &)
 ?size@?$vector@NV?$allocator@N@std@@@std@@QBEIXZ @ 522 NONAME ; public: unsigned int __thiscall std::vector<double,class std::allocator<double> >::size(void)const 
 ?capacity@?$vector@NV?$allocator@N@std@@@std@@QBEIXZ @ 523 NONAME ; public: unsigned int __thiscall std::vector<double,class std::allocator<double> >::capacity(void)const 
 ?begin@?$vector@NV?$allocator@N@std@@@std@@QBEPBNXZ @ 524 NONAME ; public: double const * __thiscall std::vector<double,class std::allocator<double> >::begin(void)const 
 ?end@?$vector@NV?$allocator@N@std@@@std@@QBEPBNXZ @ 525 NONAME ; public: double const * __thiscall std::vector<double,class std::allocator<double> >::end(void)const 
 ?_Destroy@?$vector@NV?$allocator@N@std@@@std@@IAEXPAN0@Z @ 526 NONAME ; protected: void __thiscall std::vector<double,class std::allocator<double> >::_Destroy(double *,double *)
 ?_Ucopy@?$vector@NV?$allocator@N@std@@@std@@IAEPANPBN0PAN@Z @ 527 NONAME ; protected: double * __thiscall std::vector<double,class std::allocator<double> >::_Ucopy(double const *,double const *,double *)
 ?allocate@?$allocator@N@std@@QAEPANIPBX@Z @ 528 NONAME ; public: double * __thiscall std::allocator<double>::allocate(unsigned int,void const *)
 ?deallocate@?$allocator@N@std@@QAEXPAXI@Z @ 529 NONAME ; public: void __thiscall std::allocator<double>::deallocate(void *,unsigned int)
 ?construct@?$allocator@N@std@@QAEXPANABN@Z @ 530 NONAME ; public: void __thiscall std::allocator<double>::construct(double *,double const &)
 ?destroy@?$allocator@N@std@@QAEXPAN@Z @ 531 NONAME ; public: void __thiscall std::allocator<double>::destroy(double *)
 ?copy@std@@YAPANPBN0PAN@Z @ 532 NONAME ; double * __cdecl std::copy(double const *,double const *,double *)
 ?_Allocate@std@@YAPANHPAN@Z @ 533 NONAME ; double * __cdecl std::_Allocate(int,double *)
 ?copy@std@@YAPAPAEPAPAE00@Z @ 534 NONAME ; unsigned char * * __cdecl std::copy(unsigned char * *,unsigned char * *,unsigned char * *)
 ?copy@std@@YAPAU?$pair@PAPAVOBAtom@OpenBabel@@V?$vector@HV?$allocator@H@std@@@std@@@1@PAU21@00@Z @ 535 NONAME ; struct std::pair<class OpenBabel::OBAtom * *,class std::vector<int,class std::allocator<int> > > * __cdecl std::copy(struct std::pair<class OpenBabel::OBAtom * *,class std::vector<int,class std::allocator<int> > > *,struct std::pair<class OpenBabel::OBAtom * *,class std::vector<int,class std::allocator<int> > > *,struct std::pair<class OpenBabel::OBAtom * *,class std::vector<int,class std::allocator<int> > > *)
 ?fill@std@@YAXPAPAN0ABQAN@Z @ 536 NONAME ; void __cdecl std::fill(double * *,double * *,double * const &)
 ?copy_backward@std@@YAPAPANPAPAN00@Z @ 537 NONAME ; double * * __cdecl std::copy_backward(double * *,double * *,double * *)
 ?_Construct@std@@YAXPAPANABQAN@Z @ 538 NONAME ; void __cdecl std::_Construct(double * *,double * const &)
 ?_Destroy@std@@YAXPAPAN@Z @ 539 NONAME ; void __cdecl std::_Destroy(double * *)
 ?_Construct@std@@YAXPANABN@Z @ 540 NONAME ; void __cdecl std::_Construct(double *,double const &)
 ?_Destroy@std@@YAXPAN@Z @ 541 NONAME ; void __cdecl std::_Destroy(double *)
 ?fill@std@@YAXPAV?$vector@NV?$allocator@N@std@@@1@0ABV21@@Z @ 542 NONAME ; void __cdecl std::fill(class std::vector<double,class std::allocator<double> > *,class std::vector<double,class std::allocator<double> > *,class std::vector<double,class std::allocator<double> > const &)
 ?copy_backward@std@@YAPAV?$vector@NV?$allocator@N@std@@@1@PAV21@00@Z @ 543 NONAME ; class std::vector<double,class std::allocator<double> > * __cdecl std::copy_backward(class std::vector<double,class std::allocator<double> > *,class std::vector<double,class std::allocator<double> > *,class std::vector<double,class std::allocator<double> > *)
 ?_Destroy@std@@YAXPAV?$vector@NV?$allocator@N@std@@@1@@Z @ 544 NONAME ; void __cdecl std::_Destroy(class std::vector<double,class std::allocator<double> > *)
 ?fill@std@@YAXPAPAE0ABQAE@Z @ 545 NONAME ; void __cdecl std::fill(unsigned char * *,unsigned char * *,unsigned char * const &)
 ?copy_backward@std@@YAPAPAEPAPAE00@Z @ 546 NONAME ; unsigned char * * __cdecl std::copy_backward(unsigned char * *,unsigned char * *,unsigned char * *)
 ?_Destroy@std@@YAXPAPAE@Z @ 547 NONAME ; void __cdecl std::_Destroy(unsigned char * *)
 ?fill@std@@YAXPAU?$pair@PAPAVOBAtom@OpenBabel@@V?$vector@HV?$allocator@H@std@@@std@@@1@0ABU21@@Z @ 548 NONAME ; void __cdecl std::fill(struct std::pair<class OpenBabel::OBAtom * *,class std::vector<int,class std::allocator<int> > > *,struct std::pair<class OpenBabel::OBAtom * *,class std::vector<int,class std::allocator<int> > > *,struct std::pair<class OpenBabel::OBAtom * *,class std::vector<int,class std::allocator<int> > > const &)
 ?copy_backward@std@@YAPAU?$pair@PAPAVOBAtom@OpenBabel@@V?$vector@HV?$allocator@H@std@@@std@@@1@PAU21@00@Z @ 549 NONAME ; struct std::pair<class OpenBabel::OBAtom * *,class std::vector<int,class std::allocator<int> > > * __cdecl std::copy_backward(struct std::pair<class OpenBabel::OBAtom * *,class std::vector<int,class std::allocator<int> > > *,struct std::pair<class OpenBabel::OBAtom * *,class std::vector<int,class std::allocator<int> > > *,struct std::pair<class OpenBabel::OBAtom * *,class std::vector<int,class std::allocator<int> > > *)
 ?_Destroy@std@@YAXPAU?$pair@PAPAVOBAtom@OpenBabel@@V?$vector@HV?$allocator@H@std@@@std@@@1@@Z @ 550 NONAME ; void __cdecl std::_Destroy(struct std::pair<class OpenBabel::OBAtom * *,class std::vector<int,class std::allocator<int> > > *)
 ?fill@std@@YAXPAV?$fpos@H@1@0ABV21@@Z @ 551 NONAME ; void __cdecl std::fill(class std::fpos<int> *,class std::fpos<int> *,class std::fpos<int> const &)
 ?copy_backward@std@@YAPAV?$fpos@H@1@PAV21@00@Z @ 552 NONAME ; class std::fpos<int> * __cdecl std::copy_backward(class std::fpos<int> *,class std::fpos<int> *,class std::fpos<int> *)
 ?_Destroy@std@@YAXPAV?$fpos@H@1@@Z @ 553 NONAME ; void __cdecl std::_Destroy(class std::fpos<int> *)
 ?_Allocate@std@@YAPAV?$vector@NV?$allocator@N@std@@@1@HPAV21@@Z @ 554 NONAME ; class std::vector<double,class std::allocator<double> > * __cdecl std::_Allocate(int,class std::vector<double,class std::allocator<double> > *)
 ?_Allocate@std@@YAPAPAEHPAPAE@Z @ 555 NONAME ; unsigned char * * __cdecl std::_Allocate(int,unsigned char * *)
 ?_Allocate@std@@YAPAU?$pair@PAPAVOBAtom@OpenBabel@@V?$vector@HV?$allocator@H@std@@@std@@@1@HPAU21@@Z @ 556 NONAME ; struct std::pair<class OpenBabel::OBAtom * *,class std::vector<int,class std::allocator<int> > > * __cdecl std::_Allocate(int,struct std::pair<class OpenBabel::OBAtom * *,class std::vector<int,class std::allocator<int> > > *)
 ?_Allocate@std@@YAPAV?$fpos@H@1@HPAV21@@Z @ 557 NONAME ; class std::fpos<int> * __cdecl std::_Allocate(int,class std::fpos<int> *)
 ?_Construct@std@@YAXPAV?$vector@NV?$allocator@N@std@@@1@ABV21@@Z @ 558 NONAME ; void __cdecl std::_Construct(class std::vector<double,class std::allocator<double> > *,class std::vector<double,class std::allocator<double> > const &)
 ?_Construct@std@@YAXPAPAEABQAE@Z @ 559 NONAME ; void __cdecl std::_Construct(unsigned char * *,unsigned char * const &)
 ?_Construct@std@@YAXPAU?$pair@PAPAVOBAtom@OpenBabel@@V?$vector@HV?$allocator@H@std@@@std@@@1@ABU21@@Z @ 560 NONAME ; void __cdecl std::_Construct(struct std::pair<class OpenBabel::OBAtom * *,class std::vector<int,class std::allocator<int> > > *,struct std::pair<class OpenBabel::OBAtom * *,class std::vector<int,class std::allocator<int> > > const &)
 ?_Construct@std@@YAXPAV?$fpos@H@1@ABV21@@Z @ 561 NONAME ; void __cdecl std::_Construct(class std::fpos<int> *,class std::fpos<int> const &)
 ??4?$pair@PAPAVOBAtom@OpenBabel@@V?$vector@HV?$allocator@H@std@@@std@@@std@@QAEAAU01@ABU01@@Z @ 562 NONAME ; public: struct std::pair<class OpenBabel::OBAtom * *,class std::vector<int,class std::allocator<int> > > & __thiscall std::pair<class OpenBabel::OBAtom * *,class std::vector<int,class std::allocator<int> > >::operator=(struct std::pair<class OpenBabel::OBAtom * *,class std::vector<int,class std::allocator<int> > > const &)
 ??1?$vector@NV?$allocator@N@std@@@std@@QAE@XZ @ 563 NONAME ; public: __thiscall std::vector<double,class std::allocator<double> >::~vector<double,class std::allocator<double> >(void)
 ??0?$pair@PAPAVOBAtom@OpenBabel@@V?$vector@HV?$allocator@H@std@@@std@@@std@@QAE@ABU01@@Z @ 564 NONAME ; public: __thiscall std::pair<class OpenBabel::OBAtom * *,class std::vector<int,class std::allocator<int> > >::pair<class OpenBabel::OBAtom * *,class std::vector<int,class std::allocator<int> > >(struct std::pair<class OpenBabel::OBAtom * *,class std::vector<int,class std::allocator<int> > > const &)
 ??0?$vector@NV?$allocator@N@std@@@std@@QAE@ABV01@@Z @ 565 NONAME ; public: __thiscall std::vector<double,class std::allocator<double> >::vector<double,class std::allocator<double> >(class std::vector<double,class std::allocator<double> > const &)
 ??0OBBitVec@OpenBabel@@QAE@ABV01@@Z @ 566 NONAME ; public: __thiscall OpenBabel::OBBitVec::OBBitVec(class OpenBabel::OBBitVec const &)
 ?SetBitOn@OBBitVec@OpenBabel@@QAEXH@Z @ 567 NONAME ; public: void __thiscall OpenBabel::OBBitVec::SetBitOn(int)
 ?SetRangeOn@OBBitVec@OpenBabel@@QAEXHH@Z @ 568 NONAME ; public: void __thiscall OpenBabel::OBBitVec::SetRangeOn(int,int)
 ?SetBitOff@OBBitVec@OpenBabel@@QAEXH@Z @ 569 NONAME ; public: void __thiscall OpenBabel::OBBitVec::SetBitOff(int)
 ?SetRangeOff@OBBitVec@OpenBabel@@QAEXHH@Z @ 570 NONAME ; public: void __thiscall OpenBabel::OBBitVec::SetRangeOff(int,int)
 ?NextBit@OBBitVec@OpenBabel@@QAEHH@Z @ 571 NONAME ; public: int __thiscall OpenBabel::OBBitVec::NextBit(int)
 ?Resize@OBBitVec@OpenBabel@@QAE_NH@Z @ 572 NONAME ; public: bool __thiscall OpenBabel::OBBitVec::Resize(int)
 ??4OBBitVec@OpenBabel@@QAEAAV01@ABV01@@Z @ 573 NONAME ; public: class OpenBabel::OBBitVec & __thiscall OpenBabel::OBBitVec::operator=(class OpenBabel::OBBitVec const &)
 ??_4OBBitVec@OpenBabel@@QAEAAV01@AAV01@@Z @ 574 NONAME ; public: class OpenBabel::OBBitVec & __thiscall OpenBabel::OBBitVec::operator&=(class OpenBabel::OBBitVec &)
 ??_5OBBitVec@OpenBabel@@QAEAAV01@AAV01@@Z @ 575 NONAME ; public: class OpenBabel::OBBitVec & __thiscall OpenBabel::OBBitVec::operator|=(class OpenBabel::OBBitVec &)
 ??_6OBBitVec@OpenBabel@@QAEAAV01@AAV01@@Z @ 576 NONAME ; public: class OpenBabel::OBBitVec & __thiscall OpenBabel::OBBitVec::operator^=(class OpenBabel::OBBitVec &)
 ??ZOBBitVec@OpenBabel@@QAEAAV01@AAV01@@Z @ 577 NONAME ; public: class OpenBabel::OBBitVec & __thiscall OpenBabel::OBBitVec::operator-=(class OpenBabel::OBBitVec &)
 ??0OBBitVec@OpenBabel@@QAE@XZ @ 578 NONAME ; public: __thiscall OpenBabel::OBBitVec::OBBitVec(void)
 ??1OBBitVec@OpenBabel@@QAE@XZ @ 579 NONAME ; public: __thiscall OpenBabel::OBBitVec::~OBBitVec(void)
 ??YOBBitVec@OpenBabel@@QAEAAV01@AAV01@@Z @ 580 NONAME ; public: class OpenBabel::OBBitVec & __thiscall OpenBabel::OBBitVec::operator+=(class OpenBabel::OBBitVec &)
 ??UOpenBabel@@YA?AVOBBitVec@0@AAV10@0@Z @ 581 NONAME ; class OpenBabel::OBBitVec __cdecl OpenBabel::operator|(class OpenBabel::OBBitVec &,class OpenBabel::OBBitVec &)
 ??IOpenBabel@@YA?AVOBBitVec@0@AAV10@0@Z @ 582 NONAME ; class OpenBabel::OBBitVec __cdecl OpenBabel::operator&(class OpenBabel::OBBitVec &,class OpenBabel::OBBitVec &)
 ??TOpenBabel@@YA?AVOBBitVec@0@AAV10@0@Z @ 583 NONAME ; class OpenBabel::OBBitVec __cdecl OpenBabel::operator^(class OpenBabel::OBBitVec &,class OpenBabel::OBBitVec &)
 ??8OpenBabel@@YA_NABVOBBitVec@0@0@Z @ 584 NONAME ; bool __cdecl OpenBabel::operator==(class OpenBabel::OBBitVec const &,class OpenBabel::OBBitVec const &)
 ??GOpenBabel@@YA?AVOBBitVec@0@AAV10@0@Z @ 585 NONAME ; class OpenBabel::OBBitVec __cdecl OpenBabel::operator-(class OpenBabel::OBBitVec &,class OpenBabel::OBBitVec &)
 ??5OpenBabel@@YAAAV?$basic_istream@DU?$char_traits@D@std@@@std@@AAV12@AAVOBBitVec@0@@Z @ 586 NONAME ; class std::basic_istream<char,struct std::char_traits<char> > & __cdecl OpenBabel::operator>>(class std::basic_istream<char,struct std::char_traits<char> > &,class OpenBabel::OBBitVec &)
 ??6OpenBabel@@YAAAV?$basic_ostream@DU?$char_traits@D@std@@@std@@AAV12@ABVOBBitVec@0@@Z @ 587 NONAME ; class std::basic_ostream<char,struct std::char_traits<char> > & __cdecl OpenBabel::operator<<(class std::basic_ostream<char,struct std::char_traits<char> > &,class OpenBabel::OBBitVec const &)
 ?Fold@OBBitVec@OpenBabel@@QAEXH@Z @ 588 NONAME ; public: void __thiscall OpenBabel::OBBitVec::Fold(int)
 ?FromVecInt@OBBitVec@OpenBabel@@QAEXAAV?$vector@HV?$allocator@H@std@@@std@@@Z @ 589 NONAME ; public: void __thiscall OpenBabel::OBBitVec::FromVecInt(class std::vector<int,class std::allocator<int> > &)
 ?FromString@OBBitVec@OpenBabel@@QAEXAAV?$basic_string@DU?$char_traits@D@std@@V?$allocator@D@2@@std@@H@Z @ 590 NONAME ; public: void __thiscall OpenBabel::OBBitVec::FromString(class std::basic_string<char,struct std::char_traits<char>,class std::allocator<char> > &,int)
 ?ToVecInt@OBBitVec@OpenBabel@@QAEXAAV?$vector@HV?$allocator@H@std@@@std@@@Z @ 591 NONAME ; public: void __thiscall OpenBabel::OBBitVec::ToVecInt(class std::vector<int,class std::allocator<int> > &)
 ?Clear@OBBitVec@OpenBabel@@QAEXXZ @ 592 NONAME ; public: void __thiscall OpenBabel::OBBitVec::Clear(void)
 ?CountBits@OBBitVec@OpenBabel@@QAEHXZ @ 593 NONAME ; public: int __thiscall OpenBabel::OBBitVec::CountBits(void)
 ?IsEmpty@OBBitVec@OpenBabel@@QAE_NXZ @ 594 NONAME ; public: bool __thiscall OpenBabel::OBBitVec::IsEmpty(void)
 ?Tanimoto@OpenBabel@@YANAAVOBBitVec@1@0@Z @ 595 NONAME ; double __cdecl OpenBabel::Tanimoto(class OpenBabel::OBBitVec &,class OpenBabel::OBBitVec &)
 ?reserve@?$vector@HV?$allocator@H@std@@@std@@QAEXI@Z @ 596 NONAME ; public: void __thiscall std::vector<int,class std::allocator<int> >::reserve(unsigned int)
 ?resize@?$vector@HV?$allocator@H@std@@@std@@QAEXIABH@Z @ 597 NONAME ; public: void __thiscall std::vector<int,class std::allocator<int> >::resize(unsigned int,int const &)
 ??A?$vector@HV?$allocator@H@std@@@std@@QBEABHI@Z @ 598 NONAME ; public: int const & __thiscall std::vector<int,class std::allocator<int> >::operator[](unsigned int)const 
 ?clear@?$vector@HV?$allocator@H@std@@@std@@QAEXXZ @ 599 NONAME ; public: void __thiscall std::vector<int,class std::allocator<int> >::clear(void)
 ??0?$vector@V?$basic_string@DU?$char_traits@D@std@@V?$allocator@D@2@@std@@V?$allocator@V?$basic_string@DU?$char_traits@D@std@@V?$allocator@D@2@@std@@@2@@std@@QAE@ABV?$allocator@V?$basic_string@DU?$char_traits@D@std@@V?$allocator@D@2@@std@@@1@@Z @ 600 NONAME ; public: __thiscall std::vector<class std::basic_string<char,struct std::char_traits<char>,class std::allocator<char> >,class std::allocator<class std::basic_string<char,struct std::char_traits<char>,class std::allocator<char> > > >::vector<class std::basic_string<char,struct std::char_traits<char>,class std::allocator<char> >,class std::allocator<class std::basic_string<char,struct std::char_traits<char>,class std::allocator<char> > > >(class std::allocator<class std::basic_string<char,struct std::char_tra
 ?size@?$vector@V?$basic_string@DU?$char_traits@D@std@@V?$allocator@D@2@@std@@V?$allocator@V?$basic_string@DU?$char_traits@D@std@@V?$allocator@D@2@@std@@@2@@std@@QBEIXZ @ 601 NONAME ; public: unsigned int __thiscall std::vector<class std::basic_string<char,struct std::char_traits<char>,class std::allocator<char> >,class std::allocator<class std::basic_string<char,struct std::char_traits<char>,class std::allocator<char> > > >::size(void)const 
 ??A?$vector@V?$basic_string@DU?$char_traits@D@std@@V?$allocator@D@2@@std@@V?$allocator@V?$basic_string@DU?$char_traits@D@std@@V?$allocator@D@2@@std@@@2@@std@@QAEAAV?$basic_string@DU?$char_traits@D@std@@V?$allocator@D@2@@1@I@Z @ 602 NONAME ; public: class std::basic_string<char,struct std::char_traits<char>,class std::allocator<char> > & __thiscall std::vector<class std::basic_string<char,struct std::char_traits<char>,class std::allocator<char> >,class std::allocator<class std::basic_string<char,struct std::char_traits<char>,class std::allocator<char> > > >::operator[](unsigned int)
 ?push_back@?$vector@V?$basic_string@DU?$char_traits@D@std@@V?$allocator@D@2@@std@@V?$allocator@V?$basic_string@DU?$char_traits@D@std@@V?$allocator@D@2@@std@@@2@@std@@QAEXABV?$basic_string@DU?$char_traits@D@std@@V?$allocator@D@2@@2@@Z @ 603 NONAME ; public: void __thiscall std::vector<class std::basic_string<char,struct std::char_traits<char>,class std::allocator<char> >,class std::allocator<class std::basic_string<char,struct std::char_traits<char>,class std::allocator<char> > > >::push_back(class std::basic_string<char,struct std::char_traits<char>,class std::allocator<char> > const &)
 ?erase@?$vector@HV?$allocator@H@std@@@std@@QAEPAHPAH0@Z @ 604 NONAME ; public: int * __thiscall std::vector<int,class std::allocator<int> >::erase(int *,int *)
 ?begin@?$vector@V?$basic_string@DU?$char_traits@D@std@@V?$allocator@D@2@@std@@V?$allocator@V?$basic_string@DU?$char_traits@D@std@@V?$allocator@D@2@@std@@@2@@std@@QAEPAV?$basic_string@DU?$char_traits@D@std@@V?$allocator@D@2@@2@XZ @ 605 NONAME ; public: class std::basic_string<char,struct std::char_traits<char>,class std::allocator<char> > * __thiscall std::vector<class std::basic_string<char,struct std::char_traits<char>,class std::allocator<char> >,class std::allocator<class std::basic_string<char,struct std::char_traits<char>,class std::allocator<char> > > >::begin(void)
 ?end@?$vector@V?$basic_string@DU?$char_traits@D@std@@V?$allocator@D@2@@std@@V?$allocator@V?$basic_string@DU?$char_traits@D@std@@V?$allocator@D@2@@std@@@2@@std@@QAEPAV?$basic_string@DU?$char_traits@D@std@@V?$allocator@D@2@@2@XZ @ 606 NONAME ; public: class std::basic_string<char,struct std::char_traits<char>,class std::allocator<char> > * __thiscall std::vector<class std::basic_string<char,struct std::char_traits<char>,class std::allocator<char> >,class std::allocator<class std::basic_string<char,struct std::char_traits<char>,class std::allocator<char> > > >::end(void)
 ?insert@?$vector@V?$basic_string@DU?$char_traits@D@std@@V?$allocator@D@2@@std@@V?$allocator@V?$basic_string@DU?$char_traits@D@std@@V?$allocator@D@2@@std@@@2@@std@@QAEPAV?$basic_string@DU?$char_traits@D@std@@V?$allocator@D@2@@2@PAV32@ABV32@@Z @ 607 NONAME ; public: class std::basic_string<char,struct std::char_traits<char>,class std::allocator<char> > * __thiscall std::vector<class std::basic_string<char,struct std::char_traits<char>,class std::allocator<char> >,class std::allocator<class std::basic_string<char,struct std::char_traits<char>,class std::allocator<char> > > >::insert(class std::basic_string<char,struct std::char_traits<char>,class std::allocator<char> > *,class std::basic_string<char,struct std::char_traits<char>,class std::allocator<char> > con
 ?insert@?$vector@V?$basic_string@DU?$char_traits@D@std@@V?$allocator@D@2@@std@@V?$allocator@V?$basic_string@DU?$char_traits@D@std@@V?$allocator@D@2@@std@@@2@@std@@QAEXPAV?$basic_string@DU?$char_traits@D@std@@V?$allocator@D@2@@2@IABV32@@Z @ 608 NONAME ; public: void __thiscall std::vector<class std::basic_string<char,struct std::char_traits<char>,class std::allocator<char> >,class std::allocator<class std::basic_string<char,struct std::char_traits<char>,class std::allocator<char> > > >::insert(class std::basic_string<char,struct std::char_traits<char>,class std::allocator<char> > *,unsigned int,class std::basic_string<char,struct std::char_traits<char>,class std::allocator<char> > const &)
 ?_Ucopy@?$vector@V?$basic_string@DU?$char_traits@D@std@@V?$allocator@D@2@@std@@V?$allocator@V?$basic_string@DU?$char_traits@D@std@@V?$allocator@D@2@@std@@@2@@std@@IAEPAV?$basic_string@DU?$char_traits@D@std@@V?$allocator@D@2@@2@PBV32@0PAV32@@Z @ 609 NONAME ; protected: class std::basic_string<char,struct std::char_traits<char>,class std::allocator<char> > * __thiscall std::vector<class std::basic_string<char,struct std::char_traits<char>,class std::allocator<char> >,class std::allocator<class std::basic_string<char,struct std::char_traits<char>,class std::allocator<char> > > >::_Ucopy(class std::basic_string<char,struct std::char_traits<char>,class std::allocator<char> > const *,class std::basic_string<char,struct std::char_traits<char>,class std::allocator<ch
 ?_Ufill@?$vector@V?$basic_string@DU?$char_traits@D@std@@V?$allocator@D@2@@std@@V?$allocator@V?$basic_string@DU?$char_traits@D@std@@V?$allocator@D@2@@std@@@2@@std@@IAEXPAV?$basic_string@DU?$char_traits@D@std@@V?$allocator@D@2@@2@IABV32@@Z @ 610 NONAME ; protected: void __thiscall std::vector<class std::basic_string<char,struct std::char_traits<char>,class std::allocator<char> >,class std::allocator<class std::basic_string<char,struct std::char_traits<char>,class std::allocator<char> > > >::_Ufill(class std::basic_string<char,struct std::char_traits<char>,class std::allocator<char> > *,unsigned int,class std::basic_string<char,struct std::char_traits<char>,class std::allocator<char> > const &)
 ?allocate@?$allocator@V?$basic_string@DU?$char_traits@D@std@@V?$allocator@D@2@@std@@@std@@QAEPAV?$basic_string@DU?$char_traits@D@std@@V?$allocator@D@2@@2@IPBX@Z @ 611 NONAME ; public: class std::basic_string<char,struct std::char_traits<char>,class std::allocator<char> > * __thiscall std::allocator<class std::basic_string<char,struct std::char_traits<char>,class std::allocator<char> > >::allocate(unsigned int,void const *)
 ?construct@?$allocator@V?$basic_string@DU?$char_traits@D@std@@V?$allocator@D@2@@std@@@std@@QAEXPAV?$basic_string@DU?$char_traits@D@std@@V?$allocator@D@2@@2@ABV32@@Z @ 612 NONAME ; public: void __thiscall std::allocator<class std::basic_string<char,struct std::char_traits<char>,class std::allocator<char> > >::construct(class std::basic_string<char,struct std::char_traits<char>,class std::allocator<char> > *,class std::basic_string<char,struct std::char_traits<char>,class std::allocator<char> > const &)
 ?copy@std@@YAPAHPAH00@Z @ 613 NONAME ; int * __cdecl std::copy(int *,int *,int *)
 ?fill@std@@YAXPAV?$basic_string@DU?$char_traits@D@std@@V?$allocator@D@2@@1@0ABV21@@Z @ 614 NONAME ; void __cdecl std::fill(class std::basic_string<char,struct std::char_traits<char>,class std::allocator<char> > *,class std::basic_string<char,struct std::char_traits<char>,class std::allocator<char> > *,class std::basic_string<char,struct std::char_traits<char>,class std::allocator<char> > const &)
 ?copy_backward@std@@YAPAV?$basic_string@DU?$char_traits@D@std@@V?$allocator@D@2@@1@PAV21@00@Z @ 615 NONAME ; class std::basic_string<char,struct std::char_traits<char>,class std::allocator<char> > * __cdecl std::copy_backward(class std::basic_string<char,struct std::char_traits<char>,class std::allocator<char> > *,class std::basic_string<char,struct std::char_traits<char>,class std::allocator<char> > *,class std::basic_string<char,struct std::char_traits<char>,class std::allocator<char> > *)
 ?_Allocate@std@@YAPAV?$basic_string@DU?$char_traits@D@std@@V?$allocator@D@2@@1@HPAV21@@Z @ 616 NONAME ; class std::basic_string<char,struct std::char_traits<char>,class std::allocator<char> > * __cdecl std::_Allocate(int,class std::basic_string<char,struct std::char_traits<char>,class std::allocator<char> > *)
 ?_Construct@std@@YAXPAV?$basic_string@DU?$char_traits@D@std@@V?$allocator@D@2@@1@ABV21@@Z @ 617 NONAME ; void __cdecl std::_Construct(class std::basic_string<char,struct std::char_traits<char>,class std::allocator<char> > *,class std::basic_string<char,struct std::char_traits<char>,class std::allocator<char> > const &)
 ??0OBBond@OpenBabel@@QAE@XZ @ 618 NONAME ; public: __thiscall OpenBabel::OBBond::OBBond(void)
 ??0OBEdgeBase@OpenBabel@@QAE@XZ @ 619 NONAME ; public: __thiscall OpenBabel::OBEdgeBase::OBEdgeBase(void)
 ??1OBEdgeBase@OpenBabel@@UAE@XZ @ 620 NONAME ; public: virtual __thiscall OpenBabel::OBEdgeBase::~OBEdgeBase(void)
 ?GetParent@OBEdgeBase@OpenBabel@@UAEPAVOBGraphBase@2@XZ @ 621 NONAME ; public: virtual class OpenBabel::OBGraphBase * __thiscall OpenBabel::OBEdgeBase::GetParent(void)
 ?SetClosure@OBEdgeBase@OpenBabel@@UAEXXZ @ 622 NONAME ; public: virtual void __thiscall OpenBabel::OBEdgeBase::SetClosure(void)
 ?IsAromatic@OBEdgeBase@OpenBabel@@UBE_NXZ @ 623 NONAME ; public: virtual bool __thiscall OpenBabel::OBEdgeBase::IsAromatic(void)const 
 ?Error@OBEdgeBase@OpenBabel@@QAEXH@Z @ 624 NONAME ; public: void __thiscall OpenBabel::OBEdgeBase::Error(int)
 ?IsInRing@OBEdgeBase@OpenBabel@@UBE_NXZ @ 625 NONAME ; public: virtual bool __thiscall OpenBabel::OBEdgeBase::IsInRing(void)const 
 ?IsClosure@OBEdgeBase@OpenBabel@@UAE_NXZ @ 626 NONAME ; public: virtual bool __thiscall OpenBabel::OBEdgeBase::IsClosure(void)
 ?Eval@OBEdgeBase@OpenBabel@@UAE_NPAV12@@Z @ 627 NONAME ; public: virtual bool __thiscall OpenBabel::OBEdgeBase::Eval(class OpenBabel::OBEdgeBase *)
 ?GetBO@OBEdgeBase@OpenBabel@@UBEIXZ @ 628 NONAME ; public: virtual unsigned int __thiscall OpenBabel::OBEdgeBase::GetBO(void)const 
 ?SetClosure@OBBond@OpenBabel@@UAEXXZ @ 629 NONAME ; public: virtual void __thiscall OpenBabel::OBBond::SetClosure(void)
 ?GetBO@OBBond@OpenBabel@@UBEIXZ @ 630 NONAME ; public: virtual unsigned int __thiscall OpenBabel::OBBond::GetBO(void)const 
 ??1OBBond@OpenBabel@@UAE@XZ @ 631 NONAME ; public: virtual __thiscall OpenBabel::OBBond::~OBBond(void)
 ?Set@OBBond@OpenBabel@@QAEXHPAVOBAtom@2@0HH@Z @ 632 NONAME ; public: void __thiscall OpenBabel::OBBond::Set(int,class OpenBabel::OBAtom *,class OpenBabel::OBAtom *,int,int)
 ?SetIdx@OBBond@OpenBabel@@QAEXH@Z @ 633 NONAME ; public: void __thiscall OpenBabel::OBBond::SetIdx(int)
 ?SetBegin@OBBond@OpenBabel@@QAEXPAVOBAtom@2@@Z @ 634 NONAME ; public: void __thiscall OpenBabel::OBBond::SetBegin(class OpenBabel::OBAtom *)
 ?SetEnd@OBBond@OpenBabel@@QAEXPAVOBAtom@2@@Z @ 635 NONAME ; public: void __thiscall OpenBabel::OBBond::SetEnd(class OpenBabel::OBAtom *)
 ?SetBO@OBBond@OpenBabel@@QAEXH@Z @ 636 NONAME ; public: void __thiscall OpenBabel::OBBond::SetBO(int)
 ?UnsetAromatic@OBBond@OpenBabel@@QAEXXZ @ 637 NONAME ; public: void __thiscall OpenBabel::OBBond::UnsetAromatic(void)
 ?SetLength@OBBond@OpenBabel@@QAEXPAVOBAtom@2@N@Z @ 638 NONAME ; public: void __thiscall OpenBabel::OBBond::SetLength(class OpenBabel::OBAtom *,double)
 ?IsRotor@OBBond@OpenBabel@@QAE_NXZ @ 639 NONAME ; public: bool __thiscall OpenBabel::OBBond::IsRotor(void)
 ?IsAmide@OBBond@OpenBabel@@QAE_NXZ @ 640 NONAME ; public: bool __thiscall OpenBabel::OBBond::IsAmide(void)
 ?IsPrimaryAmide@OBBond@OpenBabel@@QAE_NXZ @ 641 NONAME ; public: bool __thiscall OpenBabel::OBBond::IsPrimaryAmide(void)
 ?IsSecondaryAmide@OBBond@OpenBabel@@QAE_NXZ @ 642 NONAME ; public: bool __thiscall OpenBabel::OBBond::IsSecondaryAmide(void)
 ?IsEster@OBBond@OpenBabel@@QAE_NXZ @ 643 NONAME ; public: bool __thiscall OpenBabel::OBBond::IsEster(void)
 ?IsCarbonyl@OBBond@OpenBabel@@QAE_NXZ @ 644 NONAME ; public: bool __thiscall OpenBabel::OBBond::IsCarbonyl(void)
 ?IsSingle@OBBond@OpenBabel@@QAE_NXZ @ 645 NONAME ; public: bool __thiscall OpenBabel::OBBond::IsSingle(void)
 ?HasFlag@OBBond@OpenBabel@@IAE_NH@Z @ 646 NONAME ; protected: bool __thiscall OpenBabel::OBBond::HasFlag(int)
 ?GetBondOrder@OBBond@OpenBabel@@QBEIXZ @ 647 NONAME ; public: unsigned int __thiscall OpenBabel::OBBond::GetBondOrder(void)const 
 ?IsDouble@OBBond@OpenBabel@@QAE_NXZ @ 648 NONAME ; public: bool __thiscall OpenBabel::OBBond::IsDouble(void)
 ?IsTriple@OBBond@OpenBabel@@QAE_NXZ @ 649 NONAME ; public: bool __thiscall OpenBabel::OBBond::IsTriple(void)
 ?IsAromatic@OBBond@OpenBabel@@UBE_NXZ @ 650 NONAME ; public: virtual bool __thiscall OpenBabel::OBBond::IsAromatic(void)const 
 ?SetKSingle@OBBond@OpenBabel@@QAEXXZ @ 651 NONAME ; public: void __thiscall OpenBabel::OBBond::SetKSingle(void)
 ?SetKDouble@OBBond@OpenBabel@@QAEXXZ @ 652 NONAME ; public: void __thiscall OpenBabel::OBBond::SetKDouble(void)
 ?SetKTriple@OBBond@OpenBabel@@QAEXXZ @ 653 NONAME ; public: void __thiscall OpenBabel::OBBond::SetKTriple(void)
 ?IsKSingle@OBBond@OpenBabel@@QAE_NXZ @ 654 NONAME ; public: bool __thiscall OpenBabel::OBBond::IsKSingle(void)
 ?HasKekulePerceived@OBMol@OpenBabel@@QAE_NXZ @ 655 NONAME ; public: bool __thiscall OpenBabel::OBMol::HasKekulePerceived(void)
 ?IsKDouble@OBBond@OpenBabel@@QAE_NXZ @ 656 NONAME ; public: bool __thiscall OpenBabel::OBBond::IsKDouble(void)
 ?IsKTriple@OBBond@OpenBabel@@QAE_NXZ @ 657 NONAME ; public: bool __thiscall OpenBabel::OBBond::IsKTriple(void)
 ?IsInRing@OBBond@OpenBabel@@UBE_NXZ @ 658 NONAME ; public: virtual bool __thiscall OpenBabel::OBBond::IsInRing(void)const 
 ?IsClosure@OBBond@OpenBabel@@UAE_NXZ @ 659 NONAME ; public: virtual bool __thiscall OpenBabel::OBBond::IsClosure(void)
 ??_5OBBitVec@OpenBabel@@QAEAAV01@H@Z @ 660 NONAME ; public: class OpenBabel::OBBitVec & __thiscall OpenBabel::OBBitVec::operator|=(int)
 ??AOBBitVec@OpenBabel@@QAE_NH@Z @ 661 NONAME ; public: bool __thiscall OpenBabel::OBBitVec::operator[](int)
 ?SetClosureBondsPerceived@OBMol@OpenBabel@@QAEXXZ @ 662 NONAME ; public: void __thiscall OpenBabel::OBMol::SetClosureBondsPerceived(void)
 ?HasClosureBondsPerceived@OBMol@OpenBabel@@QAE_NXZ @ 663 NONAME ; public: bool __thiscall OpenBabel::OBMol::HasClosureBondsPerceived(void)
 ?GetEquibLength@OBBond@OpenBabel@@QAENXZ @ 664 NONAME ; public: double __thiscall OpenBabel::OBBond::GetEquibLength(void)
 ?GetLength@OBBond@OpenBabel@@QAENXZ @ 665 NONAME ; public: double __thiscall OpenBabel::OBBond::GetLength(void)
 ?GetX@OBAtom@OpenBabel@@QAENXZ @ 666 NONAME ; public: double __thiscall OpenBabel::OBAtom::GetX(void)
 ?x@OBAtom@OpenBabel@@QAENXZ @ 667 NONAME ; public: double __thiscall OpenBabel::OBAtom::x(void)
 ?GetY@OBAtom@OpenBabel@@QAENXZ @ 668 NONAME ; public: double __thiscall OpenBabel::OBAtom::GetY(void)
 ?y@OBAtom@OpenBabel@@QAENXZ @ 669 NONAME ; public: double __thiscall OpenBabel::OBAtom::y(void)
 ?GetZ@OBAtom@OpenBabel@@QAENXZ @ 670 NONAME ; public: double __thiscall OpenBabel::OBAtom::GetZ(void)
 ?z@OBAtom@OpenBabel@@QAENXZ @ 671 NONAME ; public: double __thiscall OpenBabel::OBAtom::z(void)
 ?HasData@OBBond@OpenBabel@@QAE_NAAV?$basic_string@DU?$char_traits@D@std@@V?$allocator@D@2@@std@@@Z @ 672 NONAME ; public: bool __thiscall OpenBabel::OBBond::HasData(class std::basic_string<char,struct std::char_traits<char>,class std::allocator<char> > &)
 ?HasData@OBBond@OpenBabel@@QAE_NPBD@Z @ 673 NONAME ; public: bool __thiscall OpenBabel::OBBond::HasData(char const *)
 ?HasData@OBBond@OpenBabel@@QAE_NW4obDataType@2@@Z @ 674 NONAME ; public: bool __thiscall OpenBabel::OBBond::HasData(enum OpenBabel::obDataType)
 ?GetData@OBBond@OpenBabel@@QAEPAVOBGenericData@2@AAV?$basic_string@DU?$char_traits@D@std@@V?$allocator@D@2@@std@@@Z @ 675 NONAME ; public: class OpenBabel::OBGenericData * __thiscall OpenBabel::OBBond::GetData(class std::basic_string<char,struct std::char_traits<char>,class std::allocator<char> > &)
 ?GetData@OBBond@OpenBabel@@QAEPAVOBGenericData@2@PBD@Z @ 676 NONAME ; public: class OpenBabel::OBGenericData * __thiscall OpenBabel::OBBond::GetData(char const *)
 ?GetData@OBBond@OpenBabel@@QAEPAVOBGenericData@2@W4obDataType@2@@Z @ 677 NONAME ; public: class OpenBabel::OBGenericData * __thiscall OpenBabel::OBBond::GetData(enum OpenBabel::obDataType)
 ?DeleteData@OBBond@OpenBabel@@QAEXW4obDataType@2@@Z @ 678 NONAME ; public: void __thiscall OpenBabel::OBBond::DeleteData(enum OpenBabel::obDataType)
 ?DeleteData@OBBond@OpenBabel@@QAEXAAV?$vector@PAVOBGenericData@OpenBabel@@V?$allocator@PAVOBGenericData@OpenBabel@@@std@@@std@@@Z @ 679 NONAME ; public: void __thiscall OpenBabel::OBBond::DeleteData(class std::vector<class OpenBabel::OBGenericData *,class std::allocator<class OpenBabel::OBGenericData *> > &)
 ?DeleteData@OBBond@OpenBabel@@QAEXPAVOBGenericData@2@@Z @ 680 NONAME ; public: void __thiscall OpenBabel::OBBond::DeleteData(class OpenBabel::OBGenericData *)
 ??4?$vector@PAVOBNodeBase@OpenBabel@@V?$allocator@PAVOBNodeBase@OpenBabel@@@std@@@std@@QAEAAV01@ABV01@@Z @ 681 NONAME ; public: class std::vector<class OpenBabel::OBNodeBase *,class std::allocator<class OpenBabel::OBNodeBase *> > & __thiscall std::vector<class OpenBabel::OBNodeBase *,class std::allocator<class OpenBabel::OBNodeBase *> >::operator=(class std::vector<class OpenBabel::OBNodeBase *,class std::allocator<class OpenBabel::OBNodeBase *> > const &)
 ?empty@?$vector@PAVOBNodeBase@OpenBabel@@V?$allocator@PAVOBNodeBase@OpenBabel@@@std@@@std@@QBE_NXZ @ 682 NONAME ; public: bool __thiscall std::vector<class OpenBabel::OBNodeBase *,class std::allocator<class OpenBabel::OBNodeBase *> >::empty(void)const 
 ?clear@?$vector@PAVOBNodeBase@OpenBabel@@V?$allocator@PAVOBNodeBase@OpenBabel@@@std@@@std@@QAEXXZ @ 683 NONAME ; public: void __thiscall std::vector<class OpenBabel::OBNodeBase *,class std::allocator<class OpenBabel::OBNodeBase *> >::clear(void)
 ?capacity@?$vector@PAVOBNodeBase@OpenBabel@@V?$allocator@PAVOBNodeBase@OpenBabel@@@std@@@std@@QBEIXZ @ 684 NONAME ; public: unsigned int __thiscall std::vector<class OpenBabel::OBNodeBase *,class std::allocator<class OpenBabel::OBNodeBase *> >::capacity(void)const 
 ?begin@?$vector@PAVOBNodeBase@OpenBabel@@V?$allocator@PAVOBNodeBase@OpenBabel@@@std@@@std@@QBEPBQAVOBNodeBase@OpenBabel@@XZ @ 685 NONAME ; public: class OpenBabel::OBNodeBase * const * __thiscall std::vector<class OpenBabel::OBNodeBase *,class std::allocator<class OpenBabel::OBNodeBase *> >::begin(void)const 
 ?end@?$vector@PAVOBNodeBase@OpenBabel@@V?$allocator@PAVOBNodeBase@OpenBabel@@@std@@@std@@QBEPBQAVOBNodeBase@OpenBabel@@XZ @ 686 NONAME ; public: class OpenBabel::OBNodeBase * const * __thiscall std::vector<class OpenBabel::OBNodeBase *,class std::allocator<class OpenBabel::OBNodeBase *> >::end(void)const 
 ?erase@?$vector@PAVOBNodeBase@OpenBabel@@V?$allocator@PAVOBNodeBase@OpenBabel@@@std@@@std@@QAEPAPAVOBNodeBase@OpenBabel@@PAPAV34@0@Z @ 687 NONAME ; public: class OpenBabel::OBNodeBase * * __thiscall std::vector<class OpenBabel::OBNodeBase *,class std::allocator<class OpenBabel::OBNodeBase *> >::erase(class OpenBabel::OBNodeBase * *,class OpenBabel::OBNodeBase * *)
 ?copy@std@@YAPAPAVOBNodeBase@OpenBabel@@PBQAV23@0PAPAV23@@Z @ 688 NONAME ; class OpenBabel::OBNodeBase * * __cdecl std::copy(class OpenBabel::OBNodeBase * const *,class OpenBabel::OBNodeBase * const *,class OpenBabel::OBNodeBase * *)
 ?copy@std@@YAPAPAVOBNodeBase@OpenBabel@@PAPAV23@00@Z @ 689 NONAME ; class OpenBabel::OBNodeBase * * __cdecl std::copy(class OpenBabel::OBNodeBase * *,class OpenBabel::OBNodeBase * *,class OpenBabel::OBNodeBase * *)
 ?GenerateByteCodes@OpenBabel@@YAXPAPAT_ByteCode@1@HHHH@Z @ 690 NONAME ; void __cdecl OpenBabel::GenerateByteCodes(union OpenBabel::_ByteCode * *,int,int,int,int)
 ??0OBChainsParser@OpenBabel@@QAE@XZ @ 691 NONAME ; public: __thiscall OpenBabel::OBChainsParser::OBChainsParser(void)
 ??1OBChainsParser@OpenBabel@@QAE@XZ @ 692 NONAME ; public: __thiscall OpenBabel::OBChainsParser::~OBChainsParser(void)
 ?SetupMol@OBChainsParser@OpenBabel@@AAEXAAVOBMol@2@@Z @ 693 NONAME ; private: void __thiscall OpenBabel::OBChainsParser::SetupMol(class OpenBabel::OBMol &)
 ?CleanupMol@OBChainsParser@OpenBabel@@AAEXXZ @ 694 NONAME ; private: void __thiscall OpenBabel::OBChainsParser::CleanupMol(void)
 ?ClearResidueInformation@OBChainsParser@OpenBabel@@AAEXAAVOBMol@2@@Z @ 695 NONAME ; private: void __thiscall OpenBabel::OBChainsParser::ClearResidueInformation(class OpenBabel::OBMol &)
 ?BeginResidue@OBMol@OpenBabel@@QAEPAVOBResidue@2@AAPAPAV32@@Z @ 696 NONAME ; public: class OpenBabel::OBResidue * __thiscall OpenBabel::OBMol::BeginResidue(class OpenBabel::OBResidue * * &)
 ?NextResidue@OBMol@OpenBabel@@QAEPAVOBResidue@2@AAPAPAV32@@Z @ 697 NONAME ; public: class OpenBabel::OBResidue * __thiscall OpenBabel::OBMol::NextResidue(class OpenBabel::OBResidue * * &)
 ?SetResidueInformation@OBChainsParser@OpenBabel@@AAEXAAVOBMol@2@@Z @ 698 NONAME ; private: void __thiscall OpenBabel::OBChainsParser::SetResidueInformation(class OpenBabel::OBMol &)
 ?NumResidues@OBMol@OpenBabel@@QBEIXZ @ 699 NONAME ; public: unsigned int __thiscall OpenBabel::OBMol::NumResidues(void)const 
 ??1?$map@FPAVOBResidue@OpenBabel@@U?$less@F@std@@V?$allocator@PAVOBResidue@OpenBabel@@@4@@std@@QAE@XZ @ 700 NONAME ; public: __thiscall std::map<short,class OpenBabel::OBResidue *,struct std::less<short>,class std::allocator<class OpenBabel::OBResidue *> >::~map<short,class OpenBabel::OBResidue *,struct std::less<short>,class std::allocator<class OpenBabel::OBResidue *> >(void)
 ?PerceiveChains@OBChainsParser@OpenBabel@@QAE_NAAVOBMol@2@@Z @ 701 NONAME ; public: bool __thiscall OpenBabel::OBChainsParser::PerceiveChains(class OpenBabel::OBMol &)
 ?DetermineHetAtoms@OBChainsParser@OpenBabel@@AAE_NAAVOBMol@2@@Z @ 702 NONAME ; private: bool __thiscall OpenBabel::OBChainsParser::DetermineHetAtoms(class OpenBabel::OBMol &)
 ?DetermineConnectedChains@OBChainsParser@OpenBabel@@AAE_NAAVOBMol@2@@Z @ 703 NONAME ; private: bool __thiscall OpenBabel::OBChainsParser::DetermineConnectedChains(class OpenBabel::OBMol &)
 ?RecurseChain@OBChainsParser@OpenBabel@@AAEHAAVOBMol@2@HH@Z @ 704 NONAME ; private: int __thiscall OpenBabel::OBChainsParser::RecurseChain(class OpenBabel::OBMol &,int,int)
 ?DeterminePeptideBackbone@OBChainsParser@OpenBabel@@AAE_NAAVOBMol@2@@Z @ 705 NONAME ; private: bool __thiscall OpenBabel::OBChainsParser::DeterminePeptideBackbone(class OpenBabel::OBMol &)
 ?ConstrainBackbone@OBChainsParser@OpenBabel@@AAEXAAVOBMol@2@PAUTemplate@2@H@Z @ 706 NONAME ; private: void __thiscall OpenBabel::OBChainsParser::ConstrainBackbone(class OpenBabel::OBMol &,struct OpenBabel::Template *,int)
 ?MatchConstraint@OBChainsParser@OpenBabel@@AAE_NPAVOBAtom@2@H@Z @ 707 NONAME ; private: bool __thiscall OpenBabel::OBChainsParser::MatchConstraint(class OpenBabel::OBAtom *,int)
 ?Match2Constraints@OBChainsParser@OpenBabel@@AAE_NPAUTemplate@2@PAVOBAtom@2@1@Z @ 708 NONAME ; private: bool __thiscall OpenBabel::OBChainsParser::Match2Constraints(struct OpenBabel::Template *,class OpenBabel::OBAtom *,class OpenBabel::OBAtom *)
 ?Match3Constraints@OBChainsParser@OpenBabel@@AAE_NPAUTemplate@2@PAVOBAtom@2@11@Z @ 709 NONAME ; private: bool __thiscall OpenBabel::OBChainsParser::Match3Constraints(struct OpenBabel::Template *,class OpenBabel::OBAtom *,class OpenBabel::OBAtom *,class OpenBabel::OBAtom *)
 ?Match4Constraints@OBChainsParser@OpenBabel@@AAE_NPAUTemplate@2@PAVOBAtom@2@111@Z @ 710 NONAME ; private: bool __thiscall OpenBabel::OBChainsParser::Match4Constraints(struct OpenBabel::Template *,class OpenBabel::OBAtom *,class OpenBabel::OBAtom *,class OpenBabel::OBAtom *,class OpenBabel::OBAtom *)
 ?TracePeptideChain@OBChainsParser@OpenBabel@@AAEXAAVOBMol@2@HH@Z @ 711 NONAME ; private: void __thiscall OpenBabel::OBChainsParser::TracePeptideChain(class OpenBabel::OBMol &,int,int)
 ?DeterminePeptideSidechains@OBChainsParser@OpenBabel@@AAE_NAAVOBMol@2@@Z @ 712 NONAME ; private: bool __thiscall OpenBabel::OBChainsParser::DeterminePeptideSidechains(class OpenBabel::OBMol &)
 ?AssignResidue@OBChainsParser@OpenBabel@@AAEXAAVOBMol@2@HHH@Z @ 713 NONAME ; private: void __thiscall OpenBabel::OBChainsParser::AssignResidue(class OpenBabel::OBMol &,int,int,int)
 ?IdentifyResidue@OBChainsParser@OpenBabel@@AAEHPAXAAVOBMol@2@HH@Z @ 714 NONAME ; private: int __thiscall OpenBabel::OBChainsParser::IdentifyResidue(void *,class OpenBabel::OBMol &,int,int)
 ?DetermineNucleicBackbone@OBChainsParser@OpenBabel@@AAE_NAAVOBMol@2@@Z @ 715 NONAME ; private: bool __thiscall OpenBabel::OBChainsParser::DetermineNucleicBackbone(class OpenBabel::OBMol &)
 ?TraceNucleicChain@OBChainsParser@OpenBabel@@AAEXAAVOBMol@2@HH@Z @ 716 NONAME ; private: void __thiscall OpenBabel::OBChainsParser::TraceNucleicChain(class OpenBabel::OBMol &,int,int)
 ?DetermineNucleicSidechains@OBChainsParser@OpenBabel@@AAE_NAAVOBMol@2@@Z @ 717 NONAME ; private: bool __thiscall OpenBabel::OBChainsParser::DetermineNucleicSidechains(class OpenBabel::OBMol &)
 ?DetermineHydrogens@OBChainsParser@OpenBabel@@AAE_NAAVOBMol@2@@Z @ 718 NONAME ; private: bool __thiscall OpenBabel::OBChainsParser::DetermineHydrogens(class OpenBabel::OBMol &)
 ?DefineMonomer@OBChainsParser@OpenBabel@@AAEXPAPAXHPAD@Z @ 719 NONAME ; private: void __thiscall OpenBabel::OBChainsParser::DefineMonomer(void * *,int,char *)
 ?IdentifyElement@OBChainsParser@OpenBabel@@AAEHPAD@Z @ 720 NONAME ; private: int __thiscall OpenBabel::OBChainsParser::IdentifyElement(char *)
 ?ParseSmiles@OBChainsParser@OpenBabel@@AAEPADPADH@Z @ 721 NONAME ; private: char * __thiscall OpenBabel::OBChainsParser::ParseSmiles(char *,int)
 ??0?$vector@PAVOBResidue@OpenBabel@@V?$allocator@PAVOBResidue@OpenBabel@@@std@@@std@@QAE@ABV?$allocator@PAVOBResidue@OpenBabel@@@1@@Z @ 722 NONAME ; public: __thiscall std::vector<class OpenBabel::OBResidue *,class std::allocator<class OpenBabel::OBResidue *> >::vector<class OpenBabel::OBResidue *,class std::allocator<class OpenBabel::OBResidue *> >(class std::allocator<class OpenBabel::OBResidue *> const &)
 ??1?$vector@PAVOBResidue@OpenBabel@@V?$allocator@PAVOBResidue@OpenBabel@@@std@@@std@@QAE@XZ @ 723 NONAME ; public: __thiscall std::vector<class OpenBabel::OBResidue *,class std::allocator<class OpenBabel::OBResidue *> >::~vector<class OpenBabel::OBResidue *,class std::allocator<class OpenBabel::OBResidue *> >(void)
 ?begin@?$vector@PAVOBResidue@OpenBabel@@V?$allocator@PAVOBResidue@OpenBabel@@@std@@@std@@QAEPAPAVOBResidue@OpenBabel@@XZ @ 724 NONAME ; public: class OpenBabel::OBResidue * * __thiscall std::vector<class OpenBabel::OBResidue *,class std::allocator<class OpenBabel::OBResidue *> >::begin(void)
 ?end@?$vector@PAVOBResidue@OpenBabel@@V?$allocator@PAVOBResidue@OpenBabel@@@std@@@std@@QAEPAPAVOBResidue@OpenBabel@@XZ @ 725 NONAME ; public: class OpenBabel::OBResidue * * __thiscall std::vector<class OpenBabel::OBResidue *,class std::allocator<class OpenBabel::OBResidue *> >::end(void)
 ?size@?$vector@PAVOBResidue@OpenBabel@@V?$allocator@PAVOBResidue@OpenBabel@@@std@@@std@@QBEIXZ @ 726 NONAME ; public: unsigned int __thiscall std::vector<class OpenBabel::OBResidue *,class std::allocator<class OpenBabel::OBResidue *> >::size(void)const 
 ??A?$vector@PAVOBResidue@OpenBabel@@V?$allocator@PAVOBResidue@OpenBabel@@@std@@@std@@QAEAAPAVOBResidue@OpenBabel@@I@Z @ 727 NONAME ; public: class OpenBabel::OBResidue * & __thiscall std::vector<class OpenBabel::OBResidue *,class std::allocator<class OpenBabel::OBResidue *> >::operator[](unsigned int)
 ?push_back@?$vector@PAVOBResidue@OpenBabel@@V?$allocator@PAVOBResidue@OpenBabel@@@std@@@std@@QAEXABQAVOBResidue@OpenBabel@@@Z @ 728 NONAME ; public: void __thiscall std::vector<class OpenBabel::OBResidue *,class std::allocator<class OpenBabel::OBResidue *> >::push_back(class OpenBabel::OBResidue * const &)
 ?clear@?$vector@PAVOBResidue@OpenBabel@@V?$allocator@PAVOBResidue@OpenBabel@@@std@@@std@@QAEXXZ @ 729 NONAME ; public: void __thiscall std::vector<class OpenBabel::OBResidue *,class std::allocator<class OpenBabel::OBResidue *> >::clear(void)
 ??0?$map@FPAVOBResidue@OpenBabel@@U?$less@F@std@@V?$allocator@PAVOBResidue@OpenBabel@@@4@@std@@QAE@ABU?$less@F@1@ABV?$allocator@PAVOBResidue@OpenBabel@@@1@@Z @ 730 NONAME ; public: __thiscall std::map<short,class OpenBabel::OBResidue *,struct std::less<short>,class std::allocator<class OpenBabel::OBResidue *> >::map<short,class OpenBabel::OBResidue *,struct std::less<short>,class std::allocator<class OpenBabel::OBResidue *> >(struct std::less<short> const &,class std::allocator<class OpenBabel::OBResidue *> const &)
 ?end@?$map@FPAVOBResidue@OpenBabel@@U?$less@F@std@@V?$allocator@PAVOBResidue@OpenBabel@@@4@@std@@QAE?AViterator@?$_Tree@FU?$pair@$$CBFPAVOBResidue@OpenBabel@@@std@@U_Kfn@?$map@FPAVOBResidue@OpenBabel@@U?$less@F@std@@V?$allocator@PAVOBResidue@OpenBabel@@@4@@2@U?$less@F@2@V?$allocator@PAVOBResidue@OpenBabel@@@2@@2@XZ @ 731 NONAME ; public: class std::_Tree<short,struct std::pair<short const ,class OpenBabel::OBResidue *>,struct std::map<short,class OpenBabel::OBResidue *,struct std::less<short>,class std::allocator<class OpenBabel::OBResidue *> >::_Kfn,struct std::less<short>,class std::allocator<class OpenBabel::OBResidue *> >::iterator __thiscall std::map<short,class OpenBabel::OBResidue *,struct std::less<short>,class std::allocator<class OpenBabel::OBResidue *> >::end(void)
 ??A?$map@FPAVOBResidue@OpenBabel@@U?$less@F@std@@V?$allocator@PAVOBResidue@OpenBabel@@@4@@std@@QAEAAPAVOBResidue@OpenBabel@@ABF@Z @ 732 NONAME ; public: class OpenBabel::OBResidue * & __thiscall std::map<short,class OpenBabel::OBResidue *,struct std::less<short>,class std::allocator<class OpenBabel::OBResidue *> >::operator[](short const &)
 ?find@?$map@FPAVOBResidue@OpenBabel@@U?$less@F@std@@V?$allocator@PAVOBResidue@OpenBabel@@@4@@std@@QAE?AViterator@?$_Tree@FU?$pair@$$CBFPAVOBResidue@OpenBabel@@@std@@U_Kfn@?$map@FPAVOBResidue@OpenBabel@@U?$less@F@std@@V?$allocator@PAVOBResidue@OpenBabel@@@4@@2@U?$less@F@2@V?$allocator@PAVOBResidue@OpenBabel@@@2@@2@ABF@Z @ 733 NONAME ; public: class std::_Tree<short,struct std::pair<short const ,class OpenBabel::OBResidue *>,struct std::map<short,class OpenBabel::OBResidue *,struct std::less<short>,class std::allocator<class OpenBabel::OBResidue *> >::_Kfn,struct std::less<short>,class std::allocator<class OpenBabel::OBResidue *> >::iterator __thiscall std::map<short,class OpenBabel::OBResidue *,struct std::less<short>,class std::allocator<class OpenBabel::OBResidue *> >::find(short const &)
 ??1?$_Tree@FU?$pair@$$CBFPAVOBResidue@OpenBabel@@@std@@U_Kfn@?$map@FPAVOBResidue@OpenBabel@@U?$less@F@std@@V?$allocator@PAVOBResidue@OpenBabel@@@4@@2@U?$less@F@2@V?$allocator@PAVOBResidue@OpenBabel@@@2@@std@@QAE@XZ @ 734 NONAME ; public: __thiscall std::_Tree<short,struct std::pair<short const ,class OpenBabel::OBResidue *>,struct std::map<short,class OpenBabel::OBResidue *,struct std::less<short>,class std::allocator<class OpenBabel::OBResidue *> >::_Kfn,struct std::less<short>,class std::allocator<class OpenBabel::OBResidue *> >::~_Tree<short,struct std::pair<short const ,class OpenBabel::OBResidue *>,struct std::map<short,class OpenBabel::OBResidue *,struct std::less<short>,class std::allocator<class OpenBabel::OBResidue *> >::_
 ??9iterator@?$_Tree@FU?$pair@$$CBFPAVOBResidue@OpenBabel@@@std@@U_Kfn@?$map@FPAVOBResidue@OpenBabel@@U?$less@F@std@@V?$allocator@PAVOBResidue@OpenBabel@@@4@@2@U?$less@F@2@V?$allocator@PAVOBResidue@OpenBabel@@@2@@std@@QBE_NABV012@@Z @ 735 NONAME ; public: bool __thiscall std::_Tree<short,struct std::pair<short const ,class OpenBabel::OBResidue *>,struct std::map<short,class OpenBabel::OBResidue *,struct std::less<short>,class std::allocator<class OpenBabel::OBResidue *> >::_Kfn,struct std::less<short>,class std::allocator<class OpenBabel::OBResidue *> >::iterator::operator!=(class std::_Tree<short,struct std::pair<short const ,class OpenBabel::OBResidue *>,struct std::map<short,class OpenBabel::OBResidue *,struct std::less<short>,class std::allocato
 ?insert@?$vector@PAVOBResidue@OpenBabel@@V?$allocator@PAVOBResidue@OpenBabel@@@std@@@std@@QAEPAPAVOBResidue@OpenBabel@@PAPAV34@ABQAV34@@Z @ 736 NONAME ; public: class OpenBabel::OBResidue * * __thiscall std::vector<class OpenBabel::OBResidue *,class std::allocator<class OpenBabel::OBResidue *> >::insert(class OpenBabel::OBResidue * *,class OpenBabel::OBResidue * const &)
 ?erase@?$vector@PAVOBResidue@OpenBabel@@V?$allocator@PAVOBResidue@OpenBabel@@@std@@@std@@QAEPAPAVOBResidue@OpenBabel@@PAPAV34@0@Z @ 737 NONAME ; public: class OpenBabel::OBResidue * * __thiscall std::vector<class OpenBabel::OBResidue *,class std::allocator<class OpenBabel::OBResidue *> >::erase(class OpenBabel::OBResidue * *,class OpenBabel::OBResidue * *)
 ?_Destroy@?$vector@PAVOBResidue@OpenBabel@@V?$allocator@PAVOBResidue@OpenBabel@@@std@@@std@@IAEXPAPAVOBResidue@OpenBabel@@0@Z @ 738 NONAME ; protected: void __thiscall std::vector<class OpenBabel::OBResidue *,class std::allocator<class OpenBabel::OBResidue *> >::_Destroy(class OpenBabel::OBResidue * *,class OpenBabel::OBResidue * *)
 ?deallocate@?$allocator@PAVOBResidue@OpenBabel@@@std@@QAEXPAXI@Z @ 739 NONAME ; public: void __thiscall std::allocator<class OpenBabel::OBResidue *>::deallocate(void *,unsigned int)
 ?insert@?$map@FPAVOBResidue@OpenBabel@@U?$less@F@std@@V?$allocator@PAVOBResidue@OpenBabel@@@4@@std@@QAE?AU?$pair@Viterator@?$_Tree@FU?$pair@$$CBFPAVOBResidue@OpenBabel@@@std@@U_Kfn@?$map@FPAVOBResidue@OpenBabel@@U?$less@F@std@@V?$allocator@PAVOBResidue@OpenBabel@@@4@@2@U?$less@F@2@V?$allocator@PAVOBResidue@OpenBabel@@@2@@std@@_N@2@ABU?$pair@$$CBFPAVOBResidue@OpenBabel@@@2@@Z @ 740 NONAME ; public: struct std::pair<class std::_Tree<short,struct std::pair<short const ,class OpenBabel::OBResidue *>,struct std::map<short,class OpenBabel::OBResidue *,struct std::less<short>,class std::allocator<class OpenBabel::OBResidue *> >::_Kfn,struct std::less<short>,class std::allocator<class OpenBabel::OBResidue *> >::iterator,bool> __thiscall std::map<short,class OpenBabel::OBResidue *,struct std::less<short>,class std::allocator<class OpenBabel::OBResidue *> >::insert(struct std::pair<short const ,class
 ??0?$_Tree@FU?$pair@$$CBFPAVOBResidue@OpenBabel@@@std@@U_Kfn@?$map@FPAVOBResidue@OpenBabel@@U?$less@F@std@@V?$allocator@PAVOBResidue@OpenBabel@@@4@@2@U?$less@F@2@V?$allocator@PAVOBResidue@OpenBabel@@@2@@std@@QAE@ABU?$less@F@1@_NABV?$allocator@PAVOBResidue@OpenBabel@@@1@@Z @ 741 NONAME ; public: __thiscall std::_Tree<short,struct std::pair<short const ,class OpenBabel::OBResidue *>,struct std::map<short,class OpenBabel::OBResidue *,struct std::less<short>,class std::allocator<class OpenBabel::OBResidue *> >::_Kfn,struct std::less<short>,class std::allocator<class OpenBabel::OBResidue *> >::_Tree<short,struct std::pair<short const ,class OpenBabel::OBResidue *>,struct std::map<short,class OpenBabel::OBResidue *,struct std::less<short>,class std::allocator<class OpenBabel::OBResidue *> >::_K
 ?begin@?$_Tree@FU?$pair@$$CBFPAVOBResidue@OpenBabel@@@std@@U_Kfn@?$map@FPAVOBResidue@OpenBabel@@U?$less@F@std@@V?$allocator@PAVOBResidue@OpenBabel@@@4@@2@U?$less@F@2@V?$allocator@PAVOBResidue@OpenBabel@@@2@@std@@QAE?AViterator@12@XZ @ 742 NONAME ; public: class std::_Tree<short,struct std::pair<short const ,class OpenBabel::OBResidue *>,struct std::map<short,class OpenBabel::OBResidue *,struct std::less<short>,class std::allocator<class OpenBabel::OBResidue *> >::_Kfn,struct std::less<short>,class std::allocator<class OpenBabel::OBResidue *> >::iterator __thiscall std::_Tree<short,struct std::pair<short const ,class OpenBabel::OBResidue *>,struct std::map<short,class OpenBabel::OBResidue *,struct std::less<short>,class std::allocator<class OpenBabe
 ?end@?$_Tree@FU?$pair@$$CBFPAVOBResidue@OpenBabel@@@std@@U_Kfn@?$map@FPAVOBResidue@OpenBabel@@U?$less@F@std@@V?$allocator@PAVOBResidue@OpenBabel@@@4@@2@U?$less@F@2@V?$allocator@PAVOBResidue@OpenBabel@@@2@@std@@QAE?AViterator@12@XZ @ 743 NONAME ; public: class std::_Tree<short,struct std::pair<short const ,class OpenBabel::OBResidue *>,struct std::map<short,class OpenBabel::OBResidue *,struct std::less<short>,class std::allocator<class OpenBabel::OBResidue *> >::_Kfn,struct std::less<short>,class std::allocator<class OpenBabel::OBResidue *> >::iterator __thiscall std::_Tree<short,struct std::pair<short const ,class OpenBabel::OBResidue *>,struct std::map<short,class OpenBabel::OBResidue *,struct std::less<short>,class std::allocator<class OpenBabe
 ?erase@?$_Tree@FU?$pair@$$CBFPAVOBResidue@OpenBabel@@@std@@U_Kfn@?$map@FPAVOBResidue@OpenBabel@@U?$less@F@std@@V?$allocator@PAVOBResidue@OpenBabel@@@4@@2@U?$less@F@2@V?$allocator@PAVOBResidue@OpenBabel@@@2@@std@@QAE?AViterator@12@V312@0@Z @ 744 NONAME ; public: class std::_Tree<short,struct std::pair<short const ,class OpenBabel::OBResidue *>,struct std::map<short,class OpenBabel::OBResidue *,struct std::less<short>,class std::allocator<class OpenBabel::OBResidue *> >::_Kfn,struct std::less<short>,class std::allocator<class OpenBabel::OBResidue *> >::iterator __thiscall std::_Tree<short,struct std::pair<short const ,class OpenBabel::OBResidue *>,struct std::map<short,class OpenBabel::OBResidue *,struct std::less<short>,class std::allocator<class OpenBabe
 ?find@?$_Tree@FU?$pair@$$CBFPAVOBResidue@OpenBabel@@@std@@U_Kfn@?$map@FPAVOBResidue@OpenBabel@@U?$less@F@std@@V?$allocator@PAVOBResidue@OpenBabel@@@4@@2@U?$less@F@2@V?$allocator@PAVOBResidue@OpenBabel@@@2@@std@@QAE?AViterator@12@ABF@Z @ 745 NONAME ; public: class std::_Tree<short,struct std::pair<short const ,class OpenBabel::OBResidue *>,struct std::map<short,class OpenBabel::OBResidue *,struct std::less<short>,class std::allocator<class OpenBabel::OBResidue *> >::_Kfn,struct std::less<short>,class std::allocator<class OpenBabel::OBResidue *> >::iterator __thiscall std::_Tree<short,struct std::pair<short const ,class OpenBabel::OBResidue *>,struct std::map<short,class OpenBabel::OBResidue *,struct std::less<short>,class std::allocator<class OpenBabe
 ?_Freenode@?$_Tree@FU?$pair@$$CBFPAVOBResidue@OpenBabel@@@std@@U_Kfn@?$map@FPAVOBResidue@OpenBabel@@U?$less@F@std@@V?$allocator@PAVOBResidue@OpenBabel@@@4@@2@U?$less@F@2@V?$allocator@PAVOBResidue@OpenBabel@@@2@@std@@IAEXPAU_Node@12@@Z @ 746 NONAME ; protected: void __thiscall std::_Tree<short,struct std::pair<short const ,class OpenBabel::OBResidue *>,struct std::map<short,class OpenBabel::OBResidue *,struct std::less<short>,class std::allocator<class OpenBabel::OBResidue *> >::_Kfn,struct std::less<short>,class std::allocator<class OpenBabel::OBResidue *> >::_Freenode(struct std::_Tree<short,struct std::pair<short const ,class OpenBabel::OBResidue *>,struct std::map<short,class OpenBabel::OBResidue *,struct std::less<short>,class std::allocator<class
 ??0?$pair@$$CBFPAVOBResidue@OpenBabel@@@std@@QAE@ABFABQAVOBResidue@OpenBabel@@@Z @ 747 NONAME ; public: __thiscall std::pair<short const ,class OpenBabel::OBResidue *>::pair<short const ,class OpenBabel::OBResidue *>(short const &,class OpenBabel::OBResidue * const &)
 ??Diterator@?$_Tree@FU?$pair@$$CBFPAVOBResidue@OpenBabel@@@std@@U_Kfn@?$map@FPAVOBResidue@OpenBabel@@U?$less@F@std@@V?$allocator@PAVOBResidue@OpenBabel@@@4@@2@U?$less@F@2@V?$allocator@PAVOBResidue@OpenBabel@@@2@@std@@QBEAAU?$pair@$$CBFPAVOBResidue@OpenBabel@@@2@XZ @ 748 NONAME ; public: struct std::pair<short const ,class OpenBabel::OBResidue *> & __thiscall std::_Tree<short,struct std::pair<short const ,class OpenBabel::OBResidue *>,struct std::map<short,class OpenBabel::OBResidue *,struct std::less<short>,class std::allocator<class OpenBabel::OBResidue *> >::_Kfn,struct std::less<short>,class std::allocator<class OpenBabel::OBResidue *> >::iterator::operator*(void)const 
 ??8iterator@?$_Tree@FU?$pair@$$CBFPAVOBResidue@OpenBabel@@@std@@U_Kfn@?$map@FPAVOBResidue@OpenBabel@@U?$less@F@std@@V?$allocator@PAVOBResidue@OpenBabel@@@4@@2@U?$less@F@2@V?$allocator@PAVOBResidue@OpenBabel@@@2@@std@@QBE_NABV012@@Z @ 749 NONAME ; public: bool __thiscall std::_Tree<short,struct std::pair<short const ,class OpenBabel::OBResidue *>,struct std::map<short,class OpenBabel::OBResidue *,struct std::less<short>,class std::allocator<class OpenBabel::OBResidue *> >::_Kfn,struct std::less<short>,class std::allocator<class OpenBabel::OBResidue *> >::iterator::operator==(class std::_Tree<short,struct std::pair<short const ,class OpenBabel::OBResidue *>,struct std::map<short,class OpenBabel::OBResidue *,struct std::less<short>,class std::allocato
 ?insert@?$vector@PAVOBResidue@OpenBabel@@V?$allocator@PAVOBResidue@OpenBabel@@@std@@@std@@QAEXPAPAVOBResidue@OpenBabel@@IABQAV34@@Z @ 750 NONAME ; public: void __thiscall std::vector<class OpenBabel::OBResidue *,class std::allocator<class OpenBabel::OBResidue *> >::insert(class OpenBabel::OBResidue * *,unsigned int,class OpenBabel::OBResidue * const &)
 ?destroy@?$allocator@PAVOBResidue@OpenBabel@@@std@@QAEXPAPAVOBResidue@OpenBabel@@@Z @ 751 NONAME ; public: void __thiscall std::allocator<class OpenBabel::OBResidue *>::destroy(class OpenBabel::OBResidue * *)
 ??R?$less@F@std@@QBE_NABF0@Z @ 752 NONAME ; public: bool __thiscall std::less<short>::operator()(short const &,short const &)const 
 ?_Key@?$_Tree@FU?$pair@$$CBFPAVOBResidue@OpenBabel@@@std@@U_Kfn@?$map@FPAVOBResidue@OpenBabel@@U?$less@F@std@@V?$allocator@PAVOBResidue@OpenBabel@@@4@@2@U?$less@F@2@V?$allocator@PAVOBResidue@OpenBabel@@@2@@std@@KAABFPAU_Node@12@@Z @ 753 NONAME ; protected: static short const & __cdecl std::_Tree<short,struct std::pair<short const ,class OpenBabel::OBResidue *>,struct std::map<short,class OpenBabel::OBResidue *,struct std::less<short>,class std::allocator<class OpenBabel::OBResidue *> >::_Kfn,struct std::less<short>,class std::allocator<class OpenBabel::OBResidue *> >::_Key(struct std::_Tree<short,struct std::pair<short const ,class OpenBabel::OBResidue *>,struct std::map<short,class OpenBabel::OBResidue *,struct std::less<short>,class std::allocat
 ?_Value@?$_Tree@FU?$pair@$$CBFPAVOBResidue@OpenBabel@@@std@@U_Kfn@?$map@FPAVOBResidue@OpenBabel@@U?$less@F@std@@V?$allocator@PAVOBResidue@OpenBabel@@@4@@2@U?$less@F@2@V?$allocator@PAVOBResidue@OpenBabel@@@2@@std@@KAAAU?$pair@$$CBFPAVOBResidue@OpenBabel@@@2@PAU_Node@12@@Z @ 754 NONAME ; protected: static struct std::pair<short const ,class OpenBabel::OBResidue *> & __cdecl std::_Tree<short,struct std::pair<short const ,class OpenBabel::OBResidue *>,struct std::map<short,class OpenBabel::OBResidue *,struct std::less<short>,class std::allocator<class OpenBabel::OBResidue *> >::_Kfn,struct std::less<short>,class std::allocator<class OpenBabel::OBResidue *> >::_Value(struct std::_Tree<short,struct std::pair<short const ,class OpenBabel::OBResidue *>,struct std::map<short,class OpenBabel::OBRe
 ?size@?$_Tree@FU?$pair@$$CBFPAVOBResidue@OpenBabel@@@std@@U_Kfn@?$map@FPAVOBResidue@OpenBabel@@U?$less@F@std@@V?$allocator@PAVOBResidue@OpenBabel@@@4@@2@U?$less@F@2@V?$allocator@PAVOBResidue@OpenBabel@@@2@@std@@QBEIXZ @ 755 NONAME ; public: unsigned int __thiscall std::_Tree<short,struct std::pair<short const ,class OpenBabel::OBResidue *>,struct std::map<short,class OpenBabel::OBResidue *,struct std::less<short>,class std::allocator<class OpenBabel::OBResidue *> >::_Kfn,struct std::less<short>,class std::allocator<class OpenBabel::OBResidue *> >::size(void)const 
 ?insert@?$_Tree@FU?$pair@$$CBFPAVOBResidue@OpenBabel@@@std@@U_Kfn@?$map@FPAVOBResidue@OpenBabel@@U?$less@F@std@@V?$allocator@PAVOBResidue@OpenBabel@@@4@@2@U?$less@F@2@V?$allocator@PAVOBResidue@OpenBabel@@@2@@std@@QAE?AU?$pair@Viterator@?$_Tree@FU?$pair@$$CBFPAVOBResidue@OpenBabel@@@std@@U_Kfn@?$map@FPAVOBResidue@OpenBabel@@U?$less@F@std@@V?$allocator@PAVOBResidue@OpenBabel@@@4@@2@U?$less@F@2@V?$allocator@PAVOBResidue@OpenBabel@@@2@@std@@_N@2@ABU?$pair@$$CBFPAVOBResidue@OpenBabel@@@2@@Z @ 756 NONAME ; public: struct std::pair<class std::_Tree<short,struct std::pair<short const ,class OpenBabel::OBResidue *>,struct std::map<short,class OpenBabel::OBResidue *,struct std::less<short>,class std::allocator<class OpenBabel::OBResidue *> >::_Kfn,struct std::less<short>,class std::allocator<class OpenBabel::OBResidue *> >::iterator,bool> __thiscall std::_Tree<short,struct std::pair<short const ,class OpenBabel::OBResidue *>,struct std::map<short,class OpenBabel::OBResidue *,struct std::less<short>,class std::a
 ?erase@?$_Tree@FU?$pair@$$CBFPAVOBResidue@OpenBabel@@@std@@U_Kfn@?$map@FPAVOBResidue@OpenBabel@@U?$less@F@std@@V?$allocator@PAVOBResidue@OpenBabel@@@4@@2@U?$less@F@2@V?$allocator@PAVOBResidue@OpenBabel@@@2@@std@@QAE?AViterator@12@V312@@Z @ 757 NONAME ; public: class std::_Tree<short,struct std::pair<short const ,class OpenBabel::OBResidue *>,struct std::map<short,class OpenBabel::OBResidue *,struct std::less<short>,class std::allocator<class OpenBabel::OBResidue *> >::_Kfn,struct std::less<short>,class std::allocator<class OpenBabel::OBResidue *> >::iterator __thiscall std::_Tree<short,struct std::pair<short const ,class OpenBabel::OBResidue *>,struct std::map<short,class OpenBabel::OBResidue *,struct std::less<short>,class std::allocator<class OpenBabe
 ?lower_bound@?$_Tree@FU?$pair@$$CBFPAVOBResidue@OpenBabel@@@std@@U_Kfn@?$map@FPAVOBResidue@OpenBabel@@U?$less@F@std@@V?$allocator@PAVOBResidue@OpenBabel@@@4@@2@U?$less@F@2@V?$allocator@PAVOBResidue@OpenBabel@@@2@@std@@QAE?AViterator@12@ABF@Z @ 758 NONAME ; public: class std::_Tree<short,struct std::pair<short const ,class OpenBabel::OBResidue *>,struct std::map<short,class OpenBabel::OBResidue *,struct std::less<short>,class std::allocator<class OpenBabel::OBResidue *> >::_Kfn,struct std::less<short>,class std::allocator<class OpenBabel::OBResidue *> >::iterator __thiscall std::_Tree<short,struct std::pair<short const ,class OpenBabel::OBResidue *>,struct std::map<short,class OpenBabel::OBResidue *,struct std::less<short>,class std::allocator<class OpenBabe
 ?_Erase@?$_Tree@FU?$pair@$$CBFPAVOBResidue@OpenBabel@@@std@@U_Kfn@?$map@FPAVOBResidue@OpenBabel@@U?$less@F@std@@V?$allocator@PAVOBResidue@OpenBabel@@@4@@2@U?$less@F@2@V?$allocator@PAVOBResidue@OpenBabel@@@2@@std@@IAEXPAU_Node@12@@Z @ 759 NONAME ; protected: void __thiscall std::_Tree<short,struct std::pair<short const ,class OpenBabel::OBResidue *>,struct std::map<short,class OpenBabel::OBResidue *,struct std::less<short>,class std::allocator<class OpenBabel::OBResidue *> >::_Kfn,struct std::less<short>,class std::allocator<class OpenBabel::OBResidue *> >::_Erase(struct std::_Tree<short,struct std::pair<short const ,class OpenBabel::OBResidue *>,struct std::map<short,class OpenBabel::OBResidue *,struct std::less<short>,class std::allocator<class Op
 ?_Init@?$_Tree@FU?$pair@$$CBFPAVOBResidue@OpenBabel@@@std@@U_Kfn@?$map@FPAVOBResidue@OpenBabel@@U?$less@F@std@@V?$allocator@PAVOBResidue@OpenBabel@@@4@@2@U?$less@F@2@V?$allocator@PAVOBResidue@OpenBabel@@@2@@std@@IAEXXZ @ 760 NONAME ; protected: void __thiscall std::_Tree<short,struct std::pair<short const ,class OpenBabel::OBResidue *>,struct std::map<short,class OpenBabel::OBResidue *,struct std::less<short>,class std::allocator<class OpenBabel::OBResidue *> >::_Kfn,struct std::less<short>,class std::allocator<class OpenBabel::OBResidue *> >::_Init(void)
 ?_Lmost@?$_Tree@FU?$pair@$$CBFPAVOBResidue@OpenBabel@@@std@@U_Kfn@?$map@FPAVOBResidue@OpenBabel@@U?$less@F@std@@V?$allocator@PAVOBResidue@OpenBabel@@@4@@2@U?$less@F@2@V?$allocator@PAVOBResidue@OpenBabel@@@2@@std@@IAEAAPAU_Node@12@XZ @ 761 NONAME ; protected: struct std::_Tree<short,struct std::pair<short const ,class OpenBabel::OBResidue *>,struct std::map<short,class OpenBabel::OBResidue *,struct std::less<short>,class std::allocator<class OpenBabel::OBResidue *> >::_Kfn,struct std::less<short>,class std::allocator<class OpenBabel::OBResidue *> >::_Node * & __thiscall std::_Tree<short,struct std::pair<short const ,class OpenBabel::OBResidue *>,struct std::map<short,class OpenBabel::OBResidue *,struct std::less<short>,class std::allocator<class Open
 ?_Rmost@?$_Tree@FU?$pair@$$CBFPAVOBResidue@OpenBabel@@@std@@U_Kfn@?$map@FPAVOBResidue@OpenBabel@@U?$less@F@std@@V?$allocator@PAVOBResidue@OpenBabel@@@4@@2@U?$less@F@2@V?$allocator@PAVOBResidue@OpenBabel@@@2@@std@@IAEAAPAU_Node@12@XZ @ 762 NONAME ; protected: struct std::_Tree<short,struct std::pair<short const ,class OpenBabel::OBResidue *>,struct std::map<short,class OpenBabel::OBResidue *,struct std::less<short>,class std::allocator<class OpenBabel::OBResidue *> >::_Kfn,struct std::less<short>,class std::allocator<class OpenBabel::OBResidue *> >::_Node * & __thiscall std::_Tree<short,struct std::pair<short const ,class OpenBabel::OBResidue *>,struct std::map<short,class OpenBabel::OBResidue *,struct std::less<short>,class std::allocator<class Open
 ?_Root@?$_Tree@FU?$pair@$$CBFPAVOBResidue@OpenBabel@@@std@@U_Kfn@?$map@FPAVOBResidue@OpenBabel@@U?$less@F@std@@V?$allocator@PAVOBResidue@OpenBabel@@@4@@2@U?$less@F@2@V?$allocator@PAVOBResidue@OpenBabel@@@2@@std@@IAEAAPAU_Node@12@XZ @ 763 NONAME ; protected: struct std::_Tree<short,struct std::pair<short const ,class OpenBabel::OBResidue *>,struct std::map<short,class OpenBabel::OBResidue *,struct std::less<short>,class std::allocator<class OpenBabel::OBResidue *> >::_Kfn,struct std::less<short>,class std::allocator<class OpenBabel::OBResidue *> >::_Node * & __thiscall std::_Tree<short,struct std::pair<short const ,class OpenBabel::OBResidue *>,struct std::map<short,class OpenBabel::OBResidue *,struct std::less<short>,class std::allocator<class Open
 ?_Mynode@const_iterator@?$_Tree@FU?$pair@$$CBFPAVOBResidue@OpenBabel@@@std@@U_Kfn@?$map@FPAVOBResidue@OpenBabel@@U?$less@F@std@@V?$allocator@PAVOBResidue@OpenBabel@@@4@@2@U?$less@F@2@V?$allocator@PAVOBResidue@OpenBabel@@@2@@std@@QBEPAU_Node@23@XZ @ 764 NONAME ; public: struct std::_Tree<short,struct std::pair<short const ,class OpenBabel::OBResidue *>,struct std::map<short,class OpenBabel::OBResidue *,struct std::less<short>,class std::allocator<class OpenBabel::OBResidue *> >::_Kfn,struct std::less<short>,class std::allocator<class OpenBabel::OBResidue *> >::_Node * __thiscall std::_Tree<short,struct std::pair<short const ,class OpenBabel::OBResidue *>,struct std::map<short,class OpenBabel::OBResidue *,struct std::less<short>,class std::allocator<class OpenBabel
 ??0iterator@?$_Tree@FU?$pair@$$CBFPAVOBResidue@OpenBabel@@@std@@U_Kfn@?$map@FPAVOBResidue@OpenBabel@@U?$less@F@std@@V?$allocator@PAVOBResidue@OpenBabel@@@4@@2@U?$less@F@2@V?$allocator@PAVOBResidue@OpenBabel@@@2@@std@@QAE@PAU_Node@12@@Z @ 765 NONAME ; public: __thiscall std::_Tree<short,struct std::pair<short const ,class OpenBabel::OBResidue *>,struct std::map<short,class OpenBabel::OBResidue *,struct std::less<short>,class std::allocator<class OpenBabel::OBResidue *> >::_Kfn,struct std::less<short>,class std::allocator<class OpenBabel::OBResidue *> >::iterator::iterator(struct std::_Tree<short,struct std::pair<short const ,class OpenBabel::OBResidue *>,struct std::map<short,class OpenBabel::OBResidue *,struct std::less<short>,class std::allocator<clas
 ??Eiterator@?$_Tree@FU?$pair@$$CBFPAVOBResidue@OpenBabel@@@std@@U_Kfn@?$map@FPAVOBResidue@OpenBabel@@U?$less@F@std@@V?$allocator@PAVOBResidue@OpenBabel@@@4@@2@U?$less@F@2@V?$allocator@PAVOBResidue@OpenBabel@@@2@@std@@QAE?AV012@H@Z @ 766 NONAME ; public: class std::_Tree<short,struct std::pair<short const ,class OpenBabel::OBResidue *>,struct std::map<short,class OpenBabel::OBResidue *,struct std::less<short>,class std::allocator<class OpenBabel::OBResidue *> >::_Kfn,struct std::less<short>,class std::allocator<class OpenBabel::OBResidue *> >::iterator __thiscall std::_Tree<short,struct std::pair<short const ,class OpenBabel::OBResidue *>,struct std::map<short,class OpenBabel::OBResidue *,struct std::less<short>,class std::allocator<class OpenBabe
 ??0?$pair@Viterator@?$_Tree@FU?$pair@$$CBFPAVOBResidue@OpenBabel@@@std@@U_Kfn@?$map@FPAVOBResidue@OpenBabel@@U?$less@F@std@@V?$allocator@PAVOBResidue@OpenBabel@@@4@@2@U?$less@F@2@V?$allocator@PAVOBResidue@OpenBabel@@@2@@std@@_N@std@@QAE@ABViterator@?$_Tree@FU?$pair@$$CBFPAVOBResidue@OpenBabel@@@std@@U_Kfn@?$map@FPAVOBResidue@OpenBabel@@U?$less@F@std@@V?$allocator@PAVOBResidue@OpenBabel@@@4@@2@U?$less@F@2@V?$allocator@PAVOBResidue@OpenBabel@@@2@@1@AB_N@Z @ 767 NONAME ; public: __thiscall std::pair<class std::_Tree<short,struct std::pair<short const ,class OpenBabel::OBResidue *>,struct std::map<short,class OpenBabel::OBResidue *,struct std::less<short>,class std::allocator<class OpenBabel::OBResidue *> >::_Kfn,struct std::less<short>,class std::allocator<class OpenBabel::OBResidue *> >::iterator,bool>::pair<class std::_Tree<short,struct std::pair<short const ,class OpenBabel::OBResidue *>,struct std::map<short,class OpenBabel::OBResidue *,struct std::less<short>,class st
 ?_Ucopy@?$vector@PAVOBResidue@OpenBabel@@V?$allocator@PAVOBResidue@OpenBabel@@@std@@@std@@IAEPAPAVOBResidue@OpenBabel@@PBQAV34@0PAPAV34@@Z @ 768 NONAME ; protected: class OpenBabel::OBResidue * * __thiscall std::vector<class OpenBabel::OBResidue *,class std::allocator<class OpenBabel::OBResidue *> >::_Ucopy(class OpenBabel::OBResidue * const *,class OpenBabel::OBResidue * const *,class OpenBabel::OBResidue * *)
 ?_Ufill@?$vector@PAVOBResidue@OpenBabel@@V?$allocator@PAVOBResidue@OpenBabel@@@std@@@std@@IAEXPAPAVOBResidue@OpenBabel@@IABQAV34@@Z @ 769 NONAME ; protected: void __thiscall std::vector<class OpenBabel::OBResidue *,class std::allocator<class OpenBabel::OBResidue *> >::_Ufill(class OpenBabel::OBResidue * *,unsigned int,class OpenBabel::OBResidue * const &)
 ?allocate@?$allocator@PAVOBResidue@OpenBabel@@@std@@QAEPAPAVOBResidue@OpenBabel@@IPBX@Z @ 770 NONAME ; public: class OpenBabel::OBResidue * * __thiscall std::allocator<class OpenBabel::OBResidue *>::allocate(unsigned int,void const *)
 ??R_Kfn@?$map@FPAVOBResidue@OpenBabel@@U?$less@F@std@@V?$allocator@PAVOBResidue@OpenBabel@@@4@@std@@QBEABFABU?$pair@$$CBFPAVOBResidue@OpenBabel@@@2@@Z @ 771 NONAME ; public: short const & __thiscall std::map<short,class OpenBabel::OBResidue *,struct std::less<short>,class std::allocator<class OpenBabel::OBResidue *> >::_Kfn::operator()(struct std::pair<short const ,class OpenBabel::OBResidue *> const &)const 
 ?_Color@?$_Tree@FU?$pair@$$CBFPAVOBResidue@OpenBabel@@@std@@U_Kfn@?$map@FPAVOBResidue@OpenBabel@@U?$less@F@std@@V?$allocator@PAVOBResidue@OpenBabel@@@4@@2@U?$less@F@2@V?$allocator@PAVOBResidue@OpenBabel@@@2@@std@@KAAAW4_Redbl@12@PAU_Node@12@@Z @ 772 NONAME ; protected: static enum std::_Tree<short,struct std::pair<short const ,class OpenBabel::OBResidue *>,struct std::map<short,class OpenBabel::OBResidue *,struct std::less<short>,class std::allocator<class OpenBabel::OBResidue *> >::_Kfn,struct std::less<short>,class std::allocator<class OpenBabel::OBResidue *> >::_Redbl & __cdecl std::_Tree<short,struct std::pair<short const ,class OpenBabel::OBResidue *>,struct std::map<short,class OpenBabel::OBResidue *,struct std::less<short>,class std::allocator<class Ope
 ?_Left@?$_Tree@FU?$pair@$$CBFPAVOBResidue@OpenBabel@@@std@@U_Kfn@?$map@FPAVOBResidue@OpenBabel@@U?$less@F@std@@V?$allocator@PAVOBResidue@OpenBabel@@@4@@2@U?$less@F@2@V?$allocator@PAVOBResidue@OpenBabel@@@2@@std@@KAAAPAU_Node@12@PAU312@@Z @ 773 NONAME ; protected: static struct std::_Tree<short,struct std::pair<short const ,class OpenBabel::OBResidue *>,struct std::map<short,class OpenBabel::OBResidue *,struct std::less<short>,class std::allocator<class OpenBabel::OBResidue *> >::_Kfn,struct std::less<short>,class std::allocator<class OpenBabel::OBResidue *> >::_Node * & __cdecl std::_Tree<short,struct std::pair<short const ,class OpenBabel::OBResidue *>,struct std::map<short,class OpenBabel::OBResidue *,struct std::less<short>,class std::allocator<class 
 ?_Parent@?$_Tree@FU?$pair@$$CBFPAVOBResidue@OpenBabel@@@std@@U_Kfn@?$map@FPAVOBResidue@OpenBabel@@U?$less@F@std@@V?$allocator@PAVOBResidue@OpenBabel@@@4@@2@U?$less@F@2@V?$allocator@PAVOBResidue@OpenBabel@@@2@@std@@KAAAPAU_Node@12@PAU312@@Z @ 774 NONAME ; protected: static struct std::_Tree<short,struct std::pair<short const ,class OpenBabel::OBResidue *>,struct std::map<short,class OpenBabel::OBResidue *,struct std::less<short>,class std::allocator<class OpenBabel::OBResidue *> >::_Kfn,struct std::less<short>,class std::allocator<class OpenBabel::OBResidue *> >::_Node * & __cdecl std::_Tree<short,struct std::pair<short const ,class OpenBabel::OBResidue *>,struct std::map<short,class OpenBabel::OBResidue *,struct std::less<short>,class std::allocator<class 
 ?_Right@?$_Tree@FU?$pair@$$CBFPAVOBResidue@OpenBabel@@@std@@U_Kfn@?$map@FPAVOBResidue@OpenBabel@@U?$less@F@std@@V?$allocator@PAVOBResidue@OpenBabel@@@4@@2@U?$less@F@2@V?$allocator@PAVOBResidue@OpenBabel@@@2@@std@@KAAAPAU_Node@12@PAU312@@Z @ 775 NONAME ; protected: static struct std::_Tree<short,struct std::pair<short const ,class OpenBabel::OBResidue *>,struct std::map<short,class OpenBabel::OBResidue *,struct std::less<short>,class std::allocator<class OpenBabel::OBResidue *> >::_Kfn,struct std::less<short>,class std::allocator<class OpenBabel::OBResidue *> >::_Node * & __cdecl std::_Tree<short,struct std::pair<short const ,class OpenBabel::OBResidue *>,struct std::map<short,class OpenBabel::OBResidue *,struct std::less<short>,class std::allocator<class 
 ?_Insert@?$_Tree@FU?$pair@$$CBFPAVOBResidue@OpenBabel@@@std@@U_Kfn@?$map@FPAVOBResidue@OpenBabel@@U?$less@F@std@@V?$allocator@PAVOBResidue@OpenBabel@@@4@@2@U?$less@F@2@V?$allocator@PAVOBResidue@OpenBabel@@@2@@std@@IAE?AViterator@12@PAU_Node@12@0ABU?$pair@$$CBFPAVOBResidue@OpenBabel@@@2@@Z @ 776 NONAME ; protected: class std::_Tree<short,struct std::pair<short const ,class OpenBabel::OBResidue *>,struct std::map<short,class OpenBabel::OBResidue *,struct std::less<short>,class std::allocator<class OpenBabel::OBResidue *> >::_Kfn,struct std::less<short>,class std::allocator<class OpenBabel::OBResidue *> >::iterator __thiscall std::_Tree<short,struct std::pair<short const ,class OpenBabel::OBResidue *>,struct std::map<short,class OpenBabel::OBResidue *,struct std::less<short>,class std::allocator<class OpenB
 ?_Lbound@?$_Tree@FU?$pair@$$CBFPAVOBResidue@OpenBabel@@@std@@U_Kfn@?$map@FPAVOBResidue@OpenBabel@@U?$less@F@std@@V?$allocator@PAVOBResidue@OpenBabel@@@4@@2@U?$less@F@2@V?$allocator@PAVOBResidue@OpenBabel@@@2@@std@@IBEPAU_Node@12@ABF@Z @ 777 NONAME ; protected: struct std::_Tree<short,struct std::pair<short const ,class OpenBabel::OBResidue *>,struct std::map<short,class OpenBabel::OBResidue *,struct std::less<short>,class std::allocator<class OpenBabel::OBResidue *> >::_Kfn,struct std::less<short>,class std::allocator<class OpenBabel::OBResidue *> >::_Node * __thiscall std::_Tree<short,struct std::pair<short const ,class OpenBabel::OBResidue *>,struct std::map<short,class OpenBabel::OBResidue *,struct std::less<short>,class std::allocator<class OpenBa
 ?_Lrotate@?$_Tree@FU?$pair@$$CBFPAVOBResidue@OpenBabel@@@std@@U_Kfn@?$map@FPAVOBResidue@OpenBabel@@U?$less@F@std@@V?$allocator@PAVOBResidue@OpenBabel@@@4@@2@U?$less@F@2@V?$allocator@PAVOBResidue@OpenBabel@@@2@@std@@IAEXPAU_Node@12@@Z @ 778 NONAME ; protected: void __thiscall std::_Tree<short,struct std::pair<short const ,class OpenBabel::OBResidue *>,struct std::map<short,class OpenBabel::OBResidue *,struct std::less<short>,class std::allocator<class OpenBabel::OBResidue *> >::_Kfn,struct std::less<short>,class std::allocator<class OpenBabel::OBResidue *> >::_Lrotate(struct std::_Tree<short,struct std::pair<short const ,class OpenBabel::OBResidue *>,struct std::map<short,class OpenBabel::OBResidue *,struct std::less<short>,class std::allocator<class 
 ?_Max@?$_Tree@FU?$pair@$$CBFPAVOBResidue@OpenBabel@@@std@@U_Kfn@?$map@FPAVOBResidue@OpenBabel@@U?$less@F@std@@V?$allocator@PAVOBResidue@OpenBabel@@@4@@2@U?$less@F@2@V?$allocator@PAVOBResidue@OpenBabel@@@2@@std@@KAPAU_Node@12@PAU312@@Z @ 779 NONAME ; protected: static struct std::_Tree<short,struct std::pair<short const ,class OpenBabel::OBResidue *>,struct std::map<short,class OpenBabel::OBResidue *,struct std::less<short>,class std::allocator<class OpenBabel::OBResidue *> >::_Kfn,struct std::less<short>,class std::allocator<class OpenBabel::OBResidue *> >::_Node * __cdecl std::_Tree<short,struct std::pair<short const ,class OpenBabel::OBResidue *>,struct std::map<short,class OpenBabel::OBResidue *,struct std::less<short>,class std::allocator<class Op
 ?_Min@?$_Tree@FU?$pair@$$CBFPAVOBResidue@OpenBabel@@@std@@U_Kfn@?$map@FPAVOBResidue@OpenBabel@@U?$less@F@std@@V?$allocator@PAVOBResidue@OpenBabel@@@4@@2@U?$less@F@2@V?$allocator@PAVOBResidue@OpenBabel@@@2@@std@@KAPAU_Node@12@PAU312@@Z @ 780 NONAME ; protected: static struct std::_Tree<short,struct std::pair<short const ,class OpenBabel::OBResidue *>,struct std::map<short,class OpenBabel::OBResidue *,struct std::less<short>,class std::allocator<class OpenBabel::OBResidue *> >::_Kfn,struct std::less<short>,class std::allocator<class OpenBabel::OBResidue *> >::_Node * __cdecl std::_Tree<short,struct std::pair<short const ,class OpenBabel::OBResidue *>,struct std::map<short,class OpenBabel::OBResidue *,struct std::less<short>,class std::allocator<class Op
 ?_Rrotate@?$_Tree@FU?$pair@$$CBFPAVOBResidue@OpenBabel@@@std@@U_Kfn@?$map@FPAVOBResidue@OpenBabel@@U?$less@F@std@@V?$allocator@PAVOBResidue@OpenBabel@@@4@@2@U?$less@F@2@V?$allocator@PAVOBResidue@OpenBabel@@@2@@std@@IAEXPAU_Node@12@@Z @ 781 NONAME ; protected: void __thiscall std::_Tree<short,struct std::pair<short const ,class OpenBabel::OBResidue *>,struct std::map<short,class OpenBabel::OBResidue *,struct std::less<short>,class std::allocator<class OpenBabel::OBResidue *> >::_Kfn,struct std::less<short>,class std::allocator<class OpenBabel::OBResidue *> >::_Rrotate(struct std::_Tree<short,struct std::pair<short const ,class OpenBabel::OBResidue *>,struct std::map<short,class OpenBabel::OBResidue *,struct std::less<short>,class std::allocator<class 
 ?_Buynode@?$_Tree@FU?$pair@$$CBFPAVOBResidue@OpenBabel@@@std@@U_Kfn@?$map@FPAVOBResidue@OpenBabel@@U?$less@F@std@@V?$allocator@PAVOBResidue@OpenBabel@@@4@@2@U?$less@F@2@V?$allocator@PAVOBResidue@OpenBabel@@@2@@std@@IAEPAU_Node@12@PAU312@W4_Redbl@12@@Z @ 782 NONAME ; protected: struct std::_Tree<short,struct std::pair<short const ,class OpenBabel::OBResidue *>,struct std::map<short,class OpenBabel::OBResidue *,struct std::less<short>,class std::allocator<class OpenBabel::OBResidue *> >::_Kfn,struct std::less<short>,class std::allocator<class OpenBabel::OBResidue *> >::_Node * __thiscall std::_Tree<short,struct std::pair<short const ,class OpenBabel::OBResidue *>,struct std::map<short,class OpenBabel::OBResidue *,struct std::less<short>,class std::allocator<class OpenBa
 ?_Destval@?$_Tree@FU?$pair@$$CBFPAVOBResidue@OpenBabel@@@std@@U_Kfn@?$map@FPAVOBResidue@OpenBabel@@U?$less@F@std@@V?$allocator@PAVOBResidue@OpenBabel@@@4@@2@U?$less@F@2@V?$allocator@PAVOBResidue@OpenBabel@@@2@@std@@IAEXPAU?$pair@$$CBFPAVOBResidue@OpenBabel@@@2@@Z @ 783 NONAME ; protected: void __thiscall std::_Tree<short,struct std::pair<short const ,class OpenBabel::OBResidue *>,struct std::map<short,class OpenBabel::OBResidue *,struct std::less<short>,class std::allocator<class OpenBabel::OBResidue *> >::_Kfn,struct std::less<short>,class std::allocator<class OpenBabel::OBResidue *> >::_Destval(struct std::pair<short const ,class OpenBabel::OBResidue *> *)
 ??0const_iterator@?$_Tree@FU?$pair@$$CBFPAVOBResidue@OpenBabel@@@std@@U_Kfn@?$map@FPAVOBResidue@OpenBabel@@U?$less@F@std@@V?$allocator@PAVOBResidue@OpenBabel@@@4@@2@U?$less@F@2@V?$allocator@PAVOBResidue@OpenBabel@@@2@@std@@QAE@PAU_Node@12@@Z @ 784 NONAME ; public: __thiscall std::_Tree<short,struct std::pair<short const ,class OpenBabel::OBResidue *>,struct std::map<short,class OpenBabel::OBResidue *,struct std::less<short>,class std::allocator<class OpenBabel::OBResidue *> >::_Kfn,struct std::less<short>,class std::allocator<class OpenBabel::OBResidue *> >::const_iterator::const_iterator(struct std::_Tree<short,struct std::pair<short const ,class OpenBabel::OBResidue *>,struct std::map<short,class OpenBabel::OBResidue *,struct std::less<short>,class std::al
 ??Eiterator@?$_Tree@FU?$pair@$$CBFPAVOBResidue@OpenBabel@@@std@@U_Kfn@?$map@FPAVOBResidue@OpenBabel@@U?$less@F@std@@V?$allocator@PAVOBResidue@OpenBabel@@@4@@2@U?$less@F@2@V?$allocator@PAVOBResidue@OpenBabel@@@2@@std@@QAEAAV012@XZ @ 785 NONAME ; public: class std::_Tree<short,struct std::pair<short const ,class OpenBabel::OBResidue *>,struct std::map<short,class OpenBabel::OBResidue *,struct std::less<short>,class std::allocator<class OpenBabel::OBResidue *> >::_Kfn,struct std::less<short>,class std::allocator<class OpenBabel::OBResidue *> >::iterator & __thiscall std::_Tree<short,struct std::pair<short const ,class OpenBabel::OBResidue *>,struct std::map<short,class OpenBabel::OBResidue *,struct std::less<short>,class std::allocator<class OpenBab
 ??Fiterator@?$_Tree@FU?$pair@$$CBFPAVOBResidue@OpenBabel@@@std@@U_Kfn@?$map@FPAVOBResidue@OpenBabel@@U?$less@F@std@@V?$allocator@PAVOBResidue@OpenBabel@@@4@@2@U?$less@F@2@V?$allocator@PAVOBResidue@OpenBabel@@@2@@std@@QAEAAV012@XZ @ 786 NONAME ; public: class std::_Tree<short,struct std::pair<short const ,class OpenBabel::OBResidue *>,struct std::map<short,class OpenBabel::OBResidue *,struct std::less<short>,class std::allocator<class OpenBabel::OBResidue *> >::_Kfn,struct std::less<short>,class std::allocator<class OpenBabel::OBResidue *> >::iterator & __thiscall std::_Tree<short,struct std::pair<short const ,class OpenBabel::OBResidue *>,struct std::map<short,class OpenBabel::OBResidue *,struct std::less<short>,class std::allocator<class OpenBab
 ?_Charalloc@?$allocator@PAVOBResidue@OpenBabel@@@std@@QAEPADI@Z @ 787 NONAME ; public: char * __thiscall std::allocator<class OpenBabel::OBResidue *>::_Charalloc(unsigned int)
 ?construct@?$allocator@PAVOBResidue@OpenBabel@@@std@@QAEXPAPAVOBResidue@OpenBabel@@ABQAV34@@Z @ 788 NONAME ; public: void __thiscall std::allocator<class OpenBabel::OBResidue *>::construct(class OpenBabel::OBResidue * *,class OpenBabel::OBResidue * const &)
 ?_Root@?$_Tree@FU?$pair@$$CBFPAVOBResidue@OpenBabel@@@std@@U_Kfn@?$map@FPAVOBResidue@OpenBabel@@U?$less@F@std@@V?$allocator@PAVOBResidue@OpenBabel@@@4@@2@U?$less@F@2@V?$allocator@PAVOBResidue@OpenBabel@@@2@@std@@IBEAAPAU_Node@12@XZ @ 789 NONAME ; protected: struct std::_Tree<short,struct std::pair<short const ,class OpenBabel::OBResidue *>,struct std::map<short,class OpenBabel::OBResidue *,struct std::less<short>,class std::allocator<class OpenBabel::OBResidue *> >::_Kfn,struct std::less<short>,class std::allocator<class OpenBabel::OBResidue *> >::_Node * & __thiscall std::_Tree<short,struct std::pair<short const ,class OpenBabel::OBResidue *>,struct std::map<short,class OpenBabel::OBResidue *,struct std::less<short>,class std::allocator<class Open
 ?_Consval@?$_Tree@FU?$pair@$$CBFPAVOBResidue@OpenBabel@@@std@@U_Kfn@?$map@FPAVOBResidue@OpenBabel@@U?$less@F@std@@V?$allocator@PAVOBResidue@OpenBabel@@@4@@2@U?$less@F@2@V?$allocator@PAVOBResidue@OpenBabel@@@2@@std@@IAEXPAU?$pair@$$CBFPAVOBResidue@OpenBabel@@@2@ABU32@@Z @ 790 NONAME ; protected: void __thiscall std::_Tree<short,struct std::pair<short const ,class OpenBabel::OBResidue *>,struct std::map<short,class OpenBabel::OBResidue *,struct std::less<short>,class std::allocator<class OpenBabel::OBResidue *> >::_Kfn,struct std::less<short>,class std::allocator<class OpenBabel::OBResidue *> >::_Consval(struct std::pair<short const ,class OpenBabel::OBResidue *> *,struct std::pair<short const ,class OpenBabel::OBResidue *> const &)
 ?_Dec@const_iterator@?$_Tree@FU?$pair@$$CBFPAVOBResidue@OpenBabel@@@std@@U_Kfn@?$map@FPAVOBResidue@OpenBabel@@U?$less@F@std@@V?$allocator@PAVOBResidue@OpenBabel@@@4@@2@U?$less@F@2@V?$allocator@PAVOBResidue@OpenBabel@@@2@@std@@QAEXXZ @ 791 NONAME ; public: void __thiscall std::_Tree<short,struct std::pair<short const ,class OpenBabel::OBResidue *>,struct std::map<short,class OpenBabel::OBResidue *,struct std::less<short>,class std::allocator<class OpenBabel::OBResidue *> >::_Kfn,struct std::less<short>,class std::allocator<class OpenBabel::OBResidue *> >::const_iterator::_Dec(void)
 ?_Inc@const_iterator@?$_Tree@FU?$pair@$$CBFPAVOBResidue@OpenBabel@@@std@@U_Kfn@?$map@FPAVOBResidue@OpenBabel@@U?$less@F@std@@V?$allocator@PAVOBResidue@OpenBabel@@@4@@2@U?$less@F@2@V?$allocator@PAVOBResidue@OpenBabel@@@2@@std@@QAEXXZ @ 792 NONAME ; public: void __thiscall std::_Tree<short,struct std::pair<short const ,class OpenBabel::OBResidue *>,struct std::map<short,class OpenBabel::OBResidue *,struct std::less<short>,class std::allocator<class OpenBabel::OBResidue *> >::_Kfn,struct std::less<short>,class std::allocator<class OpenBabel::OBResidue *> >::const_iterator::_Inc(void)
 ?copy@std@@YAPAPAVOBResidue@OpenBabel@@PAPAV23@00@Z @ 793 NONAME ; class OpenBabel::OBResidue * * __cdecl std::copy(class OpenBabel::OBResidue * *,class OpenBabel::OBResidue * *,class OpenBabel::OBResidue * *)
 ?fill@std@@YAXPAPAVOBResidue@OpenBabel@@0ABQAV23@@Z @ 794 NONAME ; void __cdecl std::fill(class OpenBabel::OBResidue * *,class OpenBabel::OBResidue * *,class OpenBabel::OBResidue * const &)
 ?copy_backward@std@@YAPAPAVOBResidue@OpenBabel@@PAPAV23@00@Z @ 795 NONAME ; class OpenBabel::OBResidue * * __cdecl std::copy_backward(class OpenBabel::OBResidue * *,class OpenBabel::OBResidue * *,class OpenBabel::OBResidue * *)
 ?_Destroy@std@@YAXPAPAVOBResidue@OpenBabel@@@Z @ 796 NONAME ; void __cdecl std::_Destroy(class OpenBabel::OBResidue * *)
 ?swap@std@@YAXAAW4_Redbl@?$_Tree@FU?$pair@$$CBFPAVOBResidue@OpenBabel@@@std@@U_Kfn@?$map@FPAVOBResidue@OpenBabel@@U?$less@F@std@@V?$allocator@PAVOBResidue@OpenBabel@@@4@@2@U?$less@F@2@V?$allocator@PAVOBResidue@OpenBabel@@@2@@1@0@Z @ 797 NONAME ; void __cdecl std::swap(enum std::_Tree<short,struct std::pair<short const ,class OpenBabel::OBResidue *>,struct std::map<short,class OpenBabel::OBResidue *,struct std::less<short>,class std::allocator<class OpenBabel::OBResidue *> >::_Kfn,struct std::less<short>,class std::allocator<class OpenBabel::OBResidue *> >::_Redbl &,enum std::_Tree<short,struct std::pair<short const ,class OpenBabel::OBResidue *>,struct std::map<short,class OpenBabel::OBResidue *,struct std::less<short>,class std::allocator<class O
 ?_Allocate@std@@YAPAPAVOBResidue@OpenBabel@@HPAPAV23@@Z @ 798 NONAME ; class OpenBabel::OBResidue * * __cdecl std::_Allocate(int,class OpenBabel::OBResidue * *)
 ?_Destroy@std@@YAXPAU?$pair@$$CBFPAVOBResidue@OpenBabel@@@1@@Z @ 799 NONAME ; void __cdecl std::_Destroy(struct std::pair<short const ,class OpenBabel::OBResidue *> *)
 ?_Allocate@std@@YAPADHPAD@Z @ 800 NONAME ; char * __cdecl std::_Allocate(int,char *)
 ?_Construct@std@@YAXPAPAVOBResidue@OpenBabel@@ABQAV23@@Z @ 801 NONAME ; void __cdecl std::_Construct(class OpenBabel::OBResidue * *,class OpenBabel::OBResidue * const &)
 ?_Construct@std@@YAXPAU?$pair@$$CBFPAVOBResidue@OpenBabel@@@1@ABU21@@Z @ 802 NONAME ; void __cdecl std::_Construct(struct std::pair<short const ,class OpenBabel::OBResidue *> *,struct std::pair<short const ,class OpenBabel::OBResidue *> const &)
 ?FindChiralCenters@OBMol@OpenBabel@@QAEXXZ @ 803 NONAME ; public: void __thiscall OpenBabel::OBMol::FindChiralCenters(void)
 ?SetChiral@OBAtom@OpenBabel@@QAEXXZ @ 804 NONAME ; public: void __thiscall OpenBabel::OBAtom::SetChiral(void)
 ?IsWedge@OBBond@OpenBabel@@QAE_NXZ @ 805 NONAME ; public: bool __thiscall OpenBabel::OBBond::IsWedge(void)
 ?IsHash@OBBond@OpenBabel@@QAE_NXZ @ 806 NONAME ; public: bool __thiscall OpenBabel::OBBond::IsHash(void)
 ?SetChiralityPerceived@OBMol@OpenBabel@@QAEXXZ @ 807 NONAME ; public: void __thiscall OpenBabel::OBMol::SetChiralityPerceived(void)
 ?GetChirality@OpenBabel@@YAXAAVOBMol@1@AAV?$vector@HV?$allocator@H@std@@@std@@@Z @ 808 NONAME ; void __cdecl OpenBabel::GetChirality(class OpenBabel::OBMol &,class std::vector<int,class std::allocator<int> > &)
 ?CalcSignedVolume@OpenBabel@@YANAAVOBMol@1@PAVOBAtom@1@@Z @ 809 NONAME ; double __cdecl OpenBabel::CalcSignedVolume(class OpenBabel::OBMol &,class OpenBabel::OBAtom *)
 ?signed_volume@OpenBabel@@YANABVvector3@1@000@Z @ 810 NONAME ; double __cdecl OpenBabel::signed_volume(class OpenBabel::vector3 const &,class OpenBabel::vector3 const &,class OpenBabel::vector3 const &,class OpenBabel::vector3 const &)
 ??0vector3@OpenBabel@@QAE@ABV01@@Z @ 811 NONAME ; public: __thiscall OpenBabel::vector3::vector3(class OpenBabel::vector3 const &)
 ??0matrix3x3@OpenBabel@@QAE@Vvector3@1@00@Z @ 812 NONAME ; public: __thiscall OpenBabel::matrix3x3::matrix3x3(class OpenBabel::vector3,class OpenBabel::vector3,class OpenBabel::vector3)
 ?GraphPotentials@OpenBabel@@YAXAAVOBMol@1@AAV?$vector@NV?$allocator@N@std@@@std@@@Z @ 813 NONAME ; void __cdecl OpenBabel::GraphPotentials(class OpenBabel::OBMol &,class std::vector<double,class std::allocator<double> > &)
 ?construct_g_matrix@OpenBabel@@YAXAAVOBMol@1@AAV?$vector@V?$vector@NV?$allocator@N@std@@@std@@V?$allocator@V?$vector@NV?$allocator@N@std@@@std@@@2@@std@@@Z @ 814 NONAME ; void __cdecl OpenBabel::construct_g_matrix(class OpenBabel::OBMol &,class std::vector<class std::vector<double,class std::allocator<double> >,class std::allocator<class std::vector<double,class std::allocator<double> > > > &)
 ?construct_c_matrix@OpenBabel@@YAXAAVOBMol@1@AAV?$vector@V?$vector@NV?$allocator@N@std@@@std@@V?$allocator@V?$vector@NV?$allocator@N@std@@@std@@@2@@std@@@Z @ 815 NONAME ; void __cdecl OpenBabel::construct_c_matrix(class OpenBabel::OBMol &,class std::vector<class std::vector<double,class std::allocator<double> >,class std::allocator<class std::vector<double,class std::allocator<double> > > > &)
 ??0?$vector@IV?$allocator@I@std@@@std@@QAE@ABV?$allocator@I@1@@Z @ 816 NONAME ; public: __thiscall std::vector<unsigned int,class std::allocator<unsigned int> >::vector<unsigned int,class std::allocator<unsigned int> >(class std::allocator<unsigned int> const &)
 ??1?$vector@IV?$allocator@I@std@@@std@@QAE@XZ @ 817 NONAME ; public: __thiscall std::vector<unsigned int,class std::allocator<unsigned int> >::~vector<unsigned int,class std::allocator<unsigned int> >(void)
 ?begin@?$vector@IV?$allocator@I@std@@@std@@QAEPAIXZ @ 818 NONAME ; public: unsigned int * __thiscall std::vector<unsigned int,class std::allocator<unsigned int> >::begin(void)
 ?end@?$vector@IV?$allocator@I@std@@@std@@QAEPAIXZ @ 819 NONAME ; public: unsigned int * __thiscall std::vector<unsigned int,class std::allocator<unsigned int> >::end(void)
 ??A?$vector@IV?$allocator@I@std@@@std@@QAEAAII@Z @ 820 NONAME ; public: unsigned int & __thiscall std::vector<unsigned int,class std::allocator<unsigned int> >::operator[](unsigned int)
 ?push_back@?$vector@IV?$allocator@I@std@@@std@@QAEXABI@Z @ 821 NONAME ; public: void __thiscall std::vector<unsigned int,class std::allocator<unsigned int> >::push_back(unsigned int const &)
 ?clear@?$vector@IV?$allocator@I@std@@@std@@QAEXXZ @ 822 NONAME ; public: void __thiscall std::vector<unsigned int,class std::allocator<unsigned int> >::clear(void)
 ?erase@?$vector@IV?$allocator@I@std@@@std@@QAEPAIPAI0@Z @ 823 NONAME ; public: unsigned int * __thiscall std::vector<unsigned int,class std::allocator<unsigned int> >::erase(unsigned int *,unsigned int *)
 ??0?$vector@Vvector3@OpenBabel@@V?$allocator@Vvector3@OpenBabel@@@std@@@std@@QAE@ABV?$allocator@Vvector3@OpenBabel@@@1@@Z @ 824 NONAME ; public: __thiscall std::vector<class OpenBabel::vector3,class std::allocator<class OpenBabel::vector3> >::vector<class OpenBabel::vector3,class std::allocator<class OpenBabel::vector3> >(class std::allocator<class OpenBabel::vector3> const &)
 ??1?$vector@Vvector3@OpenBabel@@V?$allocator@Vvector3@OpenBabel@@@std@@@std@@QAE@XZ @ 825 NONAME ; public: __thiscall std::vector<class OpenBabel::vector3,class std::allocator<class OpenBabel::vector3> >::~vector<class OpenBabel::vector3,class std::allocator<class OpenBabel::vector3> >(void)
 ??A?$vector@Vvector3@OpenBabel@@V?$allocator@Vvector3@OpenBabel@@@std@@@std@@QAEAAVvector3@OpenBabel@@I@Z @ 826 NONAME ; public: class OpenBabel::vector3 & __thiscall std::vector<class OpenBabel::vector3,class std::allocator<class OpenBabel::vector3> >::operator[](unsigned int)
 ?push_back@?$vector@Vvector3@OpenBabel@@V?$allocator@Vvector3@OpenBabel@@@std@@@std@@QAEXABVvector3@OpenBabel@@@Z @ 827 NONAME ; public: void __thiscall std::vector<class OpenBabel::vector3,class std::allocator<class OpenBabel::vector3> >::push_back(class OpenBabel::vector3 const &)
 ?resize@?$vector@V?$vector@NV?$allocator@N@std@@@std@@V?$allocator@V?$vector@NV?$allocator@N@std@@@std@@@2@@std@@QAEXIABV?$vector@NV?$allocator@N@std@@@2@@Z @ 828 NONAME ; public: void __thiscall std::vector<class std::vector<double,class std::allocator<double> >,class std::allocator<class std::vector<double,class std::allocator<double> > > >::resize(unsigned int,class std::vector<double,class std::allocator<double> > const &)
 ??0?$vector@NV?$allocator@N@std@@@std@@QAE@ABV?$allocator@N@1@@Z @ 829 NONAME ; public: __thiscall std::vector<double,class std::allocator<double> >::vector<double,class std::allocator<double> >(class std::allocator<double> const &)
 ?resize@?$vector@NV?$allocator@N@std@@@std@@QAEXIABN@Z @ 830 NONAME ; public: void __thiscall std::vector<double,class std::allocator<double> >::resize(unsigned int,double const &)
 ?deallocate@?$allocator@I@std@@QAEXPAXI@Z @ 831 NONAME ; public: void __thiscall std::allocator<unsigned int>::deallocate(void *,unsigned int)
 ?insert@?$vector@IV?$allocator@I@std@@@std@@QAEPAIPAIABI@Z @ 832 NONAME ; public: unsigned int * __thiscall std::vector<unsigned int,class std::allocator<unsigned int> >::insert(unsigned int *,unsigned int const &)
 ?insert@?$vector@IV?$allocator@I@std@@@std@@QAEXPAIIABI@Z @ 833 NONAME ; public: void __thiscall std::vector<unsigned int,class std::allocator<unsigned int> >::insert(unsigned int *,unsigned int,unsigned int const &)
 ?size@?$vector@IV?$allocator@I@std@@@std@@QBEIXZ @ 834 NONAME ; public: unsigned int __thiscall std::vector<unsigned int,class std::allocator<unsigned int> >::size(void)const 
 ?allocate@?$allocator@I@std@@QAEPAIIPBX@Z @ 835 NONAME ; public: unsigned int * __thiscall std::allocator<unsigned int>::allocate(unsigned int,void const *)
 ?_Destroy@?$vector@IV?$allocator@I@std@@@std@@IAEXPAI0@Z @ 836 NONAME ; protected: void __thiscall std::vector<unsigned int,class std::allocator<unsigned int> >::_Destroy(unsigned int *,unsigned int *)
 ?_Ucopy@?$vector@IV?$allocator@I@std@@@std@@IAEPAIPBI0PAI@Z @ 837 NONAME ; protected: unsigned int * __thiscall std::vector<unsigned int,class std::allocator<unsigned int> >::_Ucopy(unsigned int const *,unsigned int const *,unsigned int *)
 ?_Ufill@?$vector@IV?$allocator@I@std@@@std@@IAEXPAIIABI@Z @ 838 NONAME ; protected: void __thiscall std::vector<unsigned int,class std::allocator<unsigned int> >::_Ufill(unsigned int *,unsigned int,unsigned int const &)
 ?begin@?$vector@Vvector3@OpenBabel@@V?$allocator@Vvector3@OpenBabel@@@std@@@std@@QAEPAVvector3@OpenBabel@@XZ @ 839 NONAME ; public: class OpenBabel::vector3 * __thiscall std::vector<class OpenBabel::vector3,class std::allocator<class OpenBabel::vector3> >::begin(void)
 ?end@?$vector@Vvector3@OpenBabel@@V?$allocator@Vvector3@OpenBabel@@@std@@@std@@QAEPAVvector3@OpenBabel@@XZ @ 840 NONAME ; public: class OpenBabel::vector3 * __thiscall std::vector<class OpenBabel::vector3,class std::allocator<class OpenBabel::vector3> >::end(void)
 ?insert@?$vector@Vvector3@OpenBabel@@V?$allocator@Vvector3@OpenBabel@@@std@@@std@@QAEPAVvector3@OpenBabel@@PAV34@ABV34@@Z @ 841 NONAME ; public: class OpenBabel::vector3 * __thiscall std::vector<class OpenBabel::vector3,class std::allocator<class OpenBabel::vector3> >::insert(class OpenBabel::vector3 *,class OpenBabel::vector3 const &)
 ?_Destroy@?$vector@Vvector3@OpenBabel@@V?$allocator@Vvector3@OpenBabel@@@std@@@std@@IAEXPAVvector3@OpenBabel@@0@Z @ 842 NONAME ; protected: void __thiscall std::vector<class OpenBabel::vector3,class std::allocator<class OpenBabel::vector3> >::_Destroy(class OpenBabel::vector3 *,class OpenBabel::vector3 *)
 ?deallocate@?$allocator@Vvector3@OpenBabel@@@std@@QAEXPAXI@Z @ 843 NONAME ; public: void __thiscall std::allocator<class OpenBabel::vector3>::deallocate(void *,unsigned int)
 ?insert@?$vector@NV?$allocator@N@std@@@std@@QAEXPANIABN@Z @ 844 NONAME ; public: void __thiscall std::vector<double,class std::allocator<double> >::insert(double *,unsigned int,double const &)
 ?erase@?$vector@NV?$allocator@N@std@@@std@@QAEPANPAN0@Z @ 845 NONAME ; public: double * __thiscall std::vector<double,class std::allocator<double> >::erase(double *,double *)
 ?construct@?$allocator@I@std@@QAEXPAIABI@Z @ 846 NONAME ; public: void __thiscall std::allocator<unsigned int>::construct(unsigned int *,unsigned int const &)
 ?destroy@?$allocator@I@std@@QAEXPAI@Z @ 847 NONAME ; public: void __thiscall std::allocator<unsigned int>::destroy(unsigned int *)
 ?insert@?$vector@Vvector3@OpenBabel@@V?$allocator@Vvector3@OpenBabel@@@std@@@std@@QAEXPAVvector3@OpenBabel@@IABV34@@Z @ 848 NONAME ; public: void __thiscall std::vector<class OpenBabel::vector3,class std::allocator<class OpenBabel::vector3> >::insert(class OpenBabel::vector3 *,unsigned int,class OpenBabel::vector3 const &)
 ?destroy@?$allocator@Vvector3@OpenBabel@@@std@@QAEXPAVvector3@OpenBabel@@@Z @ 849 NONAME ; public: void __thiscall std::allocator<class OpenBabel::vector3>::destroy(class OpenBabel::vector3 *)
 ?_Ufill@?$vector@NV?$allocator@N@std@@@std@@IAEXPANIABN@Z @ 850 NONAME ; protected: void __thiscall std::vector<double,class std::allocator<double> >::_Ufill(double *,unsigned int,double const &)
 ?size@?$vector@Vvector3@OpenBabel@@V?$allocator@Vvector3@OpenBabel@@@std@@@std@@QBEIXZ @ 851 NONAME ; public: unsigned int __thiscall std::vector<class OpenBabel::vector3,class std::allocator<class OpenBabel::vector3> >::size(void)const 
 ?_Ucopy@?$vector@Vvector3@OpenBabel@@V?$allocator@Vvector3@OpenBabel@@@std@@@std@@IAEPAVvector3@OpenBabel@@PBV34@0PAV34@@Z @ 852 NONAME ; protected: class OpenBabel::vector3 * __thiscall std::vector<class OpenBabel::vector3,class std::allocator<class OpenBabel::vector3> >::_Ucopy(class OpenBabel::vector3 const *,class OpenBabel::vector3 const *,class OpenBabel::vector3 *)
 ?_Ufill@?$vector@Vvector3@OpenBabel@@V?$allocator@Vvector3@OpenBabel@@@std@@@std@@IAEXPAVvector3@OpenBabel@@IABV34@@Z @ 853 NONAME ; protected: void __thiscall std::vector<class OpenBabel::vector3,class std::allocator<class OpenBabel::vector3> >::_Ufill(class OpenBabel::vector3 *,unsigned int,class OpenBabel::vector3 const &)
 ?allocate@?$allocator@Vvector3@OpenBabel@@@std@@QAEPAVvector3@OpenBabel@@IPBX@Z @ 854 NONAME ; public: class OpenBabel::vector3 * __thiscall std::allocator<class OpenBabel::vector3>::allocate(unsigned int,void const *)
 ?construct@?$allocator@Vvector3@OpenBabel@@@std@@QAEXPAVvector3@OpenBabel@@ABV34@@Z @ 855 NONAME ; public: void __thiscall std::allocator<class OpenBabel::vector3>::construct(class OpenBabel::vector3 *,class OpenBabel::vector3 const &)
 ?sort@std@@YAXPAH0@Z @ 856 NONAME ; void __cdecl std::sort(int *,int *)
 ?copy@std@@YAPAIPAI00@Z @ 857 NONAME ; unsigned int * __cdecl std::copy(unsigned int *,unsigned int *,unsigned int *)
 ?_Allocate@std@@YAPAIHPAI@Z @ 858 NONAME ; unsigned int * __cdecl std::_Allocate(int,unsigned int *)
 ?fill@std@@YAXPAI0ABI@Z @ 859 NONAME ; void __cdecl std::fill(unsigned int *,unsigned int *,unsigned int const &)
 ?copy_backward@std@@YAPAIPAI00@Z @ 860 NONAME ; unsigned int * __cdecl std::copy_backward(unsigned int *,unsigned int *,unsigned int *)
 ?fill@std@@YAXPAN0ABN@Z @ 861 NONAME ; void __cdecl std::fill(double *,double *,double const &)
 ?copy_backward@std@@YAPANPAN00@Z @ 862 NONAME ; double * __cdecl std::copy_backward(double *,double *,double *)
 ?copy@std@@YAPANPAN00@Z @ 863 NONAME ; double * __cdecl std::copy(double *,double *,double *)
 ?_Construct@std@@YAXPAIABI@Z @ 864 NONAME ; void __cdecl std::_Construct(unsigned int *,unsigned int const &)
 ?_Destroy@std@@YAXPAI@Z @ 865 NONAME ; void __cdecl std::_Destroy(unsigned int *)
 ?fill@std@@YAXPAVvector3@OpenBabel@@0ABV23@@Z @ 866 NONAME ; void __cdecl std::fill(class OpenBabel::vector3 *,class OpenBabel::vector3 *,class OpenBabel::vector3 const &)
 ?copy_backward@std@@YAPAVvector3@OpenBabel@@PAV23@00@Z @ 867 NONAME ; class OpenBabel::vector3 * __cdecl std::copy_backward(class OpenBabel::vector3 *,class OpenBabel::vector3 *,class OpenBabel::vector3 *)
 ?_Destroy@std@@YAXPAVvector3@OpenBabel@@@Z @ 868 NONAME ; void __cdecl std::_Destroy(class OpenBabel::vector3 *)
 ?_Allocate@std@@YAPAVvector3@OpenBabel@@HPAV23@@Z @ 869 NONAME ; class OpenBabel::vector3 * __cdecl std::_Allocate(int,class OpenBabel::vector3 *)
 ?_Construct@std@@YAXPAVvector3@OpenBabel@@ABV23@@Z @ 870 NONAME ; void __cdecl std::_Construct(class OpenBabel::vector3 *,class OpenBabel::vector3 const &)
 ?_Val_type@std@@YAPAHPBH@Z @ 871 NONAME ; int * __cdecl std::_Val_type(int const *)
 ?_Sort_0@std@@YAXPAH00@Z @ 872 NONAME ; void __cdecl std::_Sort_0(int *,int *,int *)
 ?_Insertion_sort@std@@YAXPAH0@Z @ 873 NONAME ; void __cdecl std::_Insertion_sort(int *,int *)
 ?_Sort@std@@YAXPAH00@Z @ 874 NONAME ; void __cdecl std::_Sort(int *,int *,int *)
 ?_Unguarded_insert@std@@YAXPAHH@Z @ 875 NONAME ; void __cdecl std::_Unguarded_insert(int *,int)
 ?_Insertion_sort_1@std@@YAXPAH00@Z @ 876 NONAME ; void __cdecl std::_Insertion_sort_1(int *,int *,int *)
 ?_Median@std@@YAHHHH@Z @ 877 NONAME ; int __cdecl std::_Median(int,int,int)
 ?_Unguarded_partition@std@@YAPAHPAH0H@Z @ 878 NONAME ; int * __cdecl std::_Unguarded_partition(int *,int *,int)
 ?iter_swap@std@@YAXPAH0@Z @ 879 NONAME ; void __cdecl std::iter_swap(int *,int *)
 ?_Iter_swap@std@@YAXPAH00@Z @ 880 NONAME ; void __cdecl std::_Iter_swap(int *,int *,int *)
 ??1OBIsotopeTable@OpenBabel@@UAE@XZ @ 881 NONAME ; public: virtual __thiscall OpenBabel::OBIsotopeTable::~OBIsotopeTable(void)
 ??0OBElementTable@OpenBabel@@QAE@XZ @ 882 NONAME ; public: __thiscall OpenBabel::OBElementTable::OBElementTable(void)
 ??0OBGlobalDataBase@OpenBabel@@QAE@XZ @ 883 NONAME ; public: __thiscall OpenBabel::OBGlobalDataBase::OBGlobalDataBase(void)
 ??1OBElementTable@OpenBabel@@UAE@XZ @ 884 NONAME ; public: virtual __thiscall OpenBabel::OBElementTable::~OBElementTable(void)
 ?ParseLine@OBElementTable@OpenBabel@@UAEXPBD@Z @ 885 NONAME ; public: virtual void __thiscall OpenBabel::OBElementTable::ParseLine(char const *)
 ??0OBElement@OpenBabel@@QAE@HPBDNNNHNN@Z @ 886 NONAME ; public: __thiscall OpenBabel::OBElement::OBElement(int,char const *,double,double,double,int,double,double)
 ?GetSymbol@OBElementTable@OpenBabel@@QAEPADH@Z @ 887 NONAME ; public: char * __thiscall OpenBabel::OBElementTable::GetSymbol(int)
 ?GetSymbol@OBElement@OpenBabel@@QAEPADXZ @ 888 NONAME ; public: char * __thiscall OpenBabel::OBElement::GetSymbol(void)
 ?GetMaxBonds@OBElementTable@OpenBabel@@QAEHH@Z @ 889 NONAME ; public: int __thiscall OpenBabel::OBElementTable::GetMaxBonds(int)
 ?GetMaxBonds@OBElement@OpenBabel@@QAEHXZ @ 890 NONAME ; public: int __thiscall OpenBabel::OBElement::GetMaxBonds(void)
 ?GetElectroNeg@OBElementTable@OpenBabel@@QAENH@Z @ 891 NONAME ; public: double __thiscall OpenBabel::OBElementTable::GetElectroNeg(int)
 ?GetElectroNeg@OBElement@OpenBabel@@QAENXZ @ 892 NONAME ; public: double __thiscall OpenBabel::OBElement::GetElectroNeg(void)
 ?GetVdwRad@OBElementTable@OpenBabel@@QAENH@Z @ 893 NONAME ; public: double __thiscall OpenBabel::OBElementTable::GetVdwRad(int)
 ?GetVdwRad@OBElement@OpenBabel@@QAENXZ @ 894 NONAME ; public: double __thiscall OpenBabel::OBElement::GetVdwRad(void)
 ?GetBORad@OBElementTable@OpenBabel@@QAENH@Z @ 895 NONAME ; public: double __thiscall OpenBabel::OBElementTable::GetBORad(int)
 ?GetBoRad@OBElement@OpenBabel@@QAENXZ @ 896 NONAME ; public: double __thiscall OpenBabel::OBElement::GetBoRad(void)
 ?CorrectedBondRad@OBElementTable@OpenBabel@@QAENHH@Z @ 897 NONAME ; public: double __thiscall OpenBabel::OBElementTable::CorrectedBondRad(int,int)
 ?CorrectedVdwRad@OBElementTable@OpenBabel@@QAENHH@Z @ 898 NONAME ; public: double __thiscall OpenBabel::OBElementTable::CorrectedVdwRad(int,int)
 ?GetCovalentRad@OBElementTable@OpenBabel@@QAENH@Z @ 899 NONAME ; public: double __thiscall OpenBabel::OBElementTable::GetCovalentRad(int)
 ?GetCovalentRad@OBElement@OpenBabel@@QAENXZ @ 900 NONAME ; public: double __thiscall OpenBabel::OBElement::GetCovalentRad(void)
 ?GetMass@OBElementTable@OpenBabel@@QAENH@Z @ 901 NONAME ; public: double __thiscall OpenBabel::OBElementTable::GetMass(int)
 ?GetMass@OBElement@OpenBabel@@QAENXZ @ 902 NONAME ; public: double __thiscall OpenBabel::OBElement::GetMass(void)
 ?GetAtomicNum@OBElementTable@OpenBabel@@QAEHPBDG@Z @ 903 NONAME ; public: int __thiscall OpenBabel::OBElementTable::GetAtomicNum(char const *,unsigned short)
 ?GetAtomicNum@OBElement@OpenBabel@@QAEHXZ @ 904 NONAME ; public: int __thiscall OpenBabel::OBElement::GetAtomicNum(void)
 ??0OBIsotopeTable@OpenBabel@@QAE@XZ @ 905 NONAME ; public: __thiscall OpenBabel::OBIsotopeTable::OBIsotopeTable(void)
 ?ParseLine@OBIsotopeTable@OpenBabel@@UAEXPBD@Z @ 906 NONAME ; public: virtual void __thiscall OpenBabel::OBIsotopeTable::ParseLine(char const *)
 ?GetExactMass@OBIsotopeTable@OpenBabel@@QAENII@Z @ 907 NONAME ; public: double __thiscall OpenBabel::OBIsotopeTable::GetExactMass(unsigned int,unsigned int)
 ??0OBTypeTable@OpenBabel@@QAE@XZ @ 908 NONAME ; public: __thiscall OpenBabel::OBTypeTable::OBTypeTable(void)
 ?ParseLine@OBTypeTable@OpenBabel@@UAEXPBD@Z @ 909 NONAME ; public: virtual void __thiscall OpenBabel::OBTypeTable::ParseLine(char const *)
 ?SetFromType@OBTypeTable@OpenBabel@@QAE_NPAD@Z @ 910 NONAME ; public: bool __thiscall OpenBabel::OBTypeTable::SetFromType(char *)
 ?SetToType@OBTypeTable@OpenBabel@@QAE_NPAD@Z @ 911 NONAME ; public: bool __thiscall OpenBabel::OBTypeTable::SetToType(char *)
 ?Translate@OBTypeTable@OpenBabel@@QAE_NPAD0@Z @ 912 NONAME ; public: bool __thiscall OpenBabel::OBTypeTable::Translate(char *,char *)
 ?Translate@OBTypeTable@OpenBabel@@QAE_NAAV?$basic_string@DU?$char_traits@D@std@@V?$allocator@D@2@@std@@0@Z @ 913 NONAME ; public: bool __thiscall OpenBabel::OBTypeTable::Translate(class std::basic_string<char,struct std::char_traits<char>,class std::allocator<char> > &,class std::basic_string<char,struct std::char_traits<char>,class std::allocator<char> > &)
 ?Toupper@OpenBabel@@YAXAAV?$basic_string@DU?$char_traits@D@std@@V?$allocator@D@2@@std@@@Z @ 914 NONAME ; void __cdecl OpenBabel::Toupper(class std::basic_string<char,struct std::char_traits<char>,class std::allocator<char> > &)
 ?Tolower@OpenBabel@@YAXAAV?$basic_string@DU?$char_traits@D@std@@V?$allocator@D@2@@std@@@Z @ 915 NONAME ; void __cdecl OpenBabel::Tolower(class std::basic_string<char,struct std::char_traits<char>,class std::allocator<char> > &)
 ?Init@OBGlobalDataBase@OpenBabel@@QAEXXZ @ 916 NONAME ; public: void __thiscall OpenBabel::OBGlobalDataBase::Init(void)
 ??0?$vector@PAVOBElement@OpenBabel@@V?$allocator@PAVOBElement@OpenBabel@@@std@@@std@@QAE@ABV?$allocator@PAVOBElement@OpenBabel@@@1@@Z @ 917 NONAME ; public: __thiscall std::vector<class OpenBabel::OBElement *,class std::allocator<class OpenBabel::OBElement *> >::vector<class OpenBabel::OBElement *,class std::allocator<class OpenBabel::OBElement *> >(class std::allocator<class OpenBabel::OBElement *> const &)
 ??1?$vector@PAVOBElement@OpenBabel@@V?$allocator@PAVOBElement@OpenBabel@@@std@@@std@@QAE@XZ @ 918 NONAME ; public: __thiscall std::vector<class OpenBabel::OBElement *,class std::allocator<class OpenBabel::OBElement *> >::~vector<class OpenBabel::OBElement *,class std::allocator<class OpenBabel::OBElement *> >(void)
 ?begin@?$vector@PAVOBElement@OpenBabel@@V?$allocator@PAVOBElement@OpenBabel@@@std@@@std@@QAEPAPAVOBElement@OpenBabel@@XZ @ 919 NONAME ; public: class OpenBabel::OBElement * * __thiscall std::vector<class OpenBabel::OBElement *,class std::allocator<class OpenBabel::OBElement *> >::begin(void)
 ?end@?$vector@PAVOBElement@OpenBabel@@V?$allocator@PAVOBElement@OpenBabel@@@std@@@std@@QAEPAPAVOBElement@OpenBabel@@XZ @ 920 NONAME ; public: class OpenBabel::OBElement * * __thiscall std::vector<class OpenBabel::OBElement *,class std::allocator<class OpenBabel::OBElement *> >::end(void)
 ?size@?$vector@PAVOBElement@OpenBabel@@V?$allocator@PAVOBElement@OpenBabel@@@std@@@std@@QBEIXZ @ 921 NONAME ; public: unsigned int __thiscall std::vector<class OpenBabel::OBElement *,class std::allocator<class OpenBabel::OBElement *> >::size(void)const 
 ??A?$vector@PAVOBElement@OpenBabel@@V?$allocator@PAVOBElement@OpenBabel@@@std@@@std@@QAEAAPAVOBElement@OpenBabel@@I@Z @ 922 NONAME ; public: class OpenBabel::OBElement * & __thiscall std::vector<class OpenBabel::OBElement *,class std::allocator<class OpenBabel::OBElement *> >::operator[](unsigned int)
 ?push_back@?$vector@PAVOBElement@OpenBabel@@V?$allocator@PAVOBElement@OpenBabel@@@std@@@std@@QAEXABQAVOBElement@OpenBabel@@@Z @ 923 NONAME ; public: void __thiscall std::vector<class OpenBabel::OBElement *,class std::allocator<class OpenBabel::OBElement *> >::push_back(class OpenBabel::OBElement * const &)
 ??0?$vector@V?$vector@U?$pair@IN@std@@V?$allocator@U?$pair@IN@std@@@2@@std@@V?$allocator@V?$vector@U?$pair@IN@std@@V?$allocator@U?$pair@IN@std@@@2@@std@@@2@@std@@QAE@ABV?$allocator@V?$vector@U?$pair@IN@std@@V?$allocator@U?$pair@IN@std@@@2@@std@@@1@@Z @ 924 NONAME ; public: __thiscall std::vector<class std::vector<struct std::pair<unsigned int,double>,class std::allocator<struct std::pair<unsigned int,double> > >,class std::allocator<class std::vector<struct std::pair<unsigned int,double>,class std::allocator<struct std::pair<unsigned int,double> > > > >::vector<class std::vector<struct std::pair<unsigned int,double>,class std::allocator<struct std::pair<unsigned int,double> > >,class std::allocator<class std::vector<struct std::pair<unsigned int,double>,class std::al
 ??1?$vector@V?$vector@U?$pair@IN@std@@V?$allocator@U?$pair@IN@std@@@2@@std@@V?$allocator@V?$vector@U?$pair@IN@std@@V?$allocator@U?$pair@IN@std@@@2@@std@@@2@@std@@QAE@XZ @ 925 NONAME ; public: __thiscall std::vector<class std::vector<struct std::pair<unsigned int,double>,class std::allocator<struct std::pair<unsigned int,double> > >,class std::allocator<class std::vector<struct std::pair<unsigned int,double>,class std::allocator<struct std::pair<unsigned int,double> > > > >::~vector<class std::vector<struct std::pair<unsigned int,double>,class std::allocator<struct std::pair<unsigned int,double> > >,class std::allocator<class std::vector<struct std::pair<unsigned int,double>,class std::a
 ?size@?$vector@V?$vector@U?$pair@IN@std@@V?$allocator@U?$pair@IN@std@@@2@@std@@V?$allocator@V?$vector@U?$pair@IN@std@@V?$allocator@U?$pair@IN@std@@@2@@std@@@2@@std@@QBEIXZ @ 926 NONAME ; public: unsigned int __thiscall std::vector<class std::vector<struct std::pair<unsigned int,double>,class std::allocator<struct std::pair<unsigned int,double> > >,class std::allocator<class std::vector<struct std::pair<unsigned int,double>,class std::allocator<struct std::pair<unsigned int,double> > > > >::size(void)const 
 ??A?$vector@V?$vector@U?$pair@IN@std@@V?$allocator@U?$pair@IN@std@@@2@@std@@V?$allocator@V?$vector@U?$pair@IN@std@@V?$allocator@U?$pair@IN@std@@@2@@std@@@2@@std@@QAEAAV?$vector@U?$pair@IN@std@@V?$allocator@U?$pair@IN@std@@@2@@1@I@Z @ 927 NONAME ; public: class std::vector<struct std::pair<unsigned int,double>,class std::allocator<struct std::pair<unsigned int,double> > > & __thiscall std::vector<class std::vector<struct std::pair<unsigned int,double>,class std::allocator<struct std::pair<unsigned int,double> > >,class std::allocator<class std::vector<struct std::pair<unsigned int,double>,class std::allocator<struct std::pair<unsigned int,double> > > > >::operator[](unsigned int)
 ?push_back@?$vector@V?$vector@U?$pair@IN@std@@V?$allocator@U?$pair@IN@std@@@2@@std@@V?$allocator@V?$vector@U?$pair@IN@std@@V?$allocator@U?$pair@IN@std@@@2@@std@@@2@@std@@QAEXABV?$vector@U?$pair@IN@std@@V?$allocator@U?$pair@IN@std@@@2@@2@@Z @ 928 NONAME ; public: void __thiscall std::vector<class std::vector<struct std::pair<unsigned int,double>,class std::allocator<struct std::pair<unsigned int,double> > >,class std::allocator<class std::vector<struct std::pair<unsigned int,double>,class std::allocator<struct std::pair<unsigned int,double> > > > >::push_back(class std::vector<struct std::pair<unsigned int,double>,class std::allocator<struct std::pair<unsigned int,double> > > const &)
 ??0?$vector@V?$vector@V?$basic_string@DU?$char_traits@D@std@@V?$allocator@D@2@@std@@V?$allocator@V?$basic_string@DU?$char_traits@D@std@@V?$allocator@D@2@@std@@@2@@std@@V?$allocator@V?$vector@V?$basic_string@DU?$char_traits@D@std@@V?$allocator@D@2@@std@@V?$allocator@V?$basic_string@DU?$char_traits@D@std@@V?$allocator@D@2@@std@@@2@@std@@@2@@std@@QAE@ABV?$allocator@V?$vector@V?$basic_string@DU?$char_traits@D@std@@V?$allocator@D@2@@std@@V?$allocator@V?$basic_string@DU?$char_traits@D@std@@V?$allocator@D@2@@std@@@2@@std@@@1@@Z @ 929 NONAME ; public: __thiscall std::vector<class std::vector<class std::basic_string<char,struct std::char_traits<char>,class std::allocator<char> >,class std::allocator<class std::basic_string<char,struct std::char_traits<char>,class std::allocator<char> > > >,class std::allocator<class std::vector<class std::basic_string<char,struct std::char_traits<char>,class std::allocator<char> >,class std::allocator<class std::basic_string<char,struct std::char_traits<char>,class std::allocator<char> > > > > >::vector<class std
 ?begin@?$vector@V?$vector@V?$basic_string@DU?$char_traits@D@std@@V?$allocator@D@2@@std@@V?$allocator@V?$basic_string@DU?$char_traits@D@std@@V?$allocator@D@2@@std@@@2@@std@@V?$allocator@V?$vector@V?$basic_string@DU?$char_traits@D@std@@V?$allocator@D@2@@std@@V?$allocator@V?$basic_string@DU?$char_traits@D@std@@V?$allocator@D@2@@std@@@2@@std@@@2@@std@@QAEPAV?$vector@V?$basic_string@DU?$char_traits@D@std@@V?$allocator@D@2@@std@@V?$allocator@V?$basic_string@DU?$char_traits@D@std@@V?$allocator@D@2@@std@@@2@@2@XZ @ 930 NONAME ; public: class std::vector<class std::basic_string<char,struct std::char_traits<char>,class std::allocator<char> >,class std::allocator<class std::basic_string<char,struct std::char_traits<char>,class std::allocator<char> > > > * __thiscall std::vector<class std::vector<class std::basic_string<char,struct std::char_traits<char>,class std::allocator<char> >,class std::allocator<class std::basic_string<char,struct std::char_traits<char>,class std::allocator<char> > > >,class std::allocator<class std::vector<c
 ?end@?$vector@V?$vector@V?$basic_string@DU?$char_traits@D@std@@V?$allocator@D@2@@std@@V?$allocator@V?$basic_string@DU?$char_traits@D@std@@V?$allocator@D@2@@std@@@2@@std@@V?$allocator@V?$vector@V?$basic_string@DU?$char_traits@D@std@@V?$allocator@D@2@@std@@V?$allocator@V?$basic_string@DU?$char_traits@D@std@@V?$allocator@D@2@@std@@@2@@std@@@2@@std@@QAEPAV?$vector@V?$basic_string@DU?$char_traits@D@std@@V?$allocator@D@2@@std@@V?$allocator@V?$basic_string@DU?$char_traits@D@std@@V?$allocator@D@2@@std@@@2@@2@XZ @ 931 NONAME ; public: class std::vector<class std::basic_string<char,struct std::char_traits<char>,class std::allocator<char> >,class std::allocator<class std::basic_string<char,struct std::char_traits<char>,class std::allocator<char> > > > * __thiscall std::vector<class std::vector<class std::basic_string<char,struct std::char_traits<char>,class std::allocator<char> >,class std::allocator<class std::basic_string<char,struct std::char_traits<char>,class std::allocator<char> > > >,class std::allocator<class std::vector<c
 ?push_back@?$vector@V?$vector@V?$basic_string@DU?$char_traits@D@std@@V?$allocator@D@2@@std@@V?$allocator@V?$basic_string@DU?$char_traits@D@std@@V?$allocator@D@2@@std@@@2@@std@@V?$allocator@V?$vector@V?$basic_string@DU?$char_traits@D@std@@V?$allocator@D@2@@std@@V?$allocator@V?$basic_string@DU?$char_traits@D@std@@V?$allocator@D@2@@std@@@2@@std@@@2@@std@@QAEXABV?$vector@V?$basic_string@DU?$char_traits@D@std@@V?$allocator@D@2@@std@@V?$allocator@V?$basic_string@DU?$char_traits@D@std@@V?$allocator@D@2@@std@@@2@@2@@Z @ 932 NONAME ; public: void __thiscall std::vector<class std::vector<class std::basic_string<char,struct std::char_traits<char>,class std::allocator<char> >,class std::allocator<class std::basic_string<char,struct std::char_traits<char>,class std::allocator<char> > > >,class std::allocator<class std::vector<class std::basic_string<char,struct std::char_traits<char>,class std::allocator<char> >,class std::allocator<class std::basic_string<char,struct std::char_traits<char>,class std::allocator<char> > > > > >::push_back(c
 ??0?$pair@IN@std@@QAE@XZ @ 933 NONAME ; public: __thiscall std::pair<unsigned int,double>::pair<unsigned int,double>(void)
 ??0?$vector@U?$pair@IN@std@@V?$allocator@U?$pair@IN@std@@@2@@std@@QAE@ABV?$allocator@U?$pair@IN@std@@@1@@Z @ 934 NONAME ; public: __thiscall std::vector<struct std::pair<unsigned int,double>,class std::allocator<struct std::pair<unsigned int,double> > >::vector<struct std::pair<unsigned int,double>,class std::allocator<struct std::pair<unsigned int,double> > >(class std::allocator<struct std::pair<unsigned int,double> > const &)
 ??1?$vector@U?$pair@IN@std@@V?$allocator@U?$pair@IN@std@@@2@@std@@QAE@XZ @ 935 NONAME ; public: __thiscall std::vector<struct std::pair<unsigned int,double>,class std::allocator<struct std::pair<unsigned int,double> > >::~vector<struct std::pair<unsigned int,double>,class std::allocator<struct std::pair<unsigned int,double> > >(void)
 ?size@?$vector@U?$pair@IN@std@@V?$allocator@U?$pair@IN@std@@@2@@std@@QBEIXZ @ 936 NONAME ; public: unsigned int __thiscall std::vector<struct std::pair<unsigned int,double>,class std::allocator<struct std::pair<unsigned int,double> > >::size(void)const 
 ??A?$vector@U?$pair@IN@std@@V?$allocator@U?$pair@IN@std@@@2@@std@@QAEAAU?$pair@IN@1@I@Z @ 937 NONAME ; public: struct std::pair<unsigned int,double> & __thiscall std::vector<struct std::pair<unsigned int,double>,class std::allocator<struct std::pair<unsigned int,double> > >::operator[](unsigned int)
 ?push_back@?$vector@U?$pair@IN@std@@V?$allocator@U?$pair@IN@std@@@2@@std@@QAEXABU?$pair@IN@2@@Z @ 938 NONAME ; public: void __thiscall std::vector<struct std::pair<unsigned int,double>,class std::allocator<struct std::pair<unsigned int,double> > >::push_back(struct std::pair<unsigned int,double> const &)
 ?insert@?$vector@PAVOBElement@OpenBabel@@V?$allocator@PAVOBElement@OpenBabel@@@std@@@std@@QAEPAPAVOBElement@OpenBabel@@PAPAV34@ABQAV34@@Z @ 939 NONAME ; public: class OpenBabel::OBElement * * __thiscall std::vector<class OpenBabel::OBElement *,class std::allocator<class OpenBabel::OBElement *> >::insert(class OpenBabel::OBElement * *,class OpenBabel::OBElement * const &)
 ?_Destroy@?$vector@PAVOBElement@OpenBabel@@V?$allocator@PAVOBElement@OpenBabel@@@std@@@std@@IAEXPAPAVOBElement@OpenBabel@@0@Z @ 940 NONAME ; protected: void __thiscall std::vector<class OpenBabel::OBElement *,class std::allocator<class OpenBabel::OBElement *> >::_Destroy(class OpenBabel::OBElement * *,class OpenBabel::OBElement * *)
 ?deallocate@?$allocator@PAVOBElement@OpenBabel@@@std@@QAEXPAXI@Z @ 941 NONAME ; public: void __thiscall std::allocator<class OpenBabel::OBElement *>::deallocate(void *,unsigned int)
 ?begin@?$vector@V?$vector@U?$pair@IN@std@@V?$allocator@U?$pair@IN@std@@@2@@std@@V?$allocator@V?$vector@U?$pair@IN@std@@V?$allocator@U?$pair@IN@std@@@2@@std@@@2@@std@@QAEPAV?$vector@U?$pair@IN@std@@V?$allocator@U?$pair@IN@std@@@2@@2@XZ @ 942 NONAME ; public: class std::vector<struct std::pair<unsigned int,double>,class std::allocator<struct std::pair<unsigned int,double> > > * __thiscall std::vector<class std::vector<struct std::pair<unsigned int,double>,class std::allocator<struct std::pair<unsigned int,double> > >,class std::allocator<class std::vector<struct std::pair<unsigned int,double>,class std::allocator<struct std::pair<unsigned int,double> > > > >::begin(void)
 ?end@?$vector@V?$vector@U?$pair@IN@std@@V?$allocator@U?$pair@IN@std@@@2@@std@@V?$allocator@V?$vector@U?$pair@IN@std@@V?$allocator@U?$pair@IN@std@@@2@@std@@@2@@std@@QAEPAV?$vector@U?$pair@IN@std@@V?$allocator@U?$pair@IN@std@@@2@@2@XZ @ 943 NONAME ; public: class std::vector<struct std::pair<unsigned int,double>,class std::allocator<struct std::pair<unsigned int,double> > > * __thiscall std::vector<class std::vector<struct std::pair<unsigned int,double>,class std::allocator<struct std::pair<unsigned int,double> > >,class std::allocator<class std::vector<struct std::pair<unsigned int,double>,class std::allocator<struct std::pair<unsigned int,double> > > > >::end(void)
 ?insert@?$vector@V?$vector@U?$pair@IN@std@@V?$allocator@U?$pair@IN@std@@@2@@std@@V?$allocator@V?$vector@U?$pair@IN@std@@V?$allocator@U?$pair@IN@std@@@2@@std@@@2@@std@@QAEPAV?$vector@U?$pair@IN@std@@V?$allocator@U?$pair@IN@std@@@2@@2@PAV32@ABV32@@Z @ 944 NONAME ; public: class std::vector<struct std::pair<unsigned int,double>,class std::allocator<struct std::pair<unsigned int,double> > > * __thiscall std::vector<class std::vector<struct std::pair<unsigned int,double>,class std::allocator<struct std::pair<unsigned int,double> > >,class std::allocator<class std::vector<struct std::pair<unsigned int,double>,class std::allocator<struct std::pair<unsigned int,double> > > > >::insert(class std::vector<struct std::pair<unsigned int,double>,class std::allocator<struct std:
 ?_Destroy@?$vector@V?$vector@U?$pair@IN@std@@V?$allocator@U?$pair@IN@std@@@2@@std@@V?$allocator@V?$vector@U?$pair@IN@std@@V?$allocator@U?$pair@IN@std@@@2@@std@@@2@@std@@IAEXPAV?$vector@U?$pair@IN@std@@V?$allocator@U?$pair@IN@std@@@2@@2@0@Z @ 945 NONAME ; protected: void __thiscall std::vector<class std::vector<struct std::pair<unsigned int,double>,class std::allocator<struct std::pair<unsigned int,double> > >,class std::allocator<class std::vector<struct std::pair<unsigned int,double>,class std::allocator<struct std::pair<unsigned int,double> > > > >::_Destroy(class std::vector<struct std::pair<unsigned int,double>,class std::allocator<struct std::pair<unsigned int,double> > > *,class std::vector<struct std::pair<unsigned int,double>,class std::allocator<s
 ?deallocate@?$allocator@V?$vector@U?$pair@IN@std@@V?$allocator@U?$pair@IN@std@@@2@@std@@@std@@QAEXPAXI@Z @ 946 NONAME ; public: void __thiscall std::allocator<class std::vector<struct std::pair<unsigned int,double>,class std::allocator<struct std::pair<unsigned int,double> > > >::deallocate(void *,unsigned int)
 ?insert@?$vector@V?$vector@V?$basic_string@DU?$char_traits@D@std@@V?$allocator@D@2@@std@@V?$allocator@V?$basic_string@DU?$char_traits@D@std@@V?$allocator@D@2@@std@@@2@@std@@V?$allocator@V?$vector@V?$basic_string@DU?$char_traits@D@std@@V?$allocator@D@2@@std@@V?$allocator@V?$basic_string@DU?$char_traits@D@std@@V?$allocator@D@2@@std@@@2@@std@@@2@@std@@QAEPAV?$vector@V?$basic_string@DU?$char_traits@D@std@@V?$allocator@D@2@@std@@V?$allocator@V?$basic_string@DU?$char_traits@D@std@@V?$allocator@D@2@@std@@@2@@2@PAV32@ABV32@@Z @ 947 NONAME ; public: class std::vector<class std::basic_string<char,struct std::char_traits<char>,class std::allocator<char> >,class std::allocator<class std::basic_string<char,struct std::char_traits<char>,class std::allocator<char> > > > * __thiscall std::vector<class std::vector<class std::basic_string<char,struct std::char_traits<char>,class std::allocator<char> >,class std::allocator<class std::basic_string<char,struct std::char_traits<char>,class std::allocator<char> > > >,class std::allocator<class std::vector<c
 ?begin@?$vector@U?$pair@IN@std@@V?$allocator@U?$pair@IN@std@@@2@@std@@QAEPAU?$pair@IN@2@XZ @ 948 NONAME ; public: struct std::pair<unsigned int,double> * __thiscall std::vector<struct std::pair<unsigned int,double>,class std::allocator<struct std::pair<unsigned int,double> > >::begin(void)
 ?end@?$vector@U?$pair@IN@std@@V?$allocator@U?$pair@IN@std@@@2@@std@@QAEPAU?$pair@IN@2@XZ @ 949 NONAME ; public: struct std::pair<unsigned int,double> * __thiscall std::vector<struct std::pair<unsigned int,double>,class std::allocator<struct std::pair<unsigned int,double> > >::end(void)
 ?insert@?$vector@U?$pair@IN@std@@V?$allocator@U?$pair@IN@std@@@2@@std@@QAEPAU?$pair@IN@2@PAU32@ABU32@@Z @ 950 NONAME ; public: struct std::pair<unsigned int,double> * __thiscall std::vector<struct std::pair<unsigned int,double>,class std::allocator<struct std::pair<unsigned int,double> > >::insert(struct std::pair<unsigned int,double> *,struct std::pair<unsigned int,double> const &)
 ?_Destroy@?$vector@U?$pair@IN@std@@V?$allocator@U?$pair@IN@std@@@2@@std@@IAEXPAU?$pair@IN@2@0@Z @ 951 NONAME ; protected: void __thiscall std::vector<struct std::pair<unsigned int,double>,class std::allocator<struct std::pair<unsigned int,double> > >::_Destroy(struct std::pair<unsigned int,double> *,struct std::pair<unsigned int,double> *)
 ?deallocate@?$allocator@U?$pair@IN@std@@@std@@QAEXPAXI@Z @ 952 NONAME ; public: void __thiscall std::allocator<struct std::pair<unsigned int,double> >::deallocate(void *,unsigned int)
 ?insert@?$vector@PAVOBElement@OpenBabel@@V?$allocator@PAVOBElement@OpenBabel@@@std@@@std@@QAEXPAPAVOBElement@OpenBabel@@IABQAV34@@Z @ 953 NONAME ; public: void __thiscall std::vector<class OpenBabel::OBElement *,class std::allocator<class OpenBabel::OBElement *> >::insert(class OpenBabel::OBElement * *,unsigned int,class OpenBabel::OBElement * const &)
 ?destroy@?$allocator@PAVOBElement@OpenBabel@@@std@@QAEXPAPAVOBElement@OpenBabel@@@Z @ 954 NONAME ; public: void __thiscall std::allocator<class OpenBabel::OBElement *>::destroy(class OpenBabel::OBElement * *)
 ?insert@?$vector@V?$vector@U?$pair@IN@std@@V?$allocator@U?$pair@IN@std@@@2@@std@@V?$allocator@V?$vector@U?$pair@IN@std@@V?$allocator@U?$pair@IN@std@@@2@@std@@@2@@std@@QAEXPAV?$vector@U?$pair@IN@std@@V?$allocator@U?$pair@IN@std@@@2@@2@IABV32@@Z @ 955 NONAME ; public: void __thiscall std::vector<class std::vector<struct std::pair<unsigned int,double>,class std::allocator<struct std::pair<unsigned int,double> > >,class std::allocator<class std::vector<struct std::pair<unsigned int,double>,class std::allocator<struct std::pair<unsigned int,double> > > > >::insert(class std::vector<struct std::pair<unsigned int,double>,class std::allocator<struct std::pair<unsigned int,double> > > *,unsigned int,class std::vector<struct std::pair<unsigned int,double>,class std::all
 ?destroy@?$allocator@V?$vector@U?$pair@IN@std@@V?$allocator@U?$pair@IN@std@@@2@@std@@@std@@QAEXPAV?$vector@U?$pair@IN@std@@V?$allocator@U?$pair@IN@std@@@2@@2@@Z @ 956 NONAME ; public: void __thiscall std::allocator<class std::vector<struct std::pair<unsigned int,double>,class std::allocator<struct std::pair<unsigned int,double> > > >::destroy(class std::vector<struct std::pair<unsigned int,double>,class std::allocator<struct std::pair<unsigned int,double> > > *)
 ?insert@?$vector@V?$vector@V?$basic_string@DU?$char_traits@D@std@@V?$allocator@D@2@@std@@V?$allocator@V?$basic_string@DU?$char_traits@D@std@@V?$allocator@D@2@@std@@@2@@std@@V?$allocator@V?$vector@V?$basic_string@DU?$char_traits@D@std@@V?$allocator@D@2@@std@@V?$allocator@V?$basic_string@DU?$char_traits@D@std@@V?$allocator@D@2@@std@@@2@@std@@@2@@std@@QAEXPAV?$vector@V?$basic_string@DU?$char_traits@D@std@@V?$allocator@D@2@@std@@V?$allocator@V?$basic_string@DU?$char_traits@D@std@@V?$allocator@D@2@@std@@@2@@2@IABV32@@Z @ 957 NONAME ; public: void __thiscall std::vector<class std::vector<class std::basic_string<char,struct std::char_traits<char>,class std::allocator<char> >,class std::allocator<class std::basic_string<char,struct std::char_traits<char>,class std::allocator<char> > > >,class std::allocator<class std::vector<class std::basic_string<char,struct std::char_traits<char>,class std::allocator<char> >,class std::allocator<class std::basic_string<char,struct std::char_traits<char>,class std::allocator<char> > > > > >::insert(clas
 ?insert@?$vector@U?$pair@IN@std@@V?$allocator@U?$pair@IN@std@@@2@@std@@QAEXPAU?$pair@IN@2@IABU32@@Z @ 958 NONAME ; public: void __thiscall std::vector<struct std::pair<unsigned int,double>,class std::allocator<struct std::pair<unsigned int,double> > >::insert(struct std::pair<unsigned int,double> *,unsigned int,struct std::pair<unsigned int,double> const &)
 ?destroy@?$allocator@U?$pair@IN@std@@@std@@QAEXPAU?$pair@IN@2@@Z @ 959 NONAME ; public: void __thiscall std::allocator<struct std::pair<unsigned int,double> >::destroy(struct std::pair<unsigned int,double> *)
 ?_Ucopy@?$vector@PAVOBElement@OpenBabel@@V?$allocator@PAVOBElement@OpenBabel@@@std@@@std@@IAEPAPAVOBElement@OpenBabel@@PBQAV34@0PAPAV34@@Z @ 960 NONAME ; protected: class OpenBabel::OBElement * * __thiscall std::vector<class OpenBabel::OBElement *,class std::allocator<class OpenBabel::OBElement *> >::_Ucopy(class OpenBabel::OBElement * const *,class OpenBabel::OBElement * const *,class OpenBabel::OBElement * *)
 ?_Ufill@?$vector@PAVOBElement@OpenBabel@@V?$allocator@PAVOBElement@OpenBabel@@@std@@@std@@IAEXPAPAVOBElement@OpenBabel@@IABQAV34@@Z @ 961 NONAME ; protected: void __thiscall std::vector<class OpenBabel::OBElement *,class std::allocator<class OpenBabel::OBElement *> >::_Ufill(class OpenBabel::OBElement * *,unsigned int,class OpenBabel::OBElement * const &)
 ?allocate@?$allocator@PAVOBElement@OpenBabel@@@std@@QAEPAPAVOBElement@OpenBabel@@IPBX@Z @ 962 NONAME ; public: class OpenBabel::OBElement * * __thiscall std::allocator<class OpenBabel::OBElement *>::allocate(unsigned int,void const *)
 ?_Ucopy@?$vector@V?$vector@U?$pair@IN@std@@V?$allocator@U?$pair@IN@std@@@2@@std@@V?$allocator@V?$vector@U?$pair@IN@std@@V?$allocator@U?$pair@IN@std@@@2@@std@@@2@@std@@IAEPAV?$vector@U?$pair@IN@std@@V?$allocator@U?$pair@IN@std@@@2@@2@PBV32@0PAV32@@Z @ 963 NONAME ; protected: class std::vector<struct std::pair<unsigned int,double>,class std::allocator<struct std::pair<unsigned int,double> > > * __thiscall std::vector<class std::vector<struct std::pair<unsigned int,double>,class std::allocator<struct std::pair<unsigned int,double> > >,class std::allocator<class std::vector<struct std::pair<unsigned int,double>,class std::allocator<struct std::pair<unsigned int,double> > > > >::_Ucopy(class std::vector<struct std::pair<unsigned int,double>,class std::allocator<struct s
 ?_Ufill@?$vector@V?$vector@U?$pair@IN@std@@V?$allocator@U?$pair@IN@std@@@2@@std@@V?$allocator@V?$vector@U?$pair@IN@std@@V?$allocator@U?$pair@IN@std@@@2@@std@@@2@@std@@IAEXPAV?$vector@U?$pair@IN@std@@V?$allocator@U?$pair@IN@std@@@2@@2@IABV32@@Z @ 964 NONAME ; protected: void __thiscall std::vector<class std::vector<struct std::pair<unsigned int,double>,class std::allocator<struct std::pair<unsigned int,double> > >,class std::allocator<class std::vector<struct std::pair<unsigned int,double>,class std::allocator<struct std::pair<unsigned int,double> > > > >::_Ufill(class std::vector<struct std::pair<unsigned int,double>,class std::allocator<struct std::pair<unsigned int,double> > > *,unsigned int,class std::vector<struct std::pair<unsigned int,double>,class std::
 ?allocate@?$allocator@V?$vector@U?$pair@IN@std@@V?$allocator@U?$pair@IN@std@@@2@@std@@@std@@QAEPAV?$vector@U?$pair@IN@std@@V?$allocator@U?$pair@IN@std@@@2@@2@IPBX@Z @ 965 NONAME ; public: class std::vector<struct std::pair<unsigned int,double>,class std::allocator<struct std::pair<unsigned int,double> > > * __thiscall std::allocator<class std::vector<struct std::pair<unsigned int,double>,class std::allocator<struct std::pair<unsigned int,double> > > >::allocate(unsigned int,void const *)
 ?size@?$vector@V?$vector@V?$basic_string@DU?$char_traits@D@std@@V?$allocator@D@2@@std@@V?$allocator@V?$basic_string@DU?$char_traits@D@std@@V?$allocator@D@2@@std@@@2@@std@@V?$allocator@V?$vector@V?$basic_string@DU?$char_traits@D@std@@V?$allocator@D@2@@std@@V?$allocator@V?$basic_string@DU?$char_traits@D@std@@V?$allocator@D@2@@std@@@2@@std@@@2@@std@@QBEIXZ @ 966 NONAME ; public: unsigned int __thiscall std::vector<class std::vector<class std::basic_string<char,struct std::char_traits<char>,class std::allocator<char> >,class std::allocator<class std::basic_string<char,struct std::char_traits<char>,class std::allocator<char> > > >,class std::allocator<class std::vector<class std::basic_string<char,struct std::char_traits<char>,class std::allocator<char> >,class std::allocator<class std::basic_string<char,struct std::char_traits<char>,class std::allocator<char> > > > > >::siz
 ?_Ucopy@?$vector@V?$vector@V?$basic_string@DU?$char_traits@D@std@@V?$allocator@D@2@@std@@V?$allocator@V?$basic_string@DU?$char_traits@D@std@@V?$allocator@D@2@@std@@@2@@std@@V?$allocator@V?$vector@V?$basic_string@DU?$char_traits@D@std@@V?$allocator@D@2@@std@@V?$allocator@V?$basic_string@DU?$char_traits@D@std@@V?$allocator@D@2@@std@@@2@@std@@@2@@std@@IAEPAV?$vector@V?$basic_string@DU?$char_traits@D@std@@V?$allocator@D@2@@std@@V?$allocator@V?$basic_string@DU?$char_traits@D@std@@V?$allocator@D@2@@std@@@2@@2@PBV32@0PAV32@@Z @ 967 NONAME ; protected: class std::vector<class std::basic_string<char,struct std::char_traits<char>,class std::allocator<char> >,class std::allocator<class std::basic_string<char,struct std::char_traits<char>,class std::allocator<char> > > > * __thiscall std::vector<class std::vector<class std::basic_string<char,struct std::char_traits<char>,class std::allocator<char> >,class std::allocator<class std::basic_string<char,struct std::char_traits<char>,class std::allocator<char> > > >,class std::allocator<class std::vecto
 ?_Ufill@?$vector@V?$vector@V?$basic_string@DU?$char_traits@D@std@@V?$allocator@D@2@@std@@V?$allocator@V?$basic_string@DU?$char_traits@D@std@@V?$allocator@D@2@@std@@@2@@std@@V?$allocator@V?$vector@V?$basic_string@DU?$char_traits@D@std@@V?$allocator@D@2@@std@@V?$allocator@V?$basic_string@DU?$char_traits@D@std@@V?$allocator@D@2@@std@@@2@@std@@@2@@std@@IAEXPAV?$vector@V?$basic_string@DU?$char_traits@D@std@@V?$allocator@D@2@@std@@V?$allocator@V?$basic_string@DU?$char_traits@D@std@@V?$allocator@D@2@@std@@@2@@2@IABV32@@Z @ 968 NONAME ; protected: void __thiscall std::vector<class std::vector<class std::basic_string<char,struct std::char_traits<char>,class std::allocator<char> >,class std::allocator<class std::basic_string<char,struct std::char_traits<char>,class std::allocator<char> > > >,class std::allocator<class std::vector<class std::basic_string<char,struct std::char_traits<char>,class std::allocator<char> >,class std::allocator<class std::basic_string<char,struct std::char_traits<char>,class std::allocator<char> > > > > >::_Ufill(c
 ?allocate@?$allocator@V?$vector@V?$basic_string@DU?$char_traits@D@std@@V?$allocator@D@2@@std@@V?$allocator@V?$basic_string@DU?$char_traits@D@std@@V?$allocator@D@2@@std@@@2@@std@@@std@@QAEPAV?$vector@V?$basic_string@DU?$char_traits@D@std@@V?$allocator@D@2@@std@@V?$allocator@V?$basic_string@DU?$char_traits@D@std@@V?$allocator@D@2@@std@@@2@@2@IPBX@Z @ 969 NONAME ; public: class std::vector<class std::basic_string<char,struct std::char_traits<char>,class std::allocator<char> >,class std::allocator<class std::basic_string<char,struct std::char_traits<char>,class std::allocator<char> > > > * __thiscall std::allocator<class std::vector<class std::basic_string<char,struct std::char_traits<char>,class std::allocator<char> >,class std::allocator<class std::basic_string<char,struct std::char_traits<char>,class std::allocator<char> > > > >::allocate(unsigned int,void const *
 ?_Ucopy@?$vector@U?$pair@IN@std@@V?$allocator@U?$pair@IN@std@@@2@@std@@IAEPAU?$pair@IN@2@PBU32@0PAU32@@Z @ 970 NONAME ; protected: struct std::pair<unsigned int,double> * __thiscall std::vector<struct std::pair<unsigned int,double>,class std::allocator<struct std::pair<unsigned int,double> > >::_Ucopy(struct std::pair<unsigned int,double> const *,struct std::pair<unsigned int,double> const *,struct std::pair<unsigned int,double> *)
 ?_Ufill@?$vector@U?$pair@IN@std@@V?$allocator@U?$pair@IN@std@@@2@@std@@IAEXPAU?$pair@IN@2@IABU32@@Z @ 971 NONAME ; protected: void __thiscall std::vector<struct std::pair<unsigned int,double>,class std::allocator<struct std::pair<unsigned int,double> > >::_Ufill(struct std::pair<unsigned int,double> *,unsigned int,struct std::pair<unsigned int,double> const &)
 ?allocate@?$allocator@U?$pair@IN@std@@@std@@QAEPAU?$pair@IN@2@IPBX@Z @ 972 NONAME ; public: struct std::pair<unsigned int,double> * __thiscall std::allocator<struct std::pair<unsigned int,double> >::allocate(unsigned int,void const *)
 ?construct@?$allocator@PAVOBElement@OpenBabel@@@std@@QAEXPAPAVOBElement@OpenBabel@@ABQAV34@@Z @ 973 NONAME ; public: void __thiscall std::allocator<class OpenBabel::OBElement *>::construct(class OpenBabel::OBElement * *,class OpenBabel::OBElement * const &)
 ?construct@?$allocator@V?$vector@U?$pair@IN@std@@V?$allocator@U?$pair@IN@std@@@2@@std@@@std@@QAEXPAV?$vector@U?$pair@IN@std@@V?$allocator@U?$pair@IN@std@@@2@@2@ABV32@@Z @ 974 NONAME ; public: void __thiscall std::allocator<class std::vector<struct std::pair<unsigned int,double>,class std::allocator<struct std::pair<unsigned int,double> > > >::construct(class std::vector<struct std::pair<unsigned int,double>,class std::allocator<struct std::pair<unsigned int,double> > > *,class std::vector<struct std::pair<unsigned int,double>,class std::allocator<struct std::pair<unsigned int,double> > > const &)
 ?construct@?$allocator@V?$vector@V?$basic_string@DU?$char_traits@D@std@@V?$allocator@D@2@@std@@V?$allocator@V?$basic_string@DU?$char_traits@D@std@@V?$allocator@D@2@@std@@@2@@std@@@std@@QAEXPAV?$vector@V?$basic_string@DU?$char_traits@D@std@@V?$allocator@D@2@@std@@V?$allocator@V?$basic_string@DU?$char_traits@D@std@@V?$allocator@D@2@@std@@@2@@2@ABV32@@Z @ 975 NONAME ; public: void __thiscall std::allocator<class std::vector<class std::basic_string<char,struct std::char_traits<char>,class std::allocator<char> >,class std::allocator<class std::basic_string<char,struct std::char_traits<char>,class std::allocator<char> > > > >::construct(class std::vector<class std::basic_string<char,struct std::char_traits<char>,class std::allocator<char> >,class std::allocator<class std::basic_string<char,struct std::char_traits<char>,class std::allocator<char> > > > *,class std::vector<c
 ?construct@?$allocator@U?$pair@IN@std@@@std@@QAEXPAU?$pair@IN@2@ABU32@@Z @ 976 NONAME ; public: void __thiscall std::allocator<struct std::pair<unsigned int,double> >::construct(struct std::pair<unsigned int,double> *,struct std::pair<unsigned int,double> const &)
 ?fill@std@@YAXPAPAVOBElement@OpenBabel@@0ABQAV23@@Z @ 977 NONAME ; void __cdecl std::fill(class OpenBabel::OBElement * *,class OpenBabel::OBElement * *,class OpenBabel::OBElement * const &)
 ?copy_backward@std@@YAPAPAVOBElement@OpenBabel@@PAPAV23@00@Z @ 978 NONAME ; class OpenBabel::OBElement * * __cdecl std::copy_backward(class OpenBabel::OBElement * *,class OpenBabel::OBElement * *,class OpenBabel::OBElement * *)
 ?_Destroy@std@@YAXPAPAVOBElement@OpenBabel@@@Z @ 979 NONAME ; void __cdecl std::_Destroy(class OpenBabel::OBElement * *)
 ?fill@std@@YAXPAV?$vector@U?$pair@IN@std@@V?$allocator@U?$pair@IN@std@@@2@@1@0ABV21@@Z @ 980 NONAME ; void __cdecl std::fill(class std::vector<struct std::pair<unsigned int,double>,class std::allocator<struct std::pair<unsigned int,double> > > *,class std::vector<struct std::pair<unsigned int,double>,class std::allocator<struct std::pair<unsigned int,double> > > *,class std::vector<struct std::pair<unsigned int,double>,class std::allocator<struct std::pair<unsigned int,double> > > const &)
 ?copy_backward@std@@YAPAV?$vector@U?$pair@IN@std@@V?$allocator@U?$pair@IN@std@@@2@@1@PAV21@00@Z @ 981 NONAME ; class std::vector<struct std::pair<unsigned int,double>,class std::allocator<struct std::pair<unsigned int,double> > > * __cdecl std::copy_backward(class std::vector<struct std::pair<unsigned int,double>,class std::allocator<struct std::pair<unsigned int,double> > > *,class std::vector<struct std::pair<unsigned int,double>,class std::allocator<struct std::pair<unsigned int,double> > > *,class std::vector<struct std::pair<unsigned int,double>,class std::allocator<struct std::pair<unsigned int,double> > > *)
 ?_Destroy@std@@YAXPAV?$vector@U?$pair@IN@std@@V?$allocator@U?$pair@IN@std@@@2@@1@@Z @ 982 NONAME ; void __cdecl std::_Destroy(class std::vector<struct std::pair<unsigned int,double>,class std::allocator<struct std::pair<unsigned int,double> > > *)
 ?fill@std@@YAXPAV?$vector@V?$basic_string@DU?$char_traits@D@std@@V?$allocator@D@2@@std@@V?$allocator@V?$basic_string@DU?$char_traits@D@std@@V?$allocator@D@2@@std@@@2@@1@0ABV21@@Z @ 983 NONAME ; void __cdecl std::fill(class std::vector<class std::basic_string<char,struct std::char_traits<char>,class std::allocator<char> >,class std::allocator<class std::basic_string<char,struct std::char_traits<char>,class std::allocator<char> > > > *,class std::vector<class std::basic_string<char,struct std::char_traits<char>,class std::allocator<char> >,class std::allocator<class std::basic_string<char,struct std::char_traits<char>,class std::allocator<char> > > > *,class std::vector<class std::basic_string<char
 ?copy_backward@std@@YAPAV?$vector@V?$basic_string@DU?$char_traits@D@std@@V?$allocator@D@2@@std@@V?$allocator@V?$basic_string@DU?$char_traits@D@std@@V?$allocator@D@2@@std@@@2@@1@PAV21@00@Z @ 984 NONAME ; class std::vector<class std::basic_string<char,struct std::char_traits<char>,class std::allocator<char> >,class std::allocator<class std::basic_string<char,struct std::char_traits<char>,class std::allocator<char> > > > * __cdecl std::copy_backward(class std::vector<class std::basic_string<char,struct std::char_traits<char>,class std::allocator<char> >,class std::allocator<class std::basic_string<char,struct std::char_traits<char>,class std::allocator<char> > > > *,class std::vector<class std::basic_string<
 ?fill@std@@YAXPAU?$pair@IN@1@0ABU21@@Z @ 985 NONAME ; void __cdecl std::fill(struct std::pair<unsigned int,double> *,struct std::pair<unsigned int,double> *,struct std::pair<unsigned int,double> const &)
 ?copy_backward@std@@YAPAU?$pair@IN@1@PAU21@00@Z @ 986 NONAME ; struct std::pair<unsigned int,double> * __cdecl std::copy_backward(struct std::pair<unsigned int,double> *,struct std::pair<unsigned int,double> *,struct std::pair<unsigned int,double> *)
 ?_Destroy@std@@YAXPAU?$pair@IN@1@@Z @ 987 NONAME ; void __cdecl std::_Destroy(struct std::pair<unsigned int,double> *)
 ?_Allocate@std@@YAPAPAVOBElement@OpenBabel@@HPAPAV23@@Z @ 988 NONAME ; class OpenBabel::OBElement * * __cdecl std::_Allocate(int,class OpenBabel::OBElement * *)
 ?_Allocate@std@@YAPAV?$vector@U?$pair@IN@std@@V?$allocator@U?$pair@IN@std@@@2@@1@HPAV21@@Z @ 989 NONAME ; class std::vector<struct std::pair<unsigned int,double>,class std::allocator<struct std::pair<unsigned int,double> > > * __cdecl std::_Allocate(int,class std::vector<struct std::pair<unsigned int,double>,class std::allocator<struct std::pair<unsigned int,double> > > *)
 ?_Allocate@std@@YAPAV?$vector@V?$basic_string@DU?$char_traits@D@std@@V?$allocator@D@2@@std@@V?$allocator@V?$basic_string@DU?$char_traits@D@std@@V?$allocator@D@2@@std@@@2@@1@HPAV21@@Z @ 990 NONAME ; class std::vector<class std::basic_string<char,struct std::char_traits<char>,class std::allocator<char> >,class std::allocator<class std::basic_string<char,struct std::char_traits<char>,class std::allocator<char> > > > * __cdecl std::_Allocate(int,class std::vector<class std::basic_string<char,struct std::char_traits<char>,class std::allocator<char> >,class std::allocator<class std::basic_string<char,struct std::char_traits<char>,class std::allocator<char> > > > *)
 ?_Allocate@std@@YAPAU?$pair@IN@1@HPAU21@@Z @ 991 NONAME ; struct std::pair<unsigned int,double> * __cdecl std::_Allocate(int,struct std::pair<unsigned int,double> *)
 ?_Construct@std@@YAXPAPAVOBElement@OpenBabel@@ABQAV23@@Z @ 992 NONAME ; void __cdecl std::_Construct(class OpenBabel::OBElement * *,class OpenBabel::OBElement * const &)
 ?_Construct@std@@YAXPAV?$vector@U?$pair@IN@std@@V?$allocator@U?$pair@IN@std@@@2@@1@ABV21@@Z @ 993 NONAME ; void __cdecl std::_Construct(class std::vector<struct std::pair<unsigned int,double>,class std::allocator<struct std::pair<unsigned int,double> > > *,class std::vector<struct std::pair<unsigned int,double>,class std::allocator<struct std::pair<unsigned int,double> > > const &)
 ?_Construct@std@@YAXPAV?$vector@V?$basic_string@DU?$char_traits@D@std@@V?$allocator@D@2@@std@@V?$allocator@V?$basic_string@DU?$char_traits@D@std@@V?$allocator@D@2@@std@@@2@@1@ABV21@@Z @ 994 NONAME ; void __cdecl std::_Construct(class std::vector<class std::basic_string<char,struct std::char_traits<char>,class std::allocator<char> >,class std::allocator<class std::basic_string<char,struct std::char_traits<char>,class std::allocator<char> > > > *,class std::vector<class std::basic_string<char,struct std::char_traits<char>,class std::allocator<char> >,class std::allocator<class std::basic_string<char,struct std::char_traits<char>,class std::allocator<char> > > > const &)
 ?_Construct@std@@YAXPAU?$pair@IN@1@ABU21@@Z @ 995 NONAME ; void __cdecl std::_Construct(struct std::pair<unsigned int,double> *,struct std::pair<unsigned int,double> const &)
 ??0?$vector@V?$basic_string@DU?$char_traits@D@std@@V?$allocator@D@2@@std@@V?$allocator@V?$basic_string@DU?$char_traits@D@std@@V?$allocator@D@2@@std@@@2@@std@@QAE@ABV01@@Z @ 996 NONAME ; public: __thiscall std::vector<class std::basic_string<char,struct std::char_traits<char>,class std::allocator<char> >,class std::allocator<class std::basic_string<char,struct std::char_traits<char>,class std::allocator<char> > > >::vector<class std::basic_string<char,struct std::char_traits<char>,class std::allocator<char> >,class std::allocator<class std::basic_string<char,struct std::char_traits<char>,class std::allocator<char> > > >(class std::vector<class std::basic_string<char,struct std::char_traits
 ??4?$vector@V?$basic_string@DU?$char_traits@D@std@@V?$allocator@D@2@@std@@V?$allocator@V?$basic_string@DU?$char_traits@D@std@@V?$allocator@D@2@@std@@@2@@std@@QAEAAV01@ABV01@@Z @ 997 NONAME ; public: class std::vector<class std::basic_string<char,struct std::char_traits<char>,class std::allocator<char> >,class std::allocator<class std::basic_string<char,struct std::char_traits<char>,class std::allocator<char> > > > & __thiscall std::vector<class std::basic_string<char,struct std::char_traits<char>,class std::allocator<char> >,class std::allocator<class std::basic_string<char,struct std::char_traits<char>,class std::allocator<char> > > >::operator=(class std::vector<class std::basic_string<char,
 ??0?$vector@U?$pair@IN@std@@V?$allocator@U?$pair@IN@std@@@2@@std@@QAE@ABV01@@Z @ 998 NONAME ; public: __thiscall std::vector<struct std::pair<unsigned int,double>,class std::allocator<struct std::pair<unsigned int,double> > >::vector<struct std::pair<unsigned int,double>,class std::allocator<struct std::pair<unsigned int,double> > >(class std::vector<struct std::pair<unsigned int,double>,class std::allocator<struct std::pair<unsigned int,double> > > const &)
 ??4?$vector@U?$pair@IN@std@@V?$allocator@U?$pair@IN@std@@@2@@std@@QAEAAV01@ABV01@@Z @ 999 NONAME ; public: class std::vector<struct std::pair<unsigned int,double>,class std::allocator<struct std::pair<unsigned int,double> > > & __thiscall std::vector<struct std::pair<unsigned int,double>,class std::allocator<struct std::pair<unsigned int,double> > >::operator=(class std::vector<struct std::pair<unsigned int,double>,class std::allocator<struct std::pair<unsigned int,double> > > const &)
 ?capacity@?$vector@V?$basic_string@DU?$char_traits@D@std@@V?$allocator@D@2@@std@@V?$allocator@V?$basic_string@DU?$char_traits@D@std@@V?$allocator@D@2@@std@@@2@@std@@QBEIXZ @ 1000 NONAME ; public: unsigned int __thiscall std::vector<class std::basic_string<char,struct std::char_traits<char>,class std::allocator<char> >,class std::allocator<class std::basic_string<char,struct std::char_traits<char>,class std::allocator<char> > > >::capacity(void)const 
 ?begin@?$vector@V?$basic_string@DU?$char_traits@D@std@@V?$allocator@D@2@@std@@V?$allocator@V?$basic_string@DU?$char_traits@D@std@@V?$allocator@D@2@@std@@@2@@std@@QBEPBV?$basic_string@DU?$char_traits@D@std@@V?$allocator@D@2@@2@XZ @ 1001 NONAME ; public: class std::basic_string<char,struct std::char_traits<char>,class std::allocator<char> > const * __thiscall std::vector<class std::basic_string<char,struct std::char_traits<char>,class std::allocator<char> >,class std::allocator<class std::basic_string<char,struct std::char_traits<char>,class std::allocator<char> > > >::begin(void)const 
 ?end@?$vector@V?$basic_string@DU?$char_traits@D@std@@V?$allocator@D@2@@std@@V?$allocator@V?$basic_string@DU?$char_traits@D@std@@V?$allocator@D@2@@std@@@2@@std@@QBEPBV?$basic_string@DU?$char_traits@D@std@@V?$allocator@D@2@@2@XZ @ 1002 NONAME ; public: class std::basic_string<char,struct std::char_traits<char>,class std::allocator<char> > const * __thiscall std::vector<class std::basic_string<char,struct std::char_traits<char>,class std::allocator<char> >,class std::allocator<class std::basic_string<char,struct std::char_traits<char>,class std::allocator<char> > > >::end(void)const 
 ?capacity@?$vector@U?$pair@IN@std@@V?$allocator@U?$pair@IN@std@@@2@@std@@QBEIXZ @ 1003 NONAME ; public: unsigned int __thiscall std::vector<struct std::pair<unsigned int,double>,class std::allocator<struct std::pair<unsigned int,double> > >::capacity(void)const 
 ?begin@?$vector@U?$pair@IN@std@@V?$allocator@U?$pair@IN@std@@@2@@std@@QBEPBU?$pair@IN@2@XZ @ 1004 NONAME ; public: struct std::pair<unsigned int,double> const * __thiscall std::vector<struct std::pair<unsigned int,double>,class std::allocator<struct std::pair<unsigned int,double> > >::begin(void)const 
 ?end@?$vector@U?$pair@IN@std@@V?$allocator@U?$pair@IN@std@@@2@@std@@QBEPBU?$pair@IN@2@XZ @ 1005 NONAME ; public: struct std::pair<unsigned int,double> const * __thiscall std::vector<struct std::pair<unsigned int,double>,class std::allocator<struct std::pair<unsigned int,double> > >::end(void)const 
 ?copy@std@@YAPAV?$basic_string@DU?$char_traits@D@std@@V?$allocator@D@2@@1@PBV21@0PAV21@@Z @ 1006 NONAME ; class std::basic_string<char,struct std::char_traits<char>,class std::allocator<char> > * __cdecl std::copy(class std::basic_string<char,struct std::char_traits<char>,class std::allocator<char> > const *,class std::basic_string<char,struct std::char_traits<char>,class std::allocator<char> > const *,class std::basic_string<char,struct std::char_traits<char>,class std::allocator<char> > *)
 ?copy@std@@YAPAU?$pair@IN@1@PBU21@0PAU21@@Z @ 1007 NONAME ; struct std::pair<unsigned int,double> * __cdecl std::copy(struct std::pair<unsigned int,double> const *,struct std::pair<unsigned int,double> const *,struct std::pair<unsigned int,double> *)
 ??0OBGenericData@OpenBabel@@QAE@XZ @ 1008 NONAME ; public: __thiscall OpenBabel::OBGenericData::OBGenericData(void)
 ??0OBGenericData@OpenBabel@@QAE@ABV01@@Z @ 1009 NONAME ; public: __thiscall OpenBabel::OBGenericData::OBGenericData(class OpenBabel::OBGenericData const &)
 ??4OBGenericData@OpenBabel@@QAEAAV01@ABV01@@Z @ 1010 NONAME ; public: class OpenBabel::OBGenericData & __thiscall OpenBabel::OBGenericData::operator=(class OpenBabel::OBGenericData const &)
 ??0OBCommentData@OpenBabel@@QAE@XZ @ 1011 NONAME ; public: __thiscall OpenBabel::OBCommentData::OBCommentData(void)
 ??1OBCommentData@OpenBabel@@UAE@XZ @ 1012 NONAME ; public: virtual __thiscall OpenBabel::OBCommentData::~OBCommentData(void)
 ??0OBCommentData@OpenBabel@@QAE@ABV01@@Z @ 1013 NONAME ; public: __thiscall OpenBabel::OBCommentData::OBCommentData(class OpenBabel::OBCommentData const &)
 ?GetData@OBCommentData@OpenBabel@@QBEABV?$basic_string@DU?$char_traits@D@std@@V?$allocator@D@2@@std@@XZ @ 1014 NONAME ; public: class std::basic_string<char,struct std::char_traits<char>,class std::allocator<char> > const & __thiscall OpenBabel::OBCommentData::GetData(void)const 
 ??0OBExternalBond@OpenBabel@@QAE@PAVOBAtom@1@PAVOBBond@1@H@Z @ 1015 NONAME ; public: __thiscall OpenBabel::OBExternalBond::OBExternalBond(class OpenBabel::OBAtom *,class OpenBabel::OBBond *,int)
 ??0OBExternalBond@OpenBabel@@QAE@ABV01@@Z @ 1016 NONAME ; public: __thiscall OpenBabel::OBExternalBond::OBExternalBond(class OpenBabel::OBExternalBond const &)
 ?GetIdx@OBExternalBond@OpenBabel@@QBEHXZ @ 1017 NONAME ; public: int __thiscall OpenBabel::OBExternalBond::GetIdx(void)const 
 ?GetAtom@OBExternalBond@OpenBabel@@QBEPAVOBAtom@2@XZ @ 1018 NONAME ; public: class OpenBabel::OBAtom * __thiscall OpenBabel::OBExternalBond::GetAtom(void)const 
 ?GetBond@OBExternalBond@OpenBabel@@QBEPAVOBBond@2@XZ @ 1019 NONAME ; public: class OpenBabel::OBBond * __thiscall OpenBabel::OBExternalBond::GetBond(void)const 
 ??0OBExternalBondData@OpenBabel@@QAE@XZ @ 1020 NONAME ; public: __thiscall OpenBabel::OBExternalBondData::OBExternalBondData(void)
 ??1OBExternalBondData@OpenBabel@@UAE@XZ @ 1021 NONAME ; public: virtual __thiscall OpenBabel::OBExternalBondData::~OBExternalBondData(void)
 ?SetData@OBExternalBondData@OpenBabel@@QAEXPAVOBAtom@2@PAVOBBond@2@H@Z @ 1022 NONAME ; public: void __thiscall OpenBabel::OBExternalBondData::SetData(class OpenBabel::OBAtom *,class OpenBabel::OBBond *,int)
 ??1OBExternalBond@OpenBabel@@QAE@XZ @ 1023 NONAME ; public: __thiscall OpenBabel::OBExternalBond::~OBExternalBond(void)
 ??0OBPairData@OpenBabel@@QAE@XZ @ 1024 NONAME ; public: __thiscall OpenBabel::OBPairData::OBPairData(void)
 ??1OBPairData@OpenBabel@@UAE@XZ @ 1025 NONAME ; public: virtual __thiscall OpenBabel::OBPairData::~OBPairData(void)
 ??0OBVirtualBond@OpenBabel@@QAE@XZ @ 1026 NONAME ; public: __thiscall OpenBabel::OBVirtualBond::OBVirtualBond(void)
 ??1OBVirtualBond@OpenBabel@@UAE@XZ @ 1027 NONAME ; public: virtual __thiscall OpenBabel::OBVirtualBond::~OBVirtualBond(void)
 ??0OBVirtualBond@OpenBabel@@QAE@HHHH@Z @ 1028 NONAME ; public: __thiscall OpenBabel::OBVirtualBond::OBVirtualBond(int,int,int,int)
 ??0OBUnitCell@OpenBabel@@QAE@XZ @ 1029 NONAME ; public: __thiscall OpenBabel::OBUnitCell::OBUnitCell(void)
 ??1OBUnitCell@OpenBabel@@UAE@XZ @ 1030 NONAME ; public: virtual __thiscall OpenBabel::OBUnitCell::~OBUnitCell(void)
 ??0OBUnitCell@OpenBabel@@QAE@ABV01@@Z @ 1031 NONAME ; public: __thiscall OpenBabel::OBUnitCell::OBUnitCell(class OpenBabel::OBUnitCell const &)
 ??4OBUnitCell@OpenBabel@@QAEAAV01@ABV01@@Z @ 1032 NONAME ; public: class OpenBabel::OBUnitCell & __thiscall OpenBabel::OBUnitCell::operator=(class OpenBabel::OBUnitCell const &)
 ?SetData@OBUnitCell@OpenBabel@@QAEXVvector3@2@00@Z @ 1033 NONAME ; public: void __thiscall OpenBabel::OBUnitCell::SetData(class OpenBabel::vector3,class OpenBabel::vector3,class OpenBabel::vector3)
 ?GetCellVectors@OBUnitCell@OpenBabel@@QAE?AV?$vector@Vvector3@OpenBabel@@V?$allocator@Vvector3@OpenBabel@@@std@@@std@@XZ @ 1034 NONAME ; public: class std::vector<class OpenBabel::vector3,class std::allocator<class OpenBabel::vector3> > __thiscall OpenBabel::OBUnitCell::GetCellVectors(void)
 ?GetCellMatrix@OBUnitCell@OpenBabel@@QAE?AVmatrix3x3@2@XZ @ 1035 NONAME ; public: class OpenBabel::matrix3x3 __thiscall OpenBabel::OBUnitCell::GetCellMatrix(void)
 ?GetOrthoMatrix@OBUnitCell@OpenBabel@@QAE?AVmatrix3x3@2@XZ @ 1036 NONAME ; public: class OpenBabel::matrix3x3 __thiscall OpenBabel::OBUnitCell::GetOrthoMatrix(void)
 ?Set@matrix3x3@OpenBabel@@QAEXHHN@Z @ 1037 NONAME ; public: void __thiscall OpenBabel::matrix3x3::Set(int,int,double)
 ??0OBRingData@OpenBabel@@QAE@XZ @ 1038 NONAME ; public: __thiscall OpenBabel::OBRingData::OBRingData(void)
 ??0OBRingData@OpenBabel@@QAE@ABV01@@Z @ 1039 NONAME ; public: __thiscall OpenBabel::OBRingData::OBRingData(class OpenBabel::OBRingData const &)
 ??0OBRing@OpenBabel@@QAE@XZ @ 1040 NONAME ; public: __thiscall OpenBabel::OBRing::OBRing(void)
 ??1OBRingData@OpenBabel@@UAE@XZ @ 1041 NONAME ; public: virtual __thiscall OpenBabel::OBRingData::~OBRingData(void)
 ??1OBRing@OpenBabel@@QAE@XZ @ 1042 NONAME ; public: __thiscall OpenBabel::OBRing::~OBRing(void)
 ??4OBRingData@OpenBabel@@QAEAAV01@ABV01@@Z @ 1043 NONAME ; public: class OpenBabel::OBRingData & __thiscall OpenBabel::OBRingData::operator=(class OpenBabel::OBRingData const &)
 ??0OBAngle@OpenBabel@@IAE@XZ @ 1044 NONAME ; protected: __thiscall OpenBabel::OBAngle::OBAngle(void)
 ??0OBAngle@OpenBabel@@IAE@PAVOBAtom@1@00@Z @ 1045 NONAME ; protected: __thiscall OpenBabel::OBAngle::OBAngle(class OpenBabel::OBAtom *,class OpenBabel::OBAtom *,class OpenBabel::OBAtom *)
 ??0OBAngle@OpenBabel@@QAE@ABV01@@Z @ 1046 NONAME ; public: __thiscall OpenBabel::OBAngle::OBAngle(class OpenBabel::OBAngle const &)
 ??4OBAngle@OpenBabel@@QAEAAV01@ABV01@@Z @ 1047 NONAME ; public: class OpenBabel::OBAngle & __thiscall OpenBabel::OBAngle::operator=(class OpenBabel::OBAngle const &)
 ?Clear@OBAngle@OpenBabel@@QAEXXZ @ 1048 NONAME ; public: void __thiscall OpenBabel::OBAngle::Clear(void)
 ?SetAtoms@OBAngle@OpenBabel@@QAEXPAVOBAtom@2@00@Z @ 1049 NONAME ; public: void __thiscall OpenBabel::OBAngle::SetAtoms(class OpenBabel::OBAtom *,class OpenBabel::OBAtom *,class OpenBabel::OBAtom *)
 ?SetAtoms@OBAngle@OpenBabel@@QAEXAAU?$triple@PAVOBAtom@OpenBabel@@PAV12@PAV12@@2@@Z @ 1050 NONAME ; public: void __thiscall OpenBabel::OBAngle::SetAtoms(struct OpenBabel::triple<class OpenBabel::OBAtom *,class OpenBabel::OBAtom *,class OpenBabel::OBAtom *> &)
 ?GetAtoms@OBAngle@OpenBabel@@IAE?AU?$triple@PAVOBAtom@OpenBabel@@PAV12@PAV12@@2@XZ @ 1051 NONAME ; protected: struct OpenBabel::triple<class OpenBabel::OBAtom *,class OpenBabel::OBAtom *,class OpenBabel::OBAtom *> __thiscall OpenBabel::OBAngle::GetAtoms(void)
 ?SortByIndex@OBAngle@OpenBabel@@IAEXXZ @ 1052 NONAME ; protected: void __thiscall OpenBabel::OBAngle::SortByIndex(void)
 ??8OBAngle@OpenBabel@@QAE_NABV01@@Z @ 1053 NONAME ; public: bool __thiscall OpenBabel::OBAngle::operator==(class OpenBabel::OBAngle const &)
 ??0OBAngleData@OpenBabel@@IAE@XZ @ 1054 NONAME ; protected: __thiscall OpenBabel::OBAngleData::OBAngleData(void)
 ??1OBAngleData@OpenBabel@@UAE@XZ @ 1055 NONAME ; public: virtual __thiscall OpenBabel::OBAngleData::~OBAngleData(void)
 ??0OBAngleData@OpenBabel@@IAE@ABV01@@Z @ 1056 NONAME ; protected: __thiscall OpenBabel::OBAngleData::OBAngleData(class OpenBabel::OBAngleData const &)
 ??4OBAngleData@OpenBabel@@QAEAAV01@ABV01@@Z @ 1057 NONAME ; public: class OpenBabel::OBAngleData & __thiscall OpenBabel::OBAngleData::operator=(class OpenBabel::OBAngleData const &)
 ?Clear@OBAngleData@OpenBabel@@QAEXXZ @ 1058 NONAME ; public: void __thiscall OpenBabel::OBAngleData::Clear(void)
 ?SetData@OBAngleData@OpenBabel@@QAEXAAVOBAngle@2@@Z @ 1059 NONAME ; public: void __thiscall OpenBabel::OBAngleData::SetData(class OpenBabel::OBAngle &)
 ?FillAngleArray@OBAngleData@OpenBabel@@QAEIPAPAHAAI@Z @ 1060 NONAME ; public: unsigned int __thiscall OpenBabel::OBAngleData::FillAngleArray(int * *,unsigned int &)
 ??0OBTorsion@OpenBabel@@IAE@PAVOBAtom@1@000@Z @ 1061 NONAME ; protected: __thiscall OpenBabel::OBTorsion::OBTorsion(class OpenBabel::OBAtom *,class OpenBabel::OBAtom *,class OpenBabel::OBAtom *,class OpenBabel::OBAtom *)
 ??0OBTorsion@OpenBabel@@QAE@ABV01@@Z @ 1062 NONAME ; public: __thiscall OpenBabel::OBTorsion::OBTorsion(class OpenBabel::OBTorsion const &)
 ?GetTorsions@OBTorsion@OpenBabel@@IAE?AV?$vector@U?$quad@PAVOBAtom@OpenBabel@@PAV12@PAV12@PAV12@@OpenBabel@@V?$allocator@U?$quad@PAVOBAtom@OpenBabel@@PAV12@PAV12@PAV12@@OpenBabel@@@std@@@std@@XZ @ 1063 NONAME ; protected: class std::vector<struct OpenBabel::quad<class OpenBabel::OBAtom *,class OpenBabel::OBAtom *,class OpenBabel::OBAtom *,class OpenBabel::OBAtom *>,class std::allocator<struct OpenBabel::quad<class OpenBabel::OBAtom *,class OpenBabel::OBAtom *,class OpenBabel::OBAtom *,class OpenBabel::OBAtom *> > > __thiscall OpenBabel::OBTorsion::GetTorsions(void)
 ??4OBTorsion@OpenBabel@@QAEAAV01@ABV01@@Z @ 1064 NONAME ; public: class OpenBabel::OBTorsion & __thiscall OpenBabel::OBTorsion::operator=(class OpenBabel::OBTorsion const &)
 ?Clear@OBTorsion@OpenBabel@@QAEXXZ @ 1065 NONAME ; public: void __thiscall OpenBabel::OBTorsion::Clear(void)
 ?SetAngle@OBTorsion@OpenBabel@@QAE_NNI@Z @ 1066 NONAME ; public: bool __thiscall OpenBabel::OBTorsion::SetAngle(double,unsigned int)
 ?GetAngle@OBTorsion@OpenBabel@@QAE_NAANI@Z @ 1067 NONAME ; public: bool __thiscall OpenBabel::OBTorsion::GetAngle(double &,unsigned int)
 ?GetBondIdx@OBTorsion@OpenBabel@@QAEIXZ @ 1068 NONAME ; public: unsigned int __thiscall OpenBabel::OBTorsion::GetBondIdx(void)
 ?IsProtonRotor@OBTorsion@OpenBabel@@QAE_NXZ @ 1069 NONAME ; public: bool __thiscall OpenBabel::OBTorsion::IsProtonRotor(void)
 ?AddTorsion@OBTorsion@OpenBabel@@QAE_NPAVOBAtom@2@000@Z @ 1070 NONAME ; public: bool __thiscall OpenBabel::OBTorsion::AddTorsion(class OpenBabel::OBAtom *,class OpenBabel::OBAtom *,class OpenBabel::OBAtom *,class OpenBabel::OBAtom *)
 ?Empty@OBTorsion@OpenBabel@@QAE_NXZ @ 1071 NONAME ; public: bool __thiscall OpenBabel::OBTorsion::Empty(void)
 ?AddTorsion@OBTorsion@OpenBabel@@QAE_NAAU?$quad@PAVOBAtom@OpenBabel@@PAV12@PAV12@PAV12@@2@@Z @ 1072 NONAME ; public: bool __thiscall OpenBabel::OBTorsion::AddTorsion(struct OpenBabel::quad<class OpenBabel::OBAtom *,class OpenBabel::OBAtom *,class OpenBabel::OBAtom *,class OpenBabel::OBAtom *> &)
 ??0OBTorsionData@OpenBabel@@IAE@XZ @ 1073 NONAME ; protected: __thiscall OpenBabel::OBTorsionData::OBTorsionData(void)
 ??1OBTorsionData@OpenBabel@@UAE@XZ @ 1074 NONAME ; public: virtual __thiscall OpenBabel::OBTorsionData::~OBTorsionData(void)
 ??0OBTorsionData@OpenBabel@@IAE@ABV01@@Z @ 1075 NONAME ; protected: __thiscall OpenBabel::OBTorsionData::OBTorsionData(class OpenBabel::OBTorsionData const &)
 ??4OBTorsionData@OpenBabel@@QAEAAV01@ABV01@@Z @ 1076 NONAME ; public: class OpenBabel::OBTorsionData & __thiscall OpenBabel::OBTorsionData::operator=(class OpenBabel::OBTorsionData const &)
 ?Clear@OBTorsionData@OpenBabel@@QAEXXZ @ 1077 NONAME ; public: void __thiscall OpenBabel::OBTorsionData::Clear(void)
 ?SetData@OBTorsionData@OpenBabel@@QAEXAAVOBTorsion@2@@Z @ 1078 NONAME ; public: void __thiscall OpenBabel::OBTorsionData::SetData(class OpenBabel::OBTorsion &)
 ?FillTorsionArray@OBTorsionData@OpenBabel@@QAE_NAAV?$vector@V?$vector@IV?$allocator@I@std@@@std@@V?$allocator@V?$vector@IV?$allocator@I@std@@@std@@@2@@std@@@Z @ 1079 NONAME ; public: bool __thiscall OpenBabel::OBTorsionData::FillTorsionArray(class std::vector<class std::vector<unsigned int,class std::allocator<unsigned int> >,class std::allocator<class std::vector<unsigned int,class std::allocator<unsigned int> > > > &)
 ?resize@?$vector@IV?$allocator@I@std@@@std@@QAEXIABI@Z @ 1080 NONAME ; public: void __thiscall std::vector<unsigned int,class std::allocator<unsigned int> >::resize(unsigned int,unsigned int const &)
 ??0?$vector@PAVOBRing@OpenBabel@@V?$allocator@PAVOBRing@OpenBabel@@@std@@@std@@QAE@ABV01@@Z @ 1081 NONAME ; public: __thiscall std::vector<class OpenBabel::OBRing *,class std::allocator<class OpenBabel::OBRing *> >::vector<class OpenBabel::OBRing *,class std::allocator<class OpenBabel::OBRing *> >(class std::vector<class OpenBabel::OBRing *,class std::allocator<class OpenBabel::OBRing *> > const &)
 ?clear@?$vector@PAVOBRing@OpenBabel@@V?$allocator@PAVOBRing@OpenBabel@@@std@@@std@@QAEXXZ @ 1082 NONAME ; public: void __thiscall std::vector<class OpenBabel::OBRing *,class std::allocator<class OpenBabel::OBRing *> >::clear(void)
 ??0?$vector@VOBExternalBond@OpenBabel@@V?$allocator@VOBExternalBond@OpenBabel@@@std@@@std@@QAE@ABV?$allocator@VOBExternalBond@OpenBabel@@@1@@Z @ 1083 NONAME ; public: __thiscall std::vector<class OpenBabel::OBExternalBond,class std::allocator<class OpenBabel::OBExternalBond> >::vector<class OpenBabel::OBExternalBond,class std::allocator<class OpenBabel::OBExternalBond> >(class std::allocator<class OpenBabel::OBExternalBond> const &)
 ??1?$vector@VOBExternalBond@OpenBabel@@V?$allocator@VOBExternalBond@OpenBabel@@@std@@@std@@QAE@XZ @ 1084 NONAME ; public: __thiscall std::vector<class OpenBabel::OBExternalBond,class std::allocator<class OpenBabel::OBExternalBond> >::~vector<class OpenBabel::OBExternalBond,class std::allocator<class OpenBabel::OBExternalBond> >(void)
 ?push_back@?$vector@VOBExternalBond@OpenBabel@@V?$allocator@VOBExternalBond@OpenBabel@@@std@@@std@@QAEXABVOBExternalBond@OpenBabel@@@Z @ 1085 NONAME ; public: void __thiscall std::vector<class OpenBabel::OBExternalBond,class std::allocator<class OpenBabel::OBExternalBond> >::push_back(class OpenBabel::OBExternalBond const &)
 ??0?$pair@PAVOBAtom@OpenBabel@@PAV12@@std@@QAE@XZ @ 1086 NONAME ; public: __thiscall std::pair<class OpenBabel::OBAtom *,class OpenBabel::OBAtom *>::pair<class OpenBabel::OBAtom *,class OpenBabel::OBAtom *>(void)
 ??0?$vector@U?$triple@PAVOBAtom@OpenBabel@@PAV12@N@OpenBabel@@V?$allocator@U?$triple@PAVOBAtom@OpenBabel@@PAV12@N@OpenBabel@@@std@@@std@@QAE@ABV?$allocator@U?$triple@PAVOBAtom@OpenBabel@@PAV12@N@OpenBabel@@@1@@Z @ 1087 NONAME ; public: __thiscall std::vector<struct OpenBabel::triple<class OpenBabel::OBAtom *,class OpenBabel::OBAtom *,double>,class std::allocator<struct OpenBabel::triple<class OpenBabel::OBAtom *,class OpenBabel::OBAtom *,double> > >::vector<struct OpenBabel::triple<class OpenBabel::OBAtom *,class OpenBabel::OBAtom *,double>,class std::allocator<struct OpenBabel::triple<class OpenBabel::OBAtom *,class OpenBabel::OBAtom *,double> > >(class std::allocator<struct OpenBabel::triple<class OpenBabel::OBAtom *,class Open
 ??0?$vector@U?$triple@PAVOBAtom@OpenBabel@@PAV12@N@OpenBabel@@V?$allocator@U?$triple@PAVOBAtom@OpenBabel@@PAV12@N@OpenBabel@@@std@@@std@@QAE@ABV01@@Z @ 1088 NONAME ; public: __thiscall std::vector<struct OpenBabel::triple<class OpenBabel::OBAtom *,class OpenBabel::OBAtom *,double>,class std::allocator<struct OpenBabel::triple<class OpenBabel::OBAtom *,class OpenBabel::OBAtom *,double> > >::vector<struct OpenBabel::triple<class OpenBabel::OBAtom *,class OpenBabel::OBAtom *,double>,class std::allocator<struct OpenBabel::triple<class OpenBabel::OBAtom *,class OpenBabel::OBAtom *,double> > >(class std::vector<struct OpenBabel::triple<class OpenBabel::OBAtom *,class OpenBab
 ??1?$vector@U?$triple@PAVOBAtom@OpenBabel@@PAV12@N@OpenBabel@@V?$allocator@U?$triple@PAVOBAtom@OpenBabel@@PAV12@N@OpenBabel@@@std@@@std@@QAE@XZ @ 1089 NONAME ; public: __thiscall std::vector<struct OpenBabel::triple<class OpenBabel::OBAtom *,class OpenBabel::OBAtom *,double>,class std::allocator<struct OpenBabel::triple<class OpenBabel::OBAtom *,class OpenBabel::OBAtom *,double> > >::~vector<struct OpenBabel::triple<class OpenBabel::OBAtom *,class OpenBabel::OBAtom *,double>,class std::allocator<struct OpenBabel::triple<class OpenBabel::OBAtom *,class OpenBabel::OBAtom *,double> > >(void)
 ??4?$vector@U?$triple@PAVOBAtom@OpenBabel@@PAV12@N@OpenBabel@@V?$allocator@U?$triple@PAVOBAtom@OpenBabel@@PAV12@N@OpenBabel@@@std@@@std@@QAEAAV01@ABV01@@Z @ 1090 NONAME ; public: class std::vector<struct OpenBabel::triple<class OpenBabel::OBAtom *,class OpenBabel::OBAtom *,double>,class std::allocator<struct OpenBabel::triple<class OpenBabel::OBAtom *,class OpenBabel::OBAtom *,double> > > & __thiscall std::vector<struct OpenBabel::triple<class OpenBabel::OBAtom *,class OpenBabel::OBAtom *,double>,class std::allocator<struct OpenBabel::triple<class OpenBabel::OBAtom *,class OpenBabel::OBAtom *,double> > >::operator=(class std::vector<struct OpenBabel::triple<class OpenBabel:
 ?begin@?$vector@U?$triple@PAVOBAtom@OpenBabel@@PAV12@N@OpenBabel@@V?$allocator@U?$triple@PAVOBAtom@OpenBabel@@PAV12@N@OpenBabel@@@std@@@std@@QAEPAU?$triple@PAVOBAtom@OpenBabel@@PAV12@N@OpenBabel@@XZ @ 1091 NONAME ; public: struct OpenBabel::triple<class OpenBabel::OBAtom *,class OpenBabel::OBAtom *,double> * __thiscall std::vector<struct OpenBabel::triple<class OpenBabel::OBAtom *,class OpenBabel::OBAtom *,double>,class std::allocator<struct OpenBabel::triple<class OpenBabel::OBAtom *,class OpenBabel::OBAtom *,double> > >::begin(void)
 ?end@?$vector@U?$triple@PAVOBAtom@OpenBabel@@PAV12@N@OpenBabel@@V?$allocator@U?$triple@PAVOBAtom@OpenBabel@@PAV12@N@OpenBabel@@@std@@@std@@QAEPAU?$triple@PAVOBAtom@OpenBabel@@PAV12@N@OpenBabel@@XZ @ 1092 NONAME ; public: struct OpenBabel::triple<class OpenBabel::OBAtom *,class OpenBabel::OBAtom *,double> * __thiscall std::vector<struct OpenBabel::triple<class OpenBabel::OBAtom *,class OpenBabel::OBAtom *,double>,class std::allocator<struct OpenBabel::triple<class OpenBabel::OBAtom *,class OpenBabel::OBAtom *,double> > >::end(void)
 ?size@?$vector@U?$triple@PAVOBAtom@OpenBabel@@PAV12@N@OpenBabel@@V?$allocator@U?$triple@PAVOBAtom@OpenBabel@@PAV12@N@OpenBabel@@@std@@@std@@QBEIXZ @ 1093 NONAME ; public: unsigned int __thiscall std::vector<struct OpenBabel::triple<class OpenBabel::OBAtom *,class OpenBabel::OBAtom *,double>,class std::allocator<struct OpenBabel::triple<class OpenBabel::OBAtom *,class OpenBabel::OBAtom *,double> > >::size(void)const 
 ??A?$vector@U?$triple@PAVOBAtom@OpenBabel@@PAV12@N@OpenBabel@@V?$allocator@U?$triple@PAVOBAtom@OpenBabel@@PAV12@N@OpenBabel@@@std@@@std@@QAEAAU?$triple@PAVOBAtom@OpenBabel@@PAV12@N@OpenBabel@@I@Z @ 1094 NONAME ; public: struct OpenBabel::triple<class OpenBabel::OBAtom *,class OpenBabel::OBAtom *,double> & __thiscall std::vector<struct OpenBabel::triple<class OpenBabel::OBAtom *,class OpenBabel::OBAtom *,double>,class std::allocator<struct OpenBabel::triple<class OpenBabel::OBAtom *,class OpenBabel::OBAtom *,double> > >::operator[](unsigned int)
 ?push_back@?$vector@U?$triple@PAVOBAtom@OpenBabel@@PAV12@N@OpenBabel@@V?$allocator@U?$triple@PAVOBAtom@OpenBabel@@PAV12@N@OpenBabel@@@std@@@std@@QAEXABU?$triple@PAVOBAtom@OpenBabel@@PAV12@N@OpenBabel@@@Z @ 1095 NONAME ; public: void __thiscall std::vector<struct OpenBabel::triple<class OpenBabel::OBAtom *,class OpenBabel::OBAtom *,double>,class std::allocator<struct OpenBabel::triple<class OpenBabel::OBAtom *,class OpenBabel::OBAtom *,double> > >::push_back(struct OpenBabel::triple<class OpenBabel::OBAtom *,class OpenBabel::OBAtom *,double> const &)
 ?erase@?$vector@U?$triple@PAVOBAtom@OpenBabel@@PAV12@N@OpenBabel@@V?$allocator@U?$triple@PAVOBAtom@OpenBabel@@PAV12@N@OpenBabel@@@std@@@std@@QAEPAU?$triple@PAVOBAtom@OpenBabel@@PAV12@N@OpenBabel@@PAU34@0@Z @ 1096 NONAME ; public: struct OpenBabel::triple<class OpenBabel::OBAtom *,class OpenBabel::OBAtom *,double> * __thiscall std::vector<struct OpenBabel::triple<class OpenBabel::OBAtom *,class OpenBabel::OBAtom *,double>,class std::allocator<struct OpenBabel::triple<class OpenBabel::OBAtom *,class OpenBabel::OBAtom *,double> > >::erase(struct OpenBabel::triple<class OpenBabel::OBAtom *,class OpenBabel::OBAtom *,double> *,struct OpenBabel::triple<class OpenBabel::OBAtom *,class OpenBabel::OBAtom *,double> *)
 ??0?$vector@VOBTorsion@OpenBabel@@V?$allocator@VOBTorsion@OpenBabel@@@std@@@std@@QAE@ABV?$allocator@VOBTorsion@OpenBabel@@@1@@Z @ 1097 NONAME ; public: __thiscall std::vector<class OpenBabel::OBTorsion,class std::allocator<class OpenBabel::OBTorsion> >::vector<class OpenBabel::OBTorsion,class std::allocator<class OpenBabel::OBTorsion> >(class std::allocator<class OpenBabel::OBTorsion> const &)
 ??0?$vector@VOBTorsion@OpenBabel@@V?$allocator@VOBTorsion@OpenBabel@@@std@@@std@@QAE@ABV01@@Z @ 1098 NONAME ; public: __thiscall std::vector<class OpenBabel::OBTorsion,class std::allocator<class OpenBabel::OBTorsion> >::vector<class OpenBabel::OBTorsion,class std::allocator<class OpenBabel::OBTorsion> >(class std::vector<class OpenBabel::OBTorsion,class std::allocator<class OpenBabel::OBTorsion> > const &)
 ??1?$vector@VOBTorsion@OpenBabel@@V?$allocator@VOBTorsion@OpenBabel@@@std@@@std@@QAE@XZ @ 1099 NONAME ; public: __thiscall std::vector<class OpenBabel::OBTorsion,class std::allocator<class OpenBabel::OBTorsion> >::~vector<class OpenBabel::OBTorsion,class std::allocator<class OpenBabel::OBTorsion> >(void)
 ??4?$vector@VOBTorsion@OpenBabel@@V?$allocator@VOBTorsion@OpenBabel@@@std@@@std@@QAEAAV01@ABV01@@Z @ 1100 NONAME ; public: class std::vector<class OpenBabel::OBTorsion,class std::allocator<class OpenBabel::OBTorsion> > & __thiscall std::vector<class OpenBabel::OBTorsion,class std::allocator<class OpenBabel::OBTorsion> >::operator=(class std::vector<class OpenBabel::OBTorsion,class std::allocator<class OpenBabel::OBTorsion> > const &)
 ?begin@?$vector@VOBTorsion@OpenBabel@@V?$allocator@VOBTorsion@OpenBabel@@@std@@@std@@QAEPAVOBTorsion@OpenBabel@@XZ @ 1101 NONAME ; public: class OpenBabel::OBTorsion * __thiscall std::vector<class OpenBabel::OBTorsion,class std::allocator<class OpenBabel::OBTorsion> >::begin(void)
 ?end@?$vector@VOBTorsion@OpenBabel@@V?$allocator@VOBTorsion@OpenBabel@@@std@@@std@@QAEPAVOBTorsion@OpenBabel@@XZ @ 1102 NONAME ; public: class OpenBabel::OBTorsion * __thiscall std::vector<class OpenBabel::OBTorsion,class std::allocator<class OpenBabel::OBTorsion> >::end(void)
 ?size@?$vector@VOBTorsion@OpenBabel@@V?$allocator@VOBTorsion@OpenBabel@@@std@@@std@@QBEIXZ @ 1103 NONAME ; public: unsigned int __thiscall std::vector<class OpenBabel::OBTorsion,class std::allocator<class OpenBabel::OBTorsion> >::size(void)const 
 ?push_back@?$vector@VOBTorsion@OpenBabel@@V?$allocator@VOBTorsion@OpenBabel@@@std@@@std@@QAEXABVOBTorsion@OpenBabel@@@Z @ 1104 NONAME ; public: void __thiscall std::vector<class OpenBabel::OBTorsion,class std::allocator<class OpenBabel::OBTorsion> >::push_back(class OpenBabel::OBTorsion const &)
 ?clear@?$vector@VOBTorsion@OpenBabel@@V?$allocator@VOBTorsion@OpenBabel@@@std@@@std@@QAEXXZ @ 1105 NONAME ; public: void __thiscall std::vector<class OpenBabel::OBTorsion,class std::allocator<class OpenBabel::OBTorsion> >::clear(void)
 ??0?$vector@VOBAngle@OpenBabel@@V?$allocator@VOBAngle@OpenBabel@@@std@@@std@@QAE@ABV?$allocator@VOBAngle@OpenBabel@@@1@@Z @ 1106 NONAME ; public: __thiscall std::vector<class OpenBabel::OBAngle,class std::allocator<class OpenBabel::OBAngle> >::vector<class OpenBabel::OBAngle,class std::allocator<class OpenBabel::OBAngle> >(class std::allocator<class OpenBabel::OBAngle> const &)
 ??0?$vector@VOBAngle@OpenBabel@@V?$allocator@VOBAngle@OpenBabel@@@std@@@std@@QAE@ABV01@@Z @ 1107 NONAME ; public: __thiscall std::vector<class OpenBabel::OBAngle,class std::allocator<class OpenBabel::OBAngle> >::vector<class OpenBabel::OBAngle,class std::allocator<class OpenBabel::OBAngle> >(class std::vector<class OpenBabel::OBAngle,class std::allocator<class OpenBabel::OBAngle> > const &)
 ??1?$vector@VOBAngle@OpenBabel@@V?$allocator@VOBAngle@OpenBabel@@@std@@@std@@QAE@XZ @ 1108 NONAME ; public: __thiscall std::vector<class OpenBabel::OBAngle,class std::allocator<class OpenBabel::OBAngle> >::~vector<class OpenBabel::OBAngle,class std::allocator<class OpenBabel::OBAngle> >(void)
 ??4?$vector@VOBAngle@OpenBabel@@V?$allocator@VOBAngle@OpenBabel@@@std@@@std@@QAEAAV01@ABV01@@Z @ 1109 NONAME ; public: class std::vector<class OpenBabel::OBAngle,class std::allocator<class OpenBabel::OBAngle> > & __thiscall std::vector<class OpenBabel::OBAngle,class std::allocator<class OpenBabel::OBAngle> >::operator=(class std::vector<class OpenBabel::OBAngle,class std::allocator<class OpenBabel::OBAngle> > const &)
 ?begin@?$vector@VOBAngle@OpenBabel@@V?$allocator@VOBAngle@OpenBabel@@@std@@@std@@QAEPAVOBAngle@OpenBabel@@XZ @ 1110 NONAME ; public: class OpenBabel::OBAngle * __thiscall std::vector<class OpenBabel::OBAngle,class std::allocator<class OpenBabel::OBAngle> >::begin(void)
 ?end@?$vector@VOBAngle@OpenBabel@@V?$allocator@VOBAngle@OpenBabel@@@std@@@std@@QAEPAVOBAngle@OpenBabel@@XZ @ 1111 NONAME ; public: class OpenBabel::OBAngle * __thiscall std::vector<class OpenBabel::OBAngle,class std::allocator<class OpenBabel::OBAngle> >::end(void)
 ?size@?$vector@VOBAngle@OpenBabel@@V?$allocator@VOBAngle@OpenBabel@@@std@@@std@@QBEIXZ @ 1112 NONAME ; public: unsigned int __thiscall std::vector<class OpenBabel::OBAngle,class std::allocator<class OpenBabel::OBAngle> >::size(void)const 
 ?push_back@?$vector@VOBAngle@OpenBabel@@V?$allocator@VOBAngle@OpenBabel@@@std@@@std@@QAEXABVOBAngle@OpenBabel@@@Z @ 1113 NONAME ; public: void __thiscall std::vector<class OpenBabel::OBAngle,class std::allocator<class OpenBabel::OBAngle> >::push_back(class OpenBabel::OBAngle const &)
 ?clear@?$vector@VOBAngle@OpenBabel@@V?$allocator@VOBAngle@OpenBabel@@@std@@@std@@QAEXXZ @ 1114 NONAME ; public: void __thiscall std::vector<class OpenBabel::OBAngle,class std::allocator<class OpenBabel::OBAngle> >::clear(void)
 ??0?$vector@Vvector3@OpenBabel@@V?$allocator@Vvector3@OpenBabel@@@std@@@std@@QAE@ABV01@@Z @ 1115 NONAME ; public: __thiscall std::vector<class OpenBabel::vector3,class std::allocator<class OpenBabel::vector3> >::vector<class OpenBabel::vector3,class std::allocator<class OpenBabel::vector3> >(class std::vector<class OpenBabel::vector3,class std::allocator<class OpenBabel::vector3> > const &)
 ?reserve@?$vector@Vvector3@OpenBabel@@V?$allocator@Vvector3@OpenBabel@@@std@@@std@@QAEXI@Z @ 1116 NONAME ; public: void __thiscall std::vector<class OpenBabel::vector3,class std::allocator<class OpenBabel::vector3> >::reserve(unsigned int)
 ??0?$triple@PAVOBAtom@OpenBabel@@PAV12@PAV12@@OpenBabel@@QAE@XZ @ 1117 NONAME ; public: __thiscall OpenBabel::triple<class OpenBabel::OBAtom *,class OpenBabel::OBAtom *,class OpenBabel::OBAtom *>::triple<class OpenBabel::OBAtom *,class OpenBabel::OBAtom *,class OpenBabel::OBAtom *>(void)
 ??0?$triple@PAVOBAtom@OpenBabel@@PAV12@N@OpenBabel@@QAE@ABQAVOBAtom@1@0ABN@Z @ 1118 NONAME ; public: __thiscall OpenBabel::triple<class OpenBabel::OBAtom *,class OpenBabel::OBAtom *,double>::triple<class OpenBabel::OBAtom *,class OpenBabel::OBAtom *,double>(class OpenBabel::OBAtom * const &,class OpenBabel::OBAtom * const &,double const &)
 ??0?$vector@U?$quad@PAVOBAtom@OpenBabel@@PAV12@PAV12@PAV12@@OpenBabel@@V?$allocator@U?$quad@PAVOBAtom@OpenBabel@@PAV12@PAV12@PAV12@@OpenBabel@@@std@@@std@@QAE@ABV?$allocator@U?$quad@PAVOBAtom@OpenBabel@@PAV12@PAV12@PAV12@@OpenBabel@@@1@@Z @ 1119 NONAME ; public: __thiscall std::vector<struct OpenBabel::quad<class OpenBabel::OBAtom *,class OpenBabel::OBAtom *,class OpenBabel::OBAtom *,class OpenBabel::OBAtom *>,class std::allocator<struct OpenBabel::quad<class OpenBabel::OBAtom *,class OpenBabel::OBAtom *,class OpenBabel::OBAtom *,class OpenBabel::OBAtom *> > >::vector<struct OpenBabel::quad<class OpenBabel::OBAtom *,class OpenBabel::OBAtom *,class OpenBabel::OBAtom *,class OpenBabel::OBAtom *>,class std::allocator<struct OpenBabel::quad<class OpenBabel::OB
 ??0?$vector@U?$quad@PAVOBAtom@OpenBabel@@PAV12@PAV12@PAV12@@OpenBabel@@V?$allocator@U?$quad@PAVOBAtom@OpenBabel@@PAV12@PAV12@PAV12@@OpenBabel@@@std@@@std@@QAE@ABV01@@Z @ 1120 NONAME ; public: __thiscall std::vector<struct OpenBabel::quad<class OpenBabel::OBAtom *,class OpenBabel::OBAtom *,class OpenBabel::OBAtom *,class OpenBabel::OBAtom *>,class std::allocator<struct OpenBabel::quad<class OpenBabel::OBAtom *,class OpenBabel::OBAtom *,class OpenBabel::OBAtom *,class OpenBabel::OBAtom *> > >::vector<struct OpenBabel::quad<class OpenBabel::OBAtom *,class OpenBabel::OBAtom *,class OpenBabel::OBAtom *,class OpenBabel::OBAtom *>,class std::allocator<struct OpenBabel::quad<class OpenBabel::OB
 ??1?$vector@U?$quad@PAVOBAtom@OpenBabel@@PAV12@PAV12@PAV12@@OpenBabel@@V?$allocator@U?$quad@PAVOBAtom@OpenBabel@@PAV12@PAV12@PAV12@@OpenBabel@@@std@@@std@@QAE@XZ @ 1121 NONAME ; public: __thiscall std::vector<struct OpenBabel::quad<class OpenBabel::OBAtom *,class OpenBabel::OBAtom *,class OpenBabel::OBAtom *,class OpenBabel::OBAtom *>,class std::allocator<struct OpenBabel::quad<class OpenBabel::OBAtom *,class OpenBabel::OBAtom *,class OpenBabel::OBAtom *,class OpenBabel::OBAtom *> > >::~vector<struct OpenBabel::quad<class OpenBabel::OBAtom *,class OpenBabel::OBAtom *,class OpenBabel::OBAtom *,class OpenBabel::OBAtom *>,class std::allocator<struct OpenBabel::quad<class OpenBabel::O
 ??4?$vector@U?$quad@PAVOBAtom@OpenBabel@@PAV12@PAV12@PAV12@@OpenBabel@@V?$allocator@U?$quad@PAVOBAtom@OpenBabel@@PAV12@PAV12@PAV12@@OpenBabel@@@std@@@std@@QAEAAV01@ABV01@@Z @ 1122 NONAME ; public: class std::vector<struct OpenBabel::quad<class OpenBabel::OBAtom *,class OpenBabel::OBAtom *,class OpenBabel::OBAtom *,class OpenBabel::OBAtom *>,class std::allocator<struct OpenBabel::quad<class OpenBabel::OBAtom *,class OpenBabel::OBAtom *,class OpenBabel::OBAtom *,class OpenBabel::OBAtom *> > > & __thiscall std::vector<struct OpenBabel::quad<class OpenBabel::OBAtom *,class OpenBabel::OBAtom *,class OpenBabel::OBAtom *,class OpenBabel::OBAtom *>,class std::allocator<struct OpenBabel::quad<class O
 ?begin@?$vector@U?$quad@PAVOBAtom@OpenBabel@@PAV12@PAV12@PAV12@@OpenBabel@@V?$allocator@U?$quad@PAVOBAtom@OpenBabel@@PAV12@PAV12@PAV12@@OpenBabel@@@std@@@std@@QAEPAU?$quad@PAVOBAtom@OpenBabel@@PAV12@PAV12@PAV12@@OpenBabel@@XZ @ 1123 NONAME ; public: struct OpenBabel::quad<class OpenBabel::OBAtom *,class OpenBabel::OBAtom *,class OpenBabel::OBAtom *,class OpenBabel::OBAtom *> * __thiscall std::vector<struct OpenBabel::quad<class OpenBabel::OBAtom *,class OpenBabel::OBAtom *,class OpenBabel::OBAtom *,class OpenBabel::OBAtom *>,class std::allocator<struct OpenBabel::quad<class OpenBabel::OBAtom *,class OpenBabel::OBAtom *,class OpenBabel::OBAtom *,class OpenBabel::OBAtom *> > >::begin(void)
 ?end@?$vector@U?$quad@PAVOBAtom@OpenBabel@@PAV12@PAV12@PAV12@@OpenBabel@@V?$allocator@U?$quad@PAVOBAtom@OpenBabel@@PAV12@PAV12@PAV12@@OpenBabel@@@std@@@std@@QAEPAU?$quad@PAVOBAtom@OpenBabel@@PAV12@PAV12@PAV12@@OpenBabel@@XZ @ 1124 NONAME ; public: struct OpenBabel::quad<class OpenBabel::OBAtom *,class OpenBabel::OBAtom *,class OpenBabel::OBAtom *,class OpenBabel::OBAtom *> * __thiscall std::vector<struct OpenBabel::quad<class OpenBabel::OBAtom *,class OpenBabel::OBAtom *,class OpenBabel::OBAtom *,class OpenBabel::OBAtom *>,class std::allocator<struct OpenBabel::quad<class OpenBabel::OBAtom *,class OpenBabel::OBAtom *,class OpenBabel::OBAtom *,class OpenBabel::OBAtom *> > >::end(void)
 ?size@?$vector@U?$quad@PAVOBAtom@OpenBabel@@PAV12@PAV12@PAV12@@OpenBabel@@V?$allocator@U?$quad@PAVOBAtom@OpenBabel@@PAV12@PAV12@PAV12@@OpenBabel@@@std@@@std@@QBEIXZ @ 1125 NONAME ; public: unsigned int __thiscall std::vector<struct OpenBabel::quad<class OpenBabel::OBAtom *,class OpenBabel::OBAtom *,class OpenBabel::OBAtom *,class OpenBabel::OBAtom *>,class std::allocator<struct OpenBabel::quad<class OpenBabel::OBAtom *,class OpenBabel::OBAtom *,class OpenBabel::OBAtom *,class OpenBabel::OBAtom *> > >::size(void)const 
 ?push_back@?$vector@U?$quad@PAVOBAtom@OpenBabel@@PAV12@PAV12@PAV12@@OpenBabel@@V?$allocator@U?$quad@PAVOBAtom@OpenBabel@@PAV12@PAV12@PAV12@@OpenBabel@@@std@@@std@@QAEXABU?$quad@PAVOBAtom@OpenBabel@@PAV12@PAV12@PAV12@@OpenBabel@@@Z @ 1126 NONAME ; public: void __thiscall std::vector<struct OpenBabel::quad<class OpenBabel::OBAtom *,class OpenBabel::OBAtom *,class OpenBabel::OBAtom *,class OpenBabel::OBAtom *>,class std::allocator<struct OpenBabel::quad<class OpenBabel::OBAtom *,class OpenBabel::OBAtom *,class OpenBabel::OBAtom *,class OpenBabel::OBAtom *> > >::push_back(struct OpenBabel::quad<class OpenBabel::OBAtom *,class OpenBabel::OBAtom *,class OpenBabel::OBAtom *,class OpenBabel::OBAtom *> const &)
 ??0?$quad@PAVOBAtom@OpenBabel@@PAV12@PAV12@PAV12@@OpenBabel@@QAE@XZ @ 1127 NONAME ; public: __thiscall OpenBabel::quad<class OpenBabel::OBAtom *,class OpenBabel::OBAtom *,class OpenBabel::OBAtom *,class OpenBabel::OBAtom *>::quad<class OpenBabel::OBAtom *,class OpenBabel::OBAtom *,class OpenBabel::OBAtom *,class OpenBabel::OBAtom *>(void)
 ?resize@?$vector@V?$vector@IV?$allocator@I@std@@@std@@V?$allocator@V?$vector@IV?$allocator@I@std@@@std@@@2@@std@@QAEXIABV?$vector@IV?$allocator@I@std@@@2@@Z @ 1128 NONAME ; public: void __thiscall std::vector<class std::vector<unsigned int,class std::allocator<unsigned int> >,class std::allocator<class std::vector<unsigned int,class std::allocator<unsigned int> > > >::resize(unsigned int,class std::vector<unsigned int,class std::allocator<unsigned int> > const &)
 ??A?$vector@V?$vector@IV?$allocator@I@std@@@std@@V?$allocator@V?$vector@IV?$allocator@I@std@@@std@@@2@@std@@QAEAAV?$vector@IV?$allocator@I@std@@@1@I@Z @ 1129 NONAME ; public: class std::vector<unsigned int,class std::allocator<unsigned int> > & __thiscall std::vector<class std::vector<unsigned int,class std::allocator<unsigned int> >,class std::allocator<class std::vector<unsigned int,class std::allocator<unsigned int> > > >::operator[](unsigned int)
 ?clear@?$vector@V?$vector@IV?$allocator@I@std@@@std@@V?$allocator@V?$vector@IV?$allocator@I@std@@@std@@@2@@std@@QAEXXZ @ 1130 NONAME ; public: void __thiscall std::vector<class std::vector<unsigned int,class std::allocator<unsigned int> >,class std::allocator<class std::vector<unsigned int,class std::allocator<unsigned int> > > >::clear(void)
 ?erase@?$vector@PAVOBRing@OpenBabel@@V?$allocator@PAVOBRing@OpenBabel@@@std@@@std@@QAEPAPAVOBRing@OpenBabel@@PAPAV34@0@Z @ 1131 NONAME ; public: class OpenBabel::OBRing * * __thiscall std::vector<class OpenBabel::OBRing *,class std::allocator<class OpenBabel::OBRing *> >::erase(class OpenBabel::OBRing * *,class OpenBabel::OBRing * *)
 ?end@?$vector@VOBExternalBond@OpenBabel@@V?$allocator@VOBExternalBond@OpenBabel@@@std@@@std@@QAEPAVOBExternalBond@OpenBabel@@XZ @ 1132 NONAME ; public: class OpenBabel::OBExternalBond * __thiscall std::vector<class OpenBabel::OBExternalBond,class std::allocator<class OpenBabel::OBExternalBond> >::end(void)
 ?insert@?$vector@VOBExternalBond@OpenBabel@@V?$allocator@VOBExternalBond@OpenBabel@@@std@@@std@@QAEPAVOBExternalBond@OpenBabel@@PAV34@ABV34@@Z @ 1133 NONAME ; public: class OpenBabel::OBExternalBond * __thiscall std::vector<class OpenBabel::OBExternalBond,class std::allocator<class OpenBabel::OBExternalBond> >::insert(class OpenBabel::OBExternalBond *,class OpenBabel::OBExternalBond const &)
 ?_Destroy@?$vector@VOBExternalBond@OpenBabel@@V?$allocator@VOBExternalBond@OpenBabel@@@std@@@std@@IAEXPAVOBExternalBond@OpenBabel@@0@Z @ 1134 NONAME ; protected: void __thiscall std::vector<class OpenBabel::OBExternalBond,class std::allocator<class OpenBabel::OBExternalBond> >::_Destroy(class OpenBabel::OBExternalBond *,class OpenBabel::OBExternalBond *)
 ?deallocate@?$allocator@VOBExternalBond@OpenBabel@@@std@@QAEXPAXI@Z @ 1135 NONAME ; public: void __thiscall std::allocator<class OpenBabel::OBExternalBond>::deallocate(void *,unsigned int)
 ?capacity@?$vector@U?$triple@PAVOBAtom@OpenBabel@@PAV12@N@OpenBabel@@V?$allocator@U?$triple@PAVOBAtom@OpenBabel@@PAV12@N@OpenBabel@@@std@@@std@@QBEIXZ @ 1136 NONAME ; public: unsigned int __thiscall std::vector<struct OpenBabel::triple<class OpenBabel::OBAtom *,class OpenBabel::OBAtom *,double>,class std::allocator<struct OpenBabel::triple<class OpenBabel::OBAtom *,class OpenBabel::OBAtom *,double> > >::capacity(void)const 
 ?begin@?$vector@U?$triple@PAVOBAtom@OpenBabel@@PAV12@N@OpenBabel@@V?$allocator@U?$triple@PAVOBAtom@OpenBabel@@PAV12@N@OpenBabel@@@std@@@std@@QBEPBU?$triple@PAVOBAtom@OpenBabel@@PAV12@N@OpenBabel@@XZ @ 1137 NONAME ; public: struct OpenBabel::triple<class OpenBabel::OBAtom *,class OpenBabel::OBAtom *,double> const * __thiscall std::vector<struct OpenBabel::triple<class OpenBabel::OBAtom *,class OpenBabel::OBAtom *,double>,class std::allocator<struct OpenBabel::triple<class OpenBabel::OBAtom *,class OpenBabel::OBAtom *,double> > >::begin(void)const 
 ?end@?$vector@U?$triple@PAVOBAtom@OpenBabel@@PAV12@N@OpenBabel@@V?$allocator@U?$triple@PAVOBAtom@OpenBabel@@PAV12@N@OpenBabel@@@std@@@std@@QBEPBU?$triple@PAVOBAtom@OpenBabel@@PAV12@N@OpenBabel@@XZ @ 1138 NONAME ; public: struct OpenBabel::triple<class OpenBabel::OBAtom *,class OpenBabel::OBAtom *,double> const * __thiscall std::vector<struct OpenBabel::triple<class OpenBabel::OBAtom *,class OpenBabel::OBAtom *,double>,class std::allocator<struct OpenBabel::triple<class OpenBabel::OBAtom *,class OpenBabel::OBAtom *,double> > >::end(void)const 
 ?insert@?$vector@U?$triple@PAVOBAtom@OpenBabel@@PAV12@N@OpenBabel@@V?$allocator@U?$triple@PAVOBAtom@OpenBabel@@PAV12@N@OpenBabel@@@std@@@std@@QAEPAU?$triple@PAVOBAtom@OpenBabel@@PAV12@N@OpenBabel@@PAU34@ABU34@@Z @ 1139 NONAME ; public: struct OpenBabel::triple<class OpenBabel::OBAtom *,class OpenBabel::OBAtom *,double> * __thiscall std::vector<struct OpenBabel::triple<class OpenBabel::OBAtom *,class OpenBabel::OBAtom *,double>,class std::allocator<struct OpenBabel::triple<class OpenBabel::OBAtom *,class OpenBabel::OBAtom *,double> > >::insert(struct OpenBabel::triple<class OpenBabel::OBAtom *,class OpenBabel::OBAtom *,double> *,struct OpenBabel::triple<class OpenBabel::OBAtom *,class OpenBabel::OBAtom *,double> const &)
 ?_Destroy@?$vector@U?$triple@PAVOBAtom@OpenBabel@@PAV12@N@OpenBabel@@V?$allocator@U?$triple@PAVOBAtom@OpenBabel@@PAV12@N@OpenBabel@@@std@@@std@@IAEXPAU?$triple@PAVOBAtom@OpenBabel@@PAV12@N@OpenBabel@@0@Z @ 1140 NONAME ; protected: void __thiscall std::vector<struct OpenBabel::triple<class OpenBabel::OBAtom *,class OpenBabel::OBAtom *,double>,class std::allocator<struct OpenBabel::triple<class OpenBabel::OBAtom *,class OpenBabel::OBAtom *,double> > >::_Destroy(struct OpenBabel::triple<class OpenBabel::OBAtom *,class OpenBabel::OBAtom *,double> *,struct OpenBabel::triple<class OpenBabel::OBAtom *,class OpenBabel::OBAtom *,double> *)
 ?_Ucopy@?$vector@U?$triple@PAVOBAtom@OpenBabel@@PAV12@N@OpenBabel@@V?$allocator@U?$triple@PAVOBAtom@OpenBabel@@PAV12@N@OpenBabel@@@std@@@std@@IAEPAU?$triple@PAVOBAtom@OpenBabel@@PAV12@N@OpenBabel@@PBU34@0PAU34@@Z @ 1141 NONAME ; protected: struct OpenBabel::triple<class OpenBabel::OBAtom *,class OpenBabel::OBAtom *,double> * __thiscall std::vector<struct OpenBabel::triple<class OpenBabel::OBAtom *,class OpenBabel::OBAtom *,double>,class std::allocator<struct OpenBabel::triple<class OpenBabel::OBAtom *,class OpenBabel::OBAtom *,double> > >::_Ucopy(struct OpenBabel::triple<class OpenBabel::OBAtom *,class OpenBabel::OBAtom *,double> const *,struct OpenBabel::triple<class OpenBabel::OBAtom *,class OpenBabel::OBAtom *,double> const *,s
 ?allocate@?$allocator@U?$triple@PAVOBAtom@OpenBabel@@PAV12@N@OpenBabel@@@std@@QAEPAU?$triple@PAVOBAtom@OpenBabel@@PAV12@N@OpenBabel@@IPBX@Z @ 1142 NONAME ; public: struct OpenBabel::triple<class OpenBabel::OBAtom *,class OpenBabel::OBAtom *,double> * __thiscall std::allocator<struct OpenBabel::triple<class OpenBabel::OBAtom *,class OpenBabel::OBAtom *,double> >::allocate(unsigned int,void const *)
 ?deallocate@?$allocator@U?$triple@PAVOBAtom@OpenBabel@@PAV12@N@OpenBabel@@@std@@QAEXPAXI@Z @ 1143 NONAME ; public: void __thiscall std::allocator<struct OpenBabel::triple<class OpenBabel::OBAtom *,class OpenBabel::OBAtom *,double> >::deallocate(void *,unsigned int)
 ?capacity@?$vector@VOBTorsion@OpenBabel@@V?$allocator@VOBTorsion@OpenBabel@@@std@@@std@@QBEIXZ @ 1144 NONAME ; public: unsigned int __thiscall std::vector<class OpenBabel::OBTorsion,class std::allocator<class OpenBabel::OBTorsion> >::capacity(void)const 
 ?begin@?$vector@VOBTorsion@OpenBabel@@V?$allocator@VOBTorsion@OpenBabel@@@std@@@std@@QBEPBVOBTorsion@OpenBabel@@XZ @ 1145 NONAME ; public: class OpenBabel::OBTorsion const * __thiscall std::vector<class OpenBabel::OBTorsion,class std::allocator<class OpenBabel::OBTorsion> >::begin(void)const 
 ?end@?$vector@VOBTorsion@OpenBabel@@V?$allocator@VOBTorsion@OpenBabel@@@std@@@std@@QBEPBVOBTorsion@OpenBabel@@XZ @ 1146 NONAME ; public: class OpenBabel::OBTorsion const * __thiscall std::vector<class OpenBabel::OBTorsion,class std::allocator<class OpenBabel::OBTorsion> >::end(void)const 
 ?insert@?$vector@VOBTorsion@OpenBabel@@V?$allocator@VOBTorsion@OpenBabel@@@std@@@std@@QAEPAVOBTorsion@OpenBabel@@PAV34@ABV34@@Z @ 1147 NONAME ; public: class OpenBabel::OBTorsion * __thiscall std::vector<class OpenBabel::OBTorsion,class std::allocator<class OpenBabel::OBTorsion> >::insert(class OpenBabel::OBTorsion *,class OpenBabel::OBTorsion const &)
 ?erase@?$vector@VOBTorsion@OpenBabel@@V?$allocator@VOBTorsion@OpenBabel@@@std@@@std@@QAEPAVOBTorsion@OpenBabel@@PAV34@0@Z @ 1148 NONAME ; public: class OpenBabel::OBTorsion * __thiscall std::vector<class OpenBabel::OBTorsion,class std::allocator<class OpenBabel::OBTorsion> >::erase(class OpenBabel::OBTorsion *,class OpenBabel::OBTorsion *)
 ?_Destroy@?$vector@VOBTorsion@OpenBabel@@V?$allocator@VOBTorsion@OpenBabel@@@std@@@std@@IAEXPAVOBTorsion@OpenBabel@@0@Z @ 1149 NONAME ; protected: void __thiscall std::vector<class OpenBabel::OBTorsion,class std::allocator<class OpenBabel::OBTorsion> >::_Destroy(class OpenBabel::OBTorsion *,class OpenBabel::OBTorsion *)
 ?_Ucopy@?$vector@VOBTorsion@OpenBabel@@V?$allocator@VOBTorsion@OpenBabel@@@std@@@std@@IAEPAVOBTorsion@OpenBabel@@PBV34@0PAV34@@Z @ 1150 NONAME ; protected: class OpenBabel::OBTorsion * __thiscall std::vector<class OpenBabel::OBTorsion,class std::allocator<class OpenBabel::OBTorsion> >::_Ucopy(class OpenBabel::OBTorsion const *,class OpenBabel::OBTorsion const *,class OpenBabel::OBTorsion *)
 ?allocate@?$allocator@VOBTorsion@OpenBabel@@@std@@QAEPAVOBTorsion@OpenBabel@@IPBX@Z @ 1151 NONAME ; public: class OpenBabel::OBTorsion * __thiscall std::allocator<class OpenBabel::OBTorsion>::allocate(unsigned int,void const *)
 ?deallocate@?$allocator@VOBTorsion@OpenBabel@@@std@@QAEXPAXI@Z @ 1152 NONAME ; public: void __thiscall std::allocator<class OpenBabel::OBTorsion>::deallocate(void *,unsigned int)
 ?capacity@?$vector@VOBAngle@OpenBabel@@V?$allocator@VOBAngle@OpenBabel@@@std@@@std@@QBEIXZ @ 1153 NONAME ; public: unsigned int __thiscall std::vector<class OpenBabel::OBAngle,class std::allocator<class OpenBabel::OBAngle> >::capacity(void)const 
 ?begin@?$vector@VOBAngle@OpenBabel@@V?$allocator@VOBAngle@OpenBabel@@@std@@@std@@QBEPBVOBAngle@OpenBabel@@XZ @ 1154 NONAME ; public: class OpenBabel::OBAngle const * __thiscall std::vector<class OpenBabel::OBAngle,class std::allocator<class OpenBabel::OBAngle> >::begin(void)const 
 ?end@?$vector@VOBAngle@OpenBabel@@V?$allocator@VOBAngle@OpenBabel@@@std@@@std@@QBEPBVOBAngle@OpenBabel@@XZ @ 1155 NONAME ; public: class OpenBabel::OBAngle const * __thiscall std::vector<class OpenBabel::OBAngle,class std::allocator<class OpenBabel::OBAngle> >::end(void)const 
 ?insert@?$vector@VOBAngle@OpenBabel@@V?$allocator@VOBAngle@OpenBabel@@@std@@@std@@QAEPAVOBAngle@OpenBabel@@PAV34@ABV34@@Z @ 1156 NONAME ; public: class OpenBabel::OBAngle * __thiscall std::vector<class OpenBabel::OBAngle,class std::allocator<class OpenBabel::OBAngle> >::insert(class OpenBabel::OBAngle *,class OpenBabel::OBAngle const &)
 ?erase@?$vector@VOBAngle@OpenBabel@@V?$allocator@VOBAngle@OpenBabel@@@std@@@std@@QAEPAVOBAngle@OpenBabel@@PAV34@0@Z @ 1157 NONAME ; public: class OpenBabel::OBAngle * __thiscall std::vector<class OpenBabel::OBAngle,class std::allocator<class OpenBabel::OBAngle> >::erase(class OpenBabel::OBAngle *,class OpenBabel::OBAngle *)
 ?_Destroy@?$vector@VOBAngle@OpenBabel@@V?$allocator@VOBAngle@OpenBabel@@@std@@@std@@IAEXPAVOBAngle@OpenBabel@@0@Z @ 1158 NONAME ; protected: void __thiscall std::vector<class OpenBabel::OBAngle,class std::allocator<class OpenBabel::OBAngle> >::_Destroy(class OpenBabel::OBAngle *,class OpenBabel::OBAngle *)
 ?_Ucopy@?$vector@VOBAngle@OpenBabel@@V?$allocator@VOBAngle@OpenBabel@@@std@@@std@@IAEPAVOBAngle@OpenBabel@@PBV34@0PAV34@@Z @ 1159 NONAME ; protected: class OpenBabel::OBAngle * __thiscall std::vector<class OpenBabel::OBAngle,class std::allocator<class OpenBabel::OBAngle> >::_Ucopy(class OpenBabel::OBAngle const *,class OpenBabel::OBAngle const *,class OpenBabel::OBAngle *)
 ?allocate@?$allocator@VOBAngle@OpenBabel@@@std@@QAEPAVOBAngle@OpenBabel@@IPBX@Z @ 1160 NONAME ; public: class OpenBabel::OBAngle * __thiscall std::allocator<class OpenBabel::OBAngle>::allocate(unsigned int,void const *)
 ?deallocate@?$allocator@VOBAngle@OpenBabel@@@std@@QAEXPAXI@Z @ 1161 NONAME ; public: void __thiscall std::allocator<class OpenBabel::OBAngle>::deallocate(void *,unsigned int)
 ?capacity@?$vector@Vvector3@OpenBabel@@V?$allocator@Vvector3@OpenBabel@@@std@@@std@@QBEIXZ @ 1162 NONAME ; public: unsigned int __thiscall std::vector<class OpenBabel::vector3,class std::allocator<class OpenBabel::vector3> >::capacity(void)const 
 ?begin@?$vector@Vvector3@OpenBabel@@V?$allocator@Vvector3@OpenBabel@@@std@@@std@@QBEPBVvector3@OpenBabel@@XZ @ 1163 NONAME ; public: class OpenBabel::vector3 const * __thiscall std::vector<class OpenBabel::vector3,class std::allocator<class OpenBabel::vector3> >::begin(void)const 
 ?end@?$vector@Vvector3@OpenBabel@@V?$allocator@Vvector3@OpenBabel@@@std@@@std@@QBEPBVvector3@OpenBabel@@XZ @ 1164 NONAME ; public: class OpenBabel::vector3 const * __thiscall std::vector<class OpenBabel::vector3,class std::allocator<class OpenBabel::vector3> >::end(void)const 
 ?capacity@?$vector@U?$quad@PAVOBAtom@OpenBabel@@PAV12@PAV12@PAV12@@OpenBabel@@V?$allocator@U?$quad@PAVOBAtom@OpenBabel@@PAV12@PAV12@PAV12@@OpenBabel@@@std@@@std@@QBEIXZ @ 1165 NONAME ; public: unsigned int __thiscall std::vector<struct OpenBabel::quad<class OpenBabel::OBAtom *,class OpenBabel::OBAtom *,class OpenBabel::OBAtom *,class OpenBabel::OBAtom *>,class std::allocator<struct OpenBabel::quad<class OpenBabel::OBAtom *,class OpenBabel::OBAtom *,class OpenBabel::OBAtom *,class OpenBabel::OBAtom *> > >::capacity(void)const 
 ?begin@?$vector@U?$quad@PAVOBAtom@OpenBabel@@PAV12@PAV12@PAV12@@OpenBabel@@V?$allocator@U?$quad@PAVOBAtom@OpenBabel@@PAV12@PAV12@PAV12@@OpenBabel@@@std@@@std@@QBEPBU?$quad@PAVOBAtom@OpenBabel@@PAV12@PAV12@PAV12@@OpenBabel@@XZ @ 1166 NONAME ; public: struct OpenBabel::quad<class OpenBabel::OBAtom *,class OpenBabel::OBAtom *,class OpenBabel::OBAtom *,class OpenBabel::OBAtom *> const * __thiscall std::vector<struct OpenBabel::quad<class OpenBabel::OBAtom *,class OpenBabel::OBAtom *,class OpenBabel::OBAtom *,class OpenBabel::OBAtom *>,class std::allocator<struct OpenBabel::quad<class OpenBabel::OBAtom *,class OpenBabel::OBAtom *,class OpenBabel::OBAtom *,class OpenBabel::OBAtom *> > >::begin(void)const 
 ?end@?$vector@U?$quad@PAVOBAtom@OpenBabel@@PAV12@PAV12@PAV12@@OpenBabel@@V?$allocator@U?$quad@PAVOBAtom@OpenBabel@@PAV12@PAV12@PAV12@@OpenBabel@@@std@@@std@@QBEPBU?$quad@PAVOBAtom@OpenBabel@@PAV12@PAV12@PAV12@@OpenBabel@@XZ @ 1167 NONAME ; public: struct OpenBabel::quad<class OpenBabel::OBAtom *,class OpenBabel::OBAtom *,class OpenBabel::OBAtom *,class OpenBabel::OBAtom *> const * __thiscall std::vector<struct OpenBabel::quad<class OpenBabel::OBAtom *,class OpenBabel::OBAtom *,class OpenBabel::OBAtom *,class OpenBabel::OBAtom *>,class std::allocator<struct OpenBabel::quad<class OpenBabel::OBAtom *,class OpenBabel::OBAtom *,class OpenBabel::OBAtom *,class OpenBabel::OBAtom *> > >::end(void)const 
 ?insert@?$vector@U?$quad@PAVOBAtom@OpenBabel@@PAV12@PAV12@PAV12@@OpenBabel@@V?$allocator@U?$quad@PAVOBAtom@OpenBabel@@PAV12@PAV12@PAV12@@OpenBabel@@@std@@@std@@QAEPAU?$quad@PAVOBAtom@OpenBabel@@PAV12@PAV12@PAV12@@OpenBabel@@PAU34@ABU34@@Z @ 1168 NONAME ; public: struct OpenBabel::quad<class OpenBabel::OBAtom *,class OpenBabel::OBAtom *,class OpenBabel::OBAtom *,class OpenBabel::OBAtom *> * __thiscall std::vector<struct OpenBabel::quad<class OpenBabel::OBAtom *,class OpenBabel::OBAtom *,class OpenBabel::OBAtom *,class OpenBabel::OBAtom *>,class std::allocator<struct OpenBabel::quad<class OpenBabel::OBAtom *,class OpenBabel::OBAtom *,class OpenBabel::OBAtom *,class OpenBabel::OBAtom *> > >::insert(struct OpenBabel::quad<class OpenBabel::OBAtom *,class OpenBa
 ?_Destroy@?$vector@U?$quad@PAVOBAtom@OpenBabel@@PAV12@PAV12@PAV12@@OpenBabel@@V?$allocator@U?$quad@PAVOBAtom@OpenBabel@@PAV12@PAV12@PAV12@@OpenBabel@@@std@@@std@@IAEXPAU?$quad@PAVOBAtom@OpenBabel@@PAV12@PAV12@PAV12@@OpenBabel@@0@Z @ 1169 NONAME ; protected: void __thiscall std::vector<struct OpenBabel::quad<class OpenBabel::OBAtom *,class OpenBabel::OBAtom *,class OpenBabel::OBAtom *,class OpenBabel::OBAtom *>,class std::allocator<struct OpenBabel::quad<class OpenBabel::OBAtom *,class OpenBabel::OBAtom *,class OpenBabel::OBAtom *,class OpenBabel::OBAtom *> > >::_Destroy(struct OpenBabel::quad<class OpenBabel::OBAtom *,class OpenBabel::OBAtom *,class OpenBabel::OBAtom *,class OpenBabel::OBAtom *> *,struct OpenBabel::quad<class OpenBabel::OBAtom *,cl
 ?_Ucopy@?$vector@U?$quad@PAVOBAtom@OpenBabel@@PAV12@PAV12@PAV12@@OpenBabel@@V?$allocator@U?$quad@PAVOBAtom@OpenBabel@@PAV12@PAV12@PAV12@@OpenBabel@@@std@@@std@@IAEPAU?$quad@PAVOBAtom@OpenBabel@@PAV12@PAV12@PAV12@@OpenBabel@@PBU34@0PAU34@@Z @ 1170 NONAME ; protected: struct OpenBabel::quad<class OpenBabel::OBAtom *,class OpenBabel::OBAtom *,class OpenBabel::OBAtom *,class OpenBabel::OBAtom *> * __thiscall std::vector<struct OpenBabel::quad<class OpenBabel::OBAtom *,class OpenBabel::OBAtom *,class OpenBabel::OBAtom *,class OpenBabel::OBAtom *>,class std::allocator<struct OpenBabel::quad<class OpenBabel::OBAtom *,class OpenBabel::OBAtom *,class OpenBabel::OBAtom *,class OpenBabel::OBAtom *> > >::_Ucopy(struct OpenBabel::quad<class OpenBabel::OBAtom *,class Ope
 ?allocate@?$allocator@U?$quad@PAVOBAtom@OpenBabel@@PAV12@PAV12@PAV12@@OpenBabel@@@std@@QAEPAU?$quad@PAVOBAtom@OpenBabel@@PAV12@PAV12@PAV12@@OpenBabel@@IPBX@Z @ 1171 NONAME ; public: struct OpenBabel::quad<class OpenBabel::OBAtom *,class OpenBabel::OBAtom *,class OpenBabel::OBAtom *,class OpenBabel::OBAtom *> * __thiscall std::allocator<struct OpenBabel::quad<class OpenBabel::OBAtom *,class OpenBabel::OBAtom *,class OpenBabel::OBAtom *,class OpenBabel::OBAtom *> >::allocate(unsigned int,void const *)
 ?deallocate@?$allocator@U?$quad@PAVOBAtom@OpenBabel@@PAV12@PAV12@PAV12@@OpenBabel@@@std@@QAEXPAXI@Z @ 1172 NONAME ; public: void __thiscall std::allocator<struct OpenBabel::quad<class OpenBabel::OBAtom *,class OpenBabel::OBAtom *,class OpenBabel::OBAtom *,class OpenBabel::OBAtom *> >::deallocate(void *,unsigned int)
 ?begin@?$vector@V?$vector@IV?$allocator@I@std@@@std@@V?$allocator@V?$vector@IV?$allocator@I@std@@@std@@@2@@std@@QAEPAV?$vector@IV?$allocator@I@std@@@2@XZ @ 1173 NONAME ; public: class std::vector<unsigned int,class std::allocator<unsigned int> > * __thiscall std::vector<class std::vector<unsigned int,class std::allocator<unsigned int> >,class std::allocator<class std::vector<unsigned int,class std::allocator<unsigned int> > > >::begin(void)
 ?end@?$vector@V?$vector@IV?$allocator@I@std@@@std@@V?$allocator@V?$vector@IV?$allocator@I@std@@@std@@@2@@std@@QAEPAV?$vector@IV?$allocator@I@std@@@2@XZ @ 1174 NONAME ; public: class std::vector<unsigned int,class std::allocator<unsigned int> > * __thiscall std::vector<class std::vector<unsigned int,class std::allocator<unsigned int> >,class std::allocator<class std::vector<unsigned int,class std::allocator<unsigned int> > > >::end(void)
 ?size@?$vector@V?$vector@IV?$allocator@I@std@@@std@@V?$allocator@V?$vector@IV?$allocator@I@std@@@std@@@2@@std@@QBEIXZ @ 1175 NONAME ; public: unsigned int __thiscall std::vector<class std::vector<unsigned int,class std::allocator<unsigned int> >,class std::allocator<class std::vector<unsigned int,class std::allocator<unsigned int> > > >::size(void)const 
 ?insert@?$vector@V?$vector@IV?$allocator@I@std@@@std@@V?$allocator@V?$vector@IV?$allocator@I@std@@@std@@@2@@std@@QAEXPAV?$vector@IV?$allocator@I@std@@@2@IABV32@@Z @ 1176 NONAME ; public: void __thiscall std::vector<class std::vector<unsigned int,class std::allocator<unsigned int> >,class std::allocator<class std::vector<unsigned int,class std::allocator<unsigned int> > > >::insert(class std::vector<unsigned int,class std::allocator<unsigned int> > *,unsigned int,class std::vector<unsigned int,class std::allocator<unsigned int> > const &)
 ?erase@?$vector@V?$vector@IV?$allocator@I@std@@@std@@V?$allocator@V?$vector@IV?$allocator@I@std@@@std@@@2@@std@@QAEPAV?$vector@IV?$allocator@I@std@@@2@PAV32@0@Z @ 1177 NONAME ; public: class std::vector<unsigned int,class std::allocator<unsigned int> > * __thiscall std::vector<class std::vector<unsigned int,class std::allocator<unsigned int> >,class std::allocator<class std::vector<unsigned int,class std::allocator<unsigned int> > > >::erase(class std::vector<unsigned int,class std::allocator<unsigned int> > *,class std::vector<unsigned int,class std::allocator<unsigned int> > *)
 ?begin@?$vector@VOBExternalBond@OpenBabel@@V?$allocator@VOBExternalBond@OpenBabel@@@std@@@std@@QAEPAVOBExternalBond@OpenBabel@@XZ @ 1178 NONAME ; public: class OpenBabel::OBExternalBond * __thiscall std::vector<class OpenBabel::OBExternalBond,class std::allocator<class OpenBabel::OBExternalBond> >::begin(void)
 ?insert@?$vector@VOBExternalBond@OpenBabel@@V?$allocator@VOBExternalBond@OpenBabel@@@std@@@std@@QAEXPAVOBExternalBond@OpenBabel@@IABV34@@Z @ 1179 NONAME ; public: void __thiscall std::vector<class OpenBabel::OBExternalBond,class std::allocator<class OpenBabel::OBExternalBond> >::insert(class OpenBabel::OBExternalBond *,unsigned int,class OpenBabel::OBExternalBond const &)
 ?destroy@?$allocator@VOBExternalBond@OpenBabel@@@std@@QAEXPAVOBExternalBond@OpenBabel@@@Z @ 1180 NONAME ; public: void __thiscall std::allocator<class OpenBabel::OBExternalBond>::destroy(class OpenBabel::OBExternalBond *)
 ?insert@?$vector@U?$triple@PAVOBAtom@OpenBabel@@PAV12@N@OpenBabel@@V?$allocator@U?$triple@PAVOBAtom@OpenBabel@@PAV12@N@OpenBabel@@@std@@@std@@QAEXPAU?$triple@PAVOBAtom@OpenBabel@@PAV12@N@OpenBabel@@IABU34@@Z @ 1181 NONAME ; public: void __thiscall std::vector<struct OpenBabel::triple<class OpenBabel::OBAtom *,class OpenBabel::OBAtom *,double>,class std::allocator<struct OpenBabel::triple<class OpenBabel::OBAtom *,class OpenBabel::OBAtom *,double> > >::insert(struct OpenBabel::triple<class OpenBabel::OBAtom *,class OpenBabel::OBAtom *,double> *,unsigned int,struct OpenBabel::triple<class OpenBabel::OBAtom *,class OpenBabel::OBAtom *,double> const &)
 ?construct@?$allocator@U?$triple@PAVOBAtom@OpenBabel@@PAV12@N@OpenBabel@@@std@@QAEXPAU?$triple@PAVOBAtom@OpenBabel@@PAV12@N@OpenBabel@@ABU34@@Z @ 1182 NONAME ; public: void __thiscall std::allocator<struct OpenBabel::triple<class OpenBabel::OBAtom *,class OpenBabel::OBAtom *,double> >::construct(struct OpenBabel::triple<class OpenBabel::OBAtom *,class OpenBabel::OBAtom *,double> *,struct OpenBabel::triple<class OpenBabel::OBAtom *,class OpenBabel::OBAtom *,double> const &)
 ?destroy@?$allocator@U?$triple@PAVOBAtom@OpenBabel@@PAV12@N@OpenBabel@@@std@@QAEXPAU?$triple@PAVOBAtom@OpenBabel@@PAV12@N@OpenBabel@@@Z @ 1183 NONAME ; public: void __thiscall std::allocator<struct OpenBabel::triple<class OpenBabel::OBAtom *,class OpenBabel::OBAtom *,double> >::destroy(struct OpenBabel::triple<class OpenBabel::OBAtom *,class OpenBabel::OBAtom *,double> *)
 ?insert@?$vector@VOBTorsion@OpenBabel@@V?$allocator@VOBTorsion@OpenBabel@@@std@@@std@@QAEXPAVOBTorsion@OpenBabel@@IABV34@@Z @ 1184 NONAME ; public: void __thiscall std::vector<class OpenBabel::OBTorsion,class std::allocator<class OpenBabel::OBTorsion> >::insert(class OpenBabel::OBTorsion *,unsigned int,class OpenBabel::OBTorsion const &)
 ?construct@?$allocator@VOBTorsion@OpenBabel@@@std@@QAEXPAVOBTorsion@OpenBabel@@ABV34@@Z @ 1185 NONAME ; public: void __thiscall std::allocator<class OpenBabel::OBTorsion>::construct(class OpenBabel::OBTorsion *,class OpenBabel::OBTorsion const &)
 ?destroy@?$allocator@VOBTorsion@OpenBabel@@@std@@QAEXPAVOBTorsion@OpenBabel@@@Z @ 1186 NONAME ; public: void __thiscall std::allocator<class OpenBabel::OBTorsion>::destroy(class OpenBabel::OBTorsion *)
 ?insert@?$vector@VOBAngle@OpenBabel@@V?$allocator@VOBAngle@OpenBabel@@@std@@@std@@QAEXPAVOBAngle@OpenBabel@@IABV34@@Z @ 1187 NONAME ; public: void __thiscall std::vector<class OpenBabel::OBAngle,class std::allocator<class OpenBabel::OBAngle> >::insert(class OpenBabel::OBAngle *,unsigned int,class OpenBabel::OBAngle const &)
 ?construct@?$allocator@VOBAngle@OpenBabel@@@std@@QAEXPAVOBAngle@OpenBabel@@ABV34@@Z @ 1188 NONAME ; public: void __thiscall std::allocator<class OpenBabel::OBAngle>::construct(class OpenBabel::OBAngle *,class OpenBabel::OBAngle const &)
 ?destroy@?$allocator@VOBAngle@OpenBabel@@@std@@QAEXPAVOBAngle@OpenBabel@@@Z @ 1189 NONAME ; public: void __thiscall std::allocator<class OpenBabel::OBAngle>::destroy(class OpenBabel::OBAngle *)
 ?insert@?$vector@U?$quad@PAVOBAtom@OpenBabel@@PAV12@PAV12@PAV12@@OpenBabel@@V?$allocator@U?$quad@PAVOBAtom@OpenBabel@@PAV12@PAV12@PAV12@@OpenBabel@@@std@@@std@@QAEXPAU?$quad@PAVOBAtom@OpenBabel@@PAV12@PAV12@PAV12@@OpenBabel@@IABU34@@Z @ 1190 NONAME ; public: void __thiscall std::vector<struct OpenBabel::quad<class OpenBabel::OBAtom *,class OpenBabel::OBAtom *,class OpenBabel::OBAtom *,class OpenBabel::OBAtom *>,class std::allocator<struct OpenBabel::quad<class OpenBabel::OBAtom *,class OpenBabel::OBAtom *,class OpenBabel::OBAtom *,class OpenBabel::OBAtom *> > >::insert(struct OpenBabel::quad<class OpenBabel::OBAtom *,class OpenBabel::OBAtom *,class OpenBabel::OBAtom *,class OpenBabel::OBAtom *> *,unsigned int,struct OpenBabel::quad<class OpenBabel::OBA
 ?construct@?$allocator@U?$quad@PAVOBAtom@OpenBabel@@PAV12@PAV12@PAV12@@OpenBabel@@@std@@QAEXPAU?$quad@PAVOBAtom@OpenBabel@@PAV12@PAV12@PAV12@@OpenBabel@@ABU34@@Z @ 1191 NONAME ; public: void __thiscall std::allocator<struct OpenBabel::quad<class OpenBabel::OBAtom *,class OpenBabel::OBAtom *,class OpenBabel::OBAtom *,class OpenBabel::OBAtom *> >::construct(struct OpenBabel::quad<class OpenBabel::OBAtom *,class OpenBabel::OBAtom *,class OpenBabel::OBAtom *,class OpenBabel::OBAtom *> *,struct OpenBabel::quad<class OpenBabel::OBAtom *,class OpenBabel::OBAtom *,class OpenBabel::OBAtom *,class OpenBabel::OBAtom *> const &)
 ?destroy@?$allocator@U?$quad@PAVOBAtom@OpenBabel@@PAV12@PAV12@PAV12@@OpenBabel@@@std@@QAEXPAU?$quad@PAVOBAtom@OpenBabel@@PAV12@PAV12@PAV12@@OpenBabel@@@Z @ 1192 NONAME ; public: void __thiscall std::allocator<struct OpenBabel::quad<class OpenBabel::OBAtom *,class OpenBabel::OBAtom *,class OpenBabel::OBAtom *,class OpenBabel::OBAtom *> >::destroy(struct OpenBabel::quad<class OpenBabel::OBAtom *,class OpenBabel::OBAtom *,class OpenBabel::OBAtom *,class OpenBabel::OBAtom *> *)
 ?_Destroy@?$vector@V?$vector@IV?$allocator@I@std@@@std@@V?$allocator@V?$vector@IV?$allocator@I@std@@@std@@@2@@std@@IAEXPAV?$vector@IV?$allocator@I@std@@@2@0@Z @ 1193 NONAME ; protected: void __thiscall std::vector<class std::vector<unsigned int,class std::allocator<unsigned int> >,class std::allocator<class std::vector<unsigned int,class std::allocator<unsigned int> > > >::_Destroy(class std::vector<unsigned int,class std::allocator<unsigned int> > *,class std::vector<unsigned int,class std::allocator<unsigned int> > *)
 ?_Ucopy@?$vector@V?$vector@IV?$allocator@I@std@@@std@@V?$allocator@V?$vector@IV?$allocator@I@std@@@std@@@2@@std@@IAEPAV?$vector@IV?$allocator@I@std@@@2@PBV32@0PAV32@@Z @ 1194 NONAME ; protected: class std::vector<unsigned int,class std::allocator<unsigned int> > * __thiscall std::vector<class std::vector<unsigned int,class std::allocator<unsigned int> >,class std::allocator<class std::vector<unsigned int,class std::allocator<unsigned int> > > >::_Ucopy(class std::vector<unsigned int,class std::allocator<unsigned int> > const *,class std::vector<unsigned int,class std::allocator<unsigned int> > const *,class std::vector<unsigned int,class std::allocator<unsigned int> > *)
 ?_Ufill@?$vector@V?$vector@IV?$allocator@I@std@@@std@@V?$allocator@V?$vector@IV?$allocator@I@std@@@std@@@2@@std@@IAEXPAV?$vector@IV?$allocator@I@std@@@2@IABV32@@Z @ 1195 NONAME ; protected: void __thiscall std::vector<class std::vector<unsigned int,class std::allocator<unsigned int> >,class std::allocator<class std::vector<unsigned int,class std::allocator<unsigned int> > > >::_Ufill(class std::vector<unsigned int,class std::allocator<unsigned int> > *,unsigned int,class std::vector<unsigned int,class std::allocator<unsigned int> > const &)
 ?allocate@?$allocator@V?$vector@IV?$allocator@I@std@@@std@@@std@@QAEPAV?$vector@IV?$allocator@I@std@@@2@IPBX@Z @ 1196 NONAME ; public: class std::vector<unsigned int,class std::allocator<unsigned int> > * __thiscall std::allocator<class std::vector<unsigned int,class std::allocator<unsigned int> > >::allocate(unsigned int,void const *)
 ?deallocate@?$allocator@V?$vector@IV?$allocator@I@std@@@std@@@std@@QAEXPAXI@Z @ 1197 NONAME ; public: void __thiscall std::allocator<class std::vector<unsigned int,class std::allocator<unsigned int> > >::deallocate(void *,unsigned int)
 ?size@?$vector@VOBExternalBond@OpenBabel@@V?$allocator@VOBExternalBond@OpenBabel@@@std@@@std@@QBEIXZ @ 1198 NONAME ; public: unsigned int __thiscall std::vector<class OpenBabel::OBExternalBond,class std::allocator<class OpenBabel::OBExternalBond> >::size(void)const 
 ?_Ucopy@?$vector@VOBExternalBond@OpenBabel@@V?$allocator@VOBExternalBond@OpenBabel@@@std@@@std@@IAEPAVOBExternalBond@OpenBabel@@PBV34@0PAV34@@Z @ 1199 NONAME ; protected: class OpenBabel::OBExternalBond * __thiscall std::vector<class OpenBabel::OBExternalBond,class std::allocator<class OpenBabel::OBExternalBond> >::_Ucopy(class OpenBabel::OBExternalBond const *,class OpenBabel::OBExternalBond const *,class OpenBabel::OBExternalBond *)
 ?_Ufill@?$vector@VOBExternalBond@OpenBabel@@V?$allocator@VOBExternalBond@OpenBabel@@@std@@@std@@IAEXPAVOBExternalBond@OpenBabel@@IABV34@@Z @ 1200 NONAME ; protected: void __thiscall std::vector<class OpenBabel::OBExternalBond,class std::allocator<class OpenBabel::OBExternalBond> >::_Ufill(class OpenBabel::OBExternalBond *,unsigned int,class OpenBabel::OBExternalBond const &)
 ?allocate@?$allocator@VOBExternalBond@OpenBabel@@@std@@QAEPAVOBExternalBond@OpenBabel@@IPBX@Z @ 1201 NONAME ; public: class OpenBabel::OBExternalBond * __thiscall std::allocator<class OpenBabel::OBExternalBond>::allocate(unsigned int,void const *)
 ?_Ufill@?$vector@U?$triple@PAVOBAtom@OpenBabel@@PAV12@N@OpenBabel@@V?$allocator@U?$triple@PAVOBAtom@OpenBabel@@PAV12@N@OpenBabel@@@std@@@std@@IAEXPAU?$triple@PAVOBAtom@OpenBabel@@PAV12@N@OpenBabel@@IABU34@@Z @ 1202 NONAME ; protected: void __thiscall std::vector<struct OpenBabel::triple<class OpenBabel::OBAtom *,class OpenBabel::OBAtom *,double>,class std::allocator<struct OpenBabel::triple<class OpenBabel::OBAtom *,class OpenBabel::OBAtom *,double> > >::_Ufill(struct OpenBabel::triple<class OpenBabel::OBAtom *,class OpenBabel::OBAtom *,double> *,unsigned int,struct OpenBabel::triple<class OpenBabel::OBAtom *,class OpenBabel::OBAtom *,double> const &)
 ?_Ufill@?$vector@VOBTorsion@OpenBabel@@V?$allocator@VOBTorsion@OpenBabel@@@std@@@std@@IAEXPAVOBTorsion@OpenBabel@@IABV34@@Z @ 1203 NONAME ; protected: void __thiscall std::vector<class OpenBabel::OBTorsion,class std::allocator<class OpenBabel::OBTorsion> >::_Ufill(class OpenBabel::OBTorsion *,unsigned int,class OpenBabel::OBTorsion const &)
 ?_Ufill@?$vector@VOBAngle@OpenBabel@@V?$allocator@VOBAngle@OpenBabel@@@std@@@std@@IAEXPAVOBAngle@OpenBabel@@IABV34@@Z @ 1204 NONAME ; protected: void __thiscall std::vector<class OpenBabel::OBAngle,class std::allocator<class OpenBabel::OBAngle> >::_Ufill(class OpenBabel::OBAngle *,unsigned int,class OpenBabel::OBAngle const &)
 ?_Ufill@?$vector@U?$quad@PAVOBAtom@OpenBabel@@PAV12@PAV12@PAV12@@OpenBabel@@V?$allocator@U?$quad@PAVOBAtom@OpenBabel@@PAV12@PAV12@PAV12@@OpenBabel@@@std@@@std@@IAEXPAU?$quad@PAVOBAtom@OpenBabel@@PAV12@PAV12@PAV12@@OpenBabel@@IABU34@@Z @ 1205 NONAME ; protected: void __thiscall std::vector<struct OpenBabel::quad<class OpenBabel::OBAtom *,class OpenBabel::OBAtom *,class OpenBabel::OBAtom *,class OpenBabel::OBAtom *>,class std::allocator<struct OpenBabel::quad<class OpenBabel::OBAtom *,class OpenBabel::OBAtom *,class OpenBabel::OBAtom *,class OpenBabel::OBAtom *> > >::_Ufill(struct OpenBabel::quad<class OpenBabel::OBAtom *,class OpenBabel::OBAtom *,class OpenBabel::OBAtom *,class OpenBabel::OBAtom *> *,unsigned int,struct OpenBabel::quad<class OpenBabel::
 ?construct@?$allocator@V?$vector@IV?$allocator@I@std@@@std@@@std@@QAEXPAV?$vector@IV?$allocator@I@std@@@2@ABV32@@Z @ 1206 NONAME ; public: void __thiscall std::allocator<class std::vector<unsigned int,class std::allocator<unsigned int> > >::construct(class std::vector<unsigned int,class std::allocator<unsigned int> > *,class std::vector<unsigned int,class std::allocator<unsigned int> > const &)
 ?destroy@?$allocator@V?$vector@IV?$allocator@I@std@@@std@@@std@@QAEXPAV?$vector@IV?$allocator@I@std@@@2@@Z @ 1207 NONAME ; public: void __thiscall std::allocator<class std::vector<unsigned int,class std::allocator<unsigned int> > >::destroy(class std::vector<unsigned int,class std::allocator<unsigned int> > *)
 ?construct@?$allocator@VOBExternalBond@OpenBabel@@@std@@QAEXPAVOBExternalBond@OpenBabel@@ABV34@@Z @ 1208 NONAME ; public: void __thiscall std::allocator<class OpenBabel::OBExternalBond>::construct(class OpenBabel::OBExternalBond *,class OpenBabel::OBExternalBond const &)
 ?copy@std@@YAPAU?$triple@PAVOBAtom@OpenBabel@@PAV12@N@OpenBabel@@PBU23@0PAU23@@Z @ 1209 NONAME ; struct OpenBabel::triple<class OpenBabel::OBAtom *,class OpenBabel::OBAtom *,double> * __cdecl std::copy(struct OpenBabel::triple<class OpenBabel::OBAtom *,class OpenBabel::OBAtom *,double> const *,struct OpenBabel::triple<class OpenBabel::OBAtom *,class OpenBabel::OBAtom *,double> const *,struct OpenBabel::triple<class OpenBabel::OBAtom *,class OpenBabel::OBAtom *,double> *)
 ?copy@std@@YAPAU?$triple@PAVOBAtom@OpenBabel@@PAV12@N@OpenBabel@@PAU23@00@Z @ 1210 NONAME ; struct OpenBabel::triple<class OpenBabel::OBAtom *,class OpenBabel::OBAtom *,double> * __cdecl std::copy(struct OpenBabel::triple<class OpenBabel::OBAtom *,class OpenBabel::OBAtom *,double> *,struct OpenBabel::triple<class OpenBabel::OBAtom *,class OpenBabel::OBAtom *,double> *,struct OpenBabel::triple<class OpenBabel::OBAtom *,class OpenBabel::OBAtom *,double> *)
 ?copy@std@@YAPAVOBTorsion@OpenBabel@@PBV23@0PAV23@@Z @ 1211 NONAME ; class OpenBabel::OBTorsion * __cdecl std::copy(class OpenBabel::OBTorsion const *,class OpenBabel::OBTorsion const *,class OpenBabel::OBTorsion *)
 ?copy@std@@YAPAVOBAngle@OpenBabel@@PBV23@0PAV23@@Z @ 1212 NONAME ; class OpenBabel::OBAngle * __cdecl std::copy(class OpenBabel::OBAngle const *,class OpenBabel::OBAngle const *,class OpenBabel::OBAngle *)
 ?copy@std@@YAPAU?$quad@PAVOBAtom@OpenBabel@@PAV12@PAV12@PAV12@@OpenBabel@@PBU23@0PAU23@@Z @ 1213 NONAME ; struct OpenBabel::quad<class OpenBabel::OBAtom *,class OpenBabel::OBAtom *,class OpenBabel::OBAtom *,class OpenBabel::OBAtom *> * __cdecl std::copy(struct OpenBabel::quad<class OpenBabel::OBAtom *,class OpenBabel::OBAtom *,class OpenBabel::OBAtom *,class OpenBabel::OBAtom *> const *,struct OpenBabel::quad<class OpenBabel::OBAtom *,class OpenBabel::OBAtom *,class OpenBabel::OBAtom *,class OpenBabel::OBAtom *> const *,struct OpenBabel::quad<class OpenBabel::OBAtom *,class OpenBabel::OBAtom *,class OpenBabel:
 ?copy@std@@YAPAPAVOBRing@OpenBabel@@PAPAV23@00@Z @ 1214 NONAME ; class OpenBabel::OBRing * * __cdecl std::copy(class OpenBabel::OBRing * *,class OpenBabel::OBRing * *,class OpenBabel::OBRing * *)
 ?_Allocate@std@@YAPAU?$triple@PAVOBAtom@OpenBabel@@PAV12@N@OpenBabel@@HPAU23@@Z @ 1215 NONAME ; struct OpenBabel::triple<class OpenBabel::OBAtom *,class OpenBabel::OBAtom *,double> * __cdecl std::_Allocate(int,struct OpenBabel::triple<class OpenBabel::OBAtom *,class OpenBabel::OBAtom *,double> *)
 ?copy@std@@YAPAVOBTorsion@OpenBabel@@PAV23@00@Z @ 1216 NONAME ; class OpenBabel::OBTorsion * __cdecl std::copy(class OpenBabel::OBTorsion *,class OpenBabel::OBTorsion *,class OpenBabel::OBTorsion *)
 ?_Allocate@std@@YAPAVOBTorsion@OpenBabel@@HPAV23@@Z @ 1217 NONAME ; class OpenBabel::OBTorsion * __cdecl std::_Allocate(int,class OpenBabel::OBTorsion *)
 ?copy@std@@YAPAVOBAngle@OpenBabel@@PAV23@00@Z @ 1218 NONAME ; class OpenBabel::OBAngle * __cdecl std::copy(class OpenBabel::OBAngle *,class OpenBabel::OBAngle *,class OpenBabel::OBAngle *)
 ?_Allocate@std@@YAPAVOBAngle@OpenBabel@@HPAV23@@Z @ 1219 NONAME ; class OpenBabel::OBAngle * __cdecl std::_Allocate(int,class OpenBabel::OBAngle *)
 ?_Allocate@std@@YAPAU?$quad@PAVOBAtom@OpenBabel@@PAV12@PAV12@PAV12@@OpenBabel@@HPAU23@@Z @ 1220 NONAME ; struct OpenBabel::quad<class OpenBabel::OBAtom *,class OpenBabel::OBAtom *,class OpenBabel::OBAtom *,class OpenBabel::OBAtom *> * __cdecl std::_Allocate(int,struct OpenBabel::quad<class OpenBabel::OBAtom *,class OpenBabel::OBAtom *,class OpenBabel::OBAtom *,class OpenBabel::OBAtom *> *)
 ?fill@std@@YAXPAV?$vector@IV?$allocator@I@std@@@1@0ABV21@@Z @ 1221 NONAME ; void __cdecl std::fill(class std::vector<unsigned int,class std::allocator<unsigned int> > *,class std::vector<unsigned int,class std::allocator<unsigned int> > *,class std::vector<unsigned int,class std::allocator<unsigned int> > const &)
 ??4?$vector@IV?$allocator@I@std@@@std@@QAEAAV01@ABV01@@Z @ 1222 NONAME ; public: class std::vector<unsigned int,class std::allocator<unsigned int> > & __thiscall std::vector<unsigned int,class std::allocator<unsigned int> >::operator=(class std::vector<unsigned int,class std::allocator<unsigned int> > const &)
 ?capacity@?$vector@IV?$allocator@I@std@@@std@@QBEIXZ @ 1223 NONAME ; public: unsigned int __thiscall std::vector<unsigned int,class std::allocator<unsigned int> >::capacity(void)const 
 ?begin@?$vector@IV?$allocator@I@std@@@std@@QBEPBIXZ @ 1224 NONAME ; public: unsigned int const * __thiscall std::vector<unsigned int,class std::allocator<unsigned int> >::begin(void)const 
 ?end@?$vector@IV?$allocator@I@std@@@std@@QBEPBIXZ @ 1225 NONAME ; public: unsigned int const * __thiscall std::vector<unsigned int,class std::allocator<unsigned int> >::end(void)const 
 ?copy@std@@YAPAIPBI0PAI@Z @ 1226 NONAME ; unsigned int * __cdecl std::copy(unsigned int const *,unsigned int const *,unsigned int *)
 ?copy_backward@std@@YAPAV?$vector@IV?$allocator@I@std@@@1@PAV21@00@Z @ 1227 NONAME ; class std::vector<unsigned int,class std::allocator<unsigned int> > * __cdecl std::copy_backward(class std::vector<unsigned int,class std::allocator<unsigned int> > *,class std::vector<unsigned int,class std::allocator<unsigned int> > *,class std::vector<unsigned int,class std::allocator<unsigned int> > *)
 ?copy@std@@YAPAV?$vector@IV?$allocator@I@std@@@1@PAV21@00@Z @ 1228 NONAME ; class std::vector<unsigned int,class std::allocator<unsigned int> > * __cdecl std::copy(class std::vector<unsigned int,class std::allocator<unsigned int> > *,class std::vector<unsigned int,class std::allocator<unsigned int> > *,class std::vector<unsigned int,class std::allocator<unsigned int> > *)
 ?fill@std@@YAXPAVOBExternalBond@OpenBabel@@0ABV23@@Z @ 1229 NONAME ; void __cdecl std::fill(class OpenBabel::OBExternalBond *,class OpenBabel::OBExternalBond *,class OpenBabel::OBExternalBond const &)
 ?copy_backward@std@@YAPAVOBExternalBond@OpenBabel@@PAV23@00@Z @ 1230 NONAME ; class OpenBabel::OBExternalBond * __cdecl std::copy_backward(class OpenBabel::OBExternalBond *,class OpenBabel::OBExternalBond *,class OpenBabel::OBExternalBond *)
 ?_Destroy@std@@YAXPAVOBExternalBond@OpenBabel@@@Z @ 1231 NONAME ; void __cdecl std::_Destroy(class OpenBabel::OBExternalBond *)
 ?fill@std@@YAXPAU?$triple@PAVOBAtom@OpenBabel@@PAV12@N@OpenBabel@@0ABU23@@Z @ 1232 NONAME ; void __cdecl std::fill(struct OpenBabel::triple<class OpenBabel::OBAtom *,class OpenBabel::OBAtom *,double> *,struct OpenBabel::triple<class OpenBabel::OBAtom *,class OpenBabel::OBAtom *,double> *,struct OpenBabel::triple<class OpenBabel::OBAtom *,class OpenBabel::OBAtom *,double> const &)
 ?copy_backward@std@@YAPAU?$triple@PAVOBAtom@OpenBabel@@PAV12@N@OpenBabel@@PAU23@00@Z @ 1233 NONAME ; struct OpenBabel::triple<class OpenBabel::OBAtom *,class OpenBabel::OBAtom *,double> * __cdecl std::copy_backward(struct OpenBabel::triple<class OpenBabel::OBAtom *,class OpenBabel::OBAtom *,double> *,struct OpenBabel::triple<class OpenBabel::OBAtom *,class OpenBabel::OBAtom *,double> *,struct OpenBabel::triple<class OpenBabel::OBAtom *,class OpenBabel::OBAtom *,double> *)
 ?_Construct@std@@YAXPAU?$triple@PAVOBAtom@OpenBabel@@PAV12@N@OpenBabel@@ABU23@@Z @ 1234 NONAME ; void __cdecl std::_Construct(struct OpenBabel::triple<class OpenBabel::OBAtom *,class OpenBabel::OBAtom *,double> *,struct OpenBabel::triple<class OpenBabel::OBAtom *,class OpenBabel::OBAtom *,double> const &)
 ?_Destroy@std@@YAXPAU?$triple@PAVOBAtom@OpenBabel@@PAV12@N@OpenBabel@@@Z @ 1235 NONAME ; void __cdecl std::_Destroy(struct OpenBabel::triple<class OpenBabel::OBAtom *,class OpenBabel::OBAtom *,double> *)
 ?fill@std@@YAXPAVOBTorsion@OpenBabel@@0ABV23@@Z @ 1236 NONAME ; void __cdecl std::fill(class OpenBabel::OBTorsion *,class OpenBabel::OBTorsion *,class OpenBabel::OBTorsion const &)
 ?copy_backward@std@@YAPAVOBTorsion@OpenBabel@@PAV23@00@Z @ 1237 NONAME ; class OpenBabel::OBTorsion * __cdecl std::copy_backward(class OpenBabel::OBTorsion *,class OpenBabel::OBTorsion *,class OpenBabel::OBTorsion *)
 ?_Construct@std@@YAXPAVOBTorsion@OpenBabel@@ABV23@@Z @ 1238 NONAME ; void __cdecl std::_Construct(class OpenBabel::OBTorsion *,class OpenBabel::OBTorsion const &)
 ?_Destroy@std@@YAXPAVOBTorsion@OpenBabel@@@Z @ 1239 NONAME ; void __cdecl std::_Destroy(class OpenBabel::OBTorsion *)
 ?fill@std@@YAXPAVOBAngle@OpenBabel@@0ABV23@@Z @ 1240 NONAME ; void __cdecl std::fill(class OpenBabel::OBAngle *,class OpenBabel::OBAngle *,class OpenBabel::OBAngle const &)
 ?copy_backward@std@@YAPAVOBAngle@OpenBabel@@PAV23@00@Z @ 1241 NONAME ; class OpenBabel::OBAngle * __cdecl std::copy_backward(class OpenBabel::OBAngle *,class OpenBabel::OBAngle *,class OpenBabel::OBAngle *)
 ?_Construct@std@@YAXPAVOBAngle@OpenBabel@@ABV23@@Z @ 1242 NONAME ; void __cdecl std::_Construct(class OpenBabel::OBAngle *,class OpenBabel::OBAngle const &)
 ?_Destroy@std@@YAXPAVOBAngle@OpenBabel@@@Z @ 1243 NONAME ; void __cdecl std::_Destroy(class OpenBabel::OBAngle *)
 ?fill@std@@YAXPAU?$quad@PAVOBAtom@OpenBabel@@PAV12@PAV12@PAV12@@OpenBabel@@0ABU23@@Z @ 1244 NONAME ; void __cdecl std::fill(struct OpenBabel::quad<class OpenBabel::OBAtom *,class OpenBabel::OBAtom *,class OpenBabel::OBAtom *,class OpenBabel::OBAtom *> *,struct OpenBabel::quad<class OpenBabel::OBAtom *,class OpenBabel::OBAtom *,class OpenBabel::OBAtom *,class OpenBabel::OBAtom *> *,struct OpenBabel::quad<class OpenBabel::OBAtom *,class OpenBabel::OBAtom *,class OpenBabel::OBAtom *,class OpenBabel::OBAtom *> const &)
 ?copy_backward@std@@YAPAU?$quad@PAVOBAtom@OpenBabel@@PAV12@PAV12@PAV12@@OpenBabel@@PAU23@00@Z @ 1245 NONAME ; struct OpenBabel::quad<class OpenBabel::OBAtom *,class OpenBabel::OBAtom *,class OpenBabel::OBAtom *,class OpenBabel::OBAtom *> * __cdecl std::copy_backward(struct OpenBabel::quad<class OpenBabel::OBAtom *,class OpenBabel::OBAtom *,class OpenBabel::OBAtom *,class OpenBabel::OBAtom *> *,struct OpenBabel::quad<class OpenBabel::OBAtom *,class OpenBabel::OBAtom *,class OpenBabel::OBAtom *,class OpenBabel::OBAtom *> *,struct OpenBabel::quad<class OpenBabel::OBAtom *,class OpenBabel::OBAtom *,class OpenBabel::OB
 ?_Construct@std@@YAXPAU?$quad@PAVOBAtom@OpenBabel@@PAV12@PAV12@PAV12@@OpenBabel@@ABU23@@Z @ 1246 NONAME ; void __cdecl std::_Construct(struct OpenBabel::quad<class OpenBabel::OBAtom *,class OpenBabel::OBAtom *,class OpenBabel::OBAtom *,class OpenBabel::OBAtom *> *,struct OpenBabel::quad<class OpenBabel::OBAtom *,class OpenBabel::OBAtom *,class OpenBabel::OBAtom *,class OpenBabel::OBAtom *> const &)
 ?_Destroy@std@@YAXPAU?$quad@PAVOBAtom@OpenBabel@@PAV12@PAV12@PAV12@@OpenBabel@@@Z @ 1247 NONAME ; void __cdecl std::_Destroy(struct OpenBabel::quad<class OpenBabel::OBAtom *,class OpenBabel::OBAtom *,class OpenBabel::OBAtom *,class OpenBabel::OBAtom *> *)
 ?_Allocate@std@@YAPAV?$vector@IV?$allocator@I@std@@@1@HPAV21@@Z @ 1248 NONAME ; class std::vector<unsigned int,class std::allocator<unsigned int> > * __cdecl std::_Allocate(int,class std::vector<unsigned int,class std::allocator<unsigned int> > *)
 ?_Allocate@std@@YAPAVOBExternalBond@OpenBabel@@HPAV23@@Z @ 1249 NONAME ; class OpenBabel::OBExternalBond * __cdecl std::_Allocate(int,class OpenBabel::OBExternalBond *)
 ?_Construct@std@@YAXPAV?$vector@IV?$allocator@I@std@@@1@ABV21@@Z @ 1250 NONAME ; void __cdecl std::_Construct(class std::vector<unsigned int,class std::allocator<unsigned int> > *,class std::vector<unsigned int,class std::allocator<unsigned int> > const &)
 ??0?$vector@IV?$allocator@I@std@@@std@@QAE@ABV01@@Z @ 1251 NONAME ; public: __thiscall std::vector<unsigned int,class std::allocator<unsigned int> >::vector<unsigned int,class std::allocator<unsigned int> >(class std::vector<unsigned int,class std::allocator<unsigned int> > const &)
 ?_Destroy@std@@YAXPAV?$vector@IV?$allocator@I@std@@@1@@Z @ 1252 NONAME ; void __cdecl std::_Destroy(class std::vector<unsigned int,class std::allocator<unsigned int> > *)
 ?_Construct@std@@YAXPAVOBExternalBond@OpenBabel@@ABV23@@Z @ 1253 NONAME ; void __cdecl std::_Construct(class OpenBabel::OBExternalBond *,class OpenBabel::OBExternalBond const &)
 ??1OBTorsion@OpenBabel@@QAE@XZ @ 1254 NONAME ; public: __thiscall OpenBabel::OBTorsion::~OBTorsion(void)
 ??1OBAngle@OpenBabel@@QAE@XZ @ 1255 NONAME ; public: __thiscall OpenBabel::OBAngle::~OBAngle(void)
 ?Setup@OBProxGrid@OpenBabel@@QAEXAAVOBMol@2@0NN@Z @ 1256 NONAME ; public: void __thiscall OpenBabel::OBProxGrid::Setup(class OpenBabel::OBMol &,class OpenBabel::OBMol &,double,double)
 ?GetCoordinates@OBMol@OpenBabel@@QAEPANXZ @ 1257 NONAME ; public: double * __thiscall OpenBabel::OBMol::GetCoordinates(void)
 ?PointIsInBox@OBProxGrid@OpenBabel@@QAE_NNNN@Z @ 1258 NONAME ; public: bool __thiscall OpenBabel::OBProxGrid::PointIsInBox(double,double,double)
 ?Setup@OBProxGrid@OpenBabel@@QAEXAAVOBMol@2@0NAAV?$vector@_NV?$allocator@_N@std@@@std@@N@Z @ 1259 NONAME ; public: void __thiscall OpenBabel::OBProxGrid::Setup(class OpenBabel::OBMol &,class OpenBabel::OBMol &,double,class std::vector<bool,class std::allocator<bool> > &,double)
 ?GetProxVector@OBProxGrid@OpenBabel@@QAEPAV?$vector@HV?$allocator@H@std@@@std@@NNN@Z @ 1260 NONAME ; public: class std::vector<int,class std::allocator<int> > * __thiscall OpenBabel::OBProxGrid::GetProxVector(double,double,double)
 ?GetProxVector@OBProxGrid@OpenBabel@@QAEPAV?$vector@HV?$allocator@H@std@@@std@@PAN@Z @ 1261 NONAME ; public: class std::vector<int,class std::allocator<int> > * __thiscall OpenBabel::OBProxGrid::GetProxVector(double *)
 ?Init@OBFloatGrid@OpenBabel@@QAEXAAVOBMol@2@NN@Z @ 1262 NONAME ; public: void __thiscall OpenBabel::OBFloatGrid::Init(class OpenBabel::OBMol &,double,double)
 ?IndexToCoords@OBFloatGrid@OpenBabel@@QAEXHAAN00@Z @ 1263 NONAME ; public: void __thiscall OpenBabel::OBFloatGrid::IndexToCoords(int,double &,double &,double &)
 ?CoordsToIndex@OBFloatGrid@OpenBabel@@QAEHAAN00@Z @ 1264 NONAME ; public: int __thiscall OpenBabel::OBFloatGrid::CoordsToIndex(double &,double &,double &)
 ?CoordsToIndex@OBFloatGrid@OpenBabel@@QAEXPAHPAN@Z @ 1265 NONAME ; public: void __thiscall OpenBabel::OBFloatGrid::CoordsToIndex(int *,double *)
 ?Interpolate@OBFloatGrid@OpenBabel@@QAENNNN@Z @ 1266 NONAME ; public: double __thiscall OpenBabel::OBFloatGrid::Interpolate(double,double,double)
 ?InterpolateDerivatives@OBFloatGrid@OpenBabel@@QAENNNNPAN@Z @ 1267 NONAME ; public: double __thiscall OpenBabel::OBFloatGrid::InterpolateDerivatives(double,double,double,double *)
 ??6OpenBabel@@YAAAV?$basic_ostream@DU?$char_traits@D@std@@@std@@AAV12@ABVOBFloatGrid@0@@Z @ 1268 NONAME ; class std::basic_ostream<char,struct std::char_traits<char> > & __cdecl OpenBabel::operator<<(class std::basic_ostream<char,struct std::char_traits<char> > &,class OpenBabel::OBFloatGrid const &)
 ??5OpenBabel@@YAAAV?$basic_istream@DU?$char_traits@D@std@@@std@@AAV12@AAVOBFloatGrid@0@@Z @ 1269 NONAME ; class std::basic_istream<char,struct std::char_traits<char> > & __cdecl OpenBabel::operator>>(class std::basic_istream<char,struct std::char_traits<char> > &,class OpenBabel::OBFloatGrid &)
 ??A?$vector@_NV?$allocator@_N@std@@@std@@QAEAA_NI@Z @ 1270 NONAME ; public: bool & __thiscall std::vector<bool,class std::allocator<bool> >::operator[](unsigned int)
 ?resize@?$vector@V?$vector@HV?$allocator@H@std@@@std@@V?$allocator@V?$vector@HV?$allocator@H@std@@@std@@@2@@std@@QAEXIABV?$vector@HV?$allocator@H@std@@@2@@Z @ 1271 NONAME ; public: void __thiscall std::vector<class std::vector<int,class std::allocator<int> >,class std::allocator<class std::vector<int,class std::allocator<int> > > >::resize(unsigned int,class std::vector<int,class std::allocator<int> > const &)
 ??A?$vector@V?$vector@HV?$allocator@H@std@@@std@@V?$allocator@V?$vector@HV?$allocator@H@std@@@std@@@2@@std@@QAEAAV?$vector@HV?$allocator@H@std@@@1@I@Z @ 1272 NONAME ; public: class std::vector<int,class std::allocator<int> > & __thiscall std::vector<class std::vector<int,class std::allocator<int> >,class std::allocator<class std::vector<int,class std::allocator<int> > > >::operator[](unsigned int)
 ?begin@?$vector@_NV?$allocator@_N@std@@@std@@QAEPA_NXZ @ 1273 NONAME ; public: bool * __thiscall std::vector<bool,class std::allocator<bool> >::begin(void)
 ?insert@?$vector@V?$vector@HV?$allocator@H@std@@@std@@V?$allocator@V?$vector@HV?$allocator@H@std@@@std@@@2@@std@@QAEXPAV?$vector@HV?$allocator@H@std@@@2@IABV32@@Z @ 1274 NONAME ; public: void __thiscall std::vector<class std::vector<int,class std::allocator<int> >,class std::allocator<class std::vector<int,class std::allocator<int> > > >::insert(class std::vector<int,class std::allocator<int> > *,unsigned int,class std::vector<int,class std::allocator<int> > const &)
 ?erase@?$vector@V?$vector@HV?$allocator@H@std@@@std@@V?$allocator@V?$vector@HV?$allocator@H@std@@@std@@@2@@std@@QAEPAV?$vector@HV?$allocator@H@std@@@2@PAV32@0@Z @ 1275 NONAME ; public: class std::vector<int,class std::allocator<int> > * __thiscall std::vector<class std::vector<int,class std::allocator<int> >,class std::allocator<class std::vector<int,class std::allocator<int> > > >::erase(class std::vector<int,class std::allocator<int> > *,class std::vector<int,class std::allocator<int> > *)
 ?_Ufill@?$vector@V?$vector@HV?$allocator@H@std@@@std@@V?$allocator@V?$vector@HV?$allocator@H@std@@@std@@@2@@std@@IAEXPAV?$vector@HV?$allocator@H@std@@@2@IABV32@@Z @ 1276 NONAME ; protected: void __thiscall std::vector<class std::vector<int,class std::allocator<int> >,class std::allocator<class std::vector<int,class std::allocator<int> > > >::_Ufill(class std::vector<int,class std::allocator<int> > *,unsigned int,class std::vector<int,class std::allocator<int> > const &)
 ?fill@std@@YAXPAV?$vector@HV?$allocator@H@std@@@1@0ABV21@@Z @ 1277 NONAME ; void __cdecl std::fill(class std::vector<int,class std::allocator<int> > *,class std::vector<int,class std::allocator<int> > *,class std::vector<int,class std::allocator<int> > const &)
 ?copy_backward@std@@YAPAV?$vector@HV?$allocator@H@std@@@1@PAV21@00@Z @ 1278 NONAME ; class std::vector<int,class std::allocator<int> > * __cdecl std::copy_backward(class std::vector<int,class std::allocator<int> > *,class std::vector<int,class std::allocator<int> > *,class std::vector<int,class std::allocator<int> > *)
 ?copy@std@@YAPAV?$vector@HV?$allocator@H@std@@@1@PAV21@00@Z @ 1279 NONAME ; class std::vector<int,class std::allocator<int> > * __cdecl std::copy(class std::vector<int,class std::allocator<int> > *,class std::vector<int,class std::allocator<int> > *,class std::vector<int,class std::allocator<int> > *)
 ?print_matrix@OpenBabel@@YAXAAV?$vector@V?$vector@NV?$allocator@N@std@@@std@@V?$allocator@V?$vector@NV?$allocator@N@std@@@std@@@2@@std@@@Z @ 1280 NONAME ; void __cdecl OpenBabel::print_matrix(class std::vector<class std::vector<double,class std::allocator<double> >,class std::allocator<class std::vector<double,class std::allocator<double> > > > &)
 ?print_matrix_f@OpenBabel@@YAXPANHH@Z @ 1281 NONAME ; void __cdecl OpenBabel::print_matrix_f(double *,int,int)
 ?print_matrix_ff@OpenBabel@@YAXPAPANHH@Z @ 1282 NONAME ; void __cdecl OpenBabel::print_matrix_ff(double * *,int,int)
 ?mult_matrix@OpenBabel@@YA_NAAV?$vector@V?$vector@NV?$allocator@N@std@@@std@@V?$allocator@V?$vector@NV?$allocator@N@std@@@std@@@2@@std@@00@Z @ 1283 NONAME ; bool __cdecl OpenBabel::mult_matrix(class std::vector<class std::vector<double,class std::allocator<double> >,class std::allocator<class std::vector<double,class std::allocator<double> > > > &,class std::vector<class std::vector<double,class std::allocator<double> >,class std::allocator<class std::vector<double,class std::allocator<double> > > > &,class std::vector<class std::vector<double,class std::allocator<double> >,class std::allocator<class std::vector<double,class std::allocator<double> > > > &)
 ?mult_matrix_f@OpenBabel@@YA_NPAN00HH@Z @ 1284 NONAME ; bool __cdecl OpenBabel::mult_matrix_f(double *,double *,double *,int,int)
 ?mult_matrix_ff@OpenBabel@@YA_NPAPAN00HH@Z @ 1285 NONAME ; bool __cdecl OpenBabel::mult_matrix_ff(double * *,double * *,double * *,int,int)
 ?invert_matrix@OpenBabel@@YA_NAAV?$vector@V?$vector@NV?$allocator@N@std@@@std@@V?$allocator@V?$vector@NV?$allocator@N@std@@@std@@@2@@std@@AAN@Z @ 1286 NONAME ; bool __cdecl OpenBabel::invert_matrix(class std::vector<class std::vector<double,class std::allocator<double> >,class std::allocator<class std::vector<double,class std::allocator<double> > > > &,double &)
 ?invert_matrix_f@OpenBabel@@YA_NPANAANHH@Z @ 1287 NONAME ; bool __cdecl OpenBabel::invert_matrix_f(double *,double &,int,int)
 ?invert_matrix_ff@OpenBabel@@YA_NPAPANAANHH@Z @ 1288 NONAME ; bool __cdecl OpenBabel::invert_matrix_ff(double * *,double &,int,int)
 ?convert_matrix_f@OpenBabel@@YA_NAAV?$vector@V?$vector@NV?$allocator@N@std@@@std@@V?$allocator@V?$vector@NV?$allocator@N@std@@@std@@@2@@std@@PAN@Z @ 1289 NONAME ; bool __cdecl OpenBabel::convert_matrix_f(class std::vector<class std::vector<double,class std::allocator<double> >,class std::allocator<class std::vector<double,class std::allocator<double> > > > &,double *)
 ?convert_matrix_ff@OpenBabel@@YA_NAAV?$vector@V?$vector@NV?$allocator@N@std@@@std@@V?$allocator@V?$vector@NV?$allocator@N@std@@@std@@@2@@std@@PAPAN@Z @ 1290 NONAME ; bool __cdecl OpenBabel::convert_matrix_ff(class std::vector<class std::vector<double,class std::allocator<double> >,class std::allocator<class std::vector<double,class std::allocator<double> > > > &,double * *)
 ?convert_matrix_f@OpenBabel@@YA_NPANAAV?$vector@V?$vector@NV?$allocator@N@std@@@std@@V?$allocator@V?$vector@NV?$allocator@N@std@@@std@@@2@@std@@HH@Z @ 1291 NONAME ; bool __cdecl OpenBabel::convert_matrix_f(double *,class std::vector<class std::vector<double,class std::allocator<double> >,class std::allocator<class std::vector<double,class std::allocator<double> > > > &,int,int)
 ?convert_matrix_ff@OpenBabel@@YA_NPAPANAAV?$vector@V?$vector@NV?$allocator@N@std@@@std@@V?$allocator@V?$vector@NV?$allocator@N@std@@@std@@@2@@std@@HH@Z @ 1292 NONAME ; bool __cdecl OpenBabel::convert_matrix_ff(double * *,class std::vector<class std::vector<double,class std::allocator<double> >,class std::allocator<class std::vector<double,class std::allocator<double> > > > &,int,int)
 ?convert_matrix_f_ff@OpenBabel@@YA_NPANPAPANHH@Z @ 1293 NONAME ; bool __cdecl OpenBabel::convert_matrix_f_ff(double *,double * *,int,int)
 ?convert_matrix_ff_f@OpenBabel@@YA_NPAPANPANHH@Z @ 1294 NONAME ; bool __cdecl OpenBabel::convert_matrix_ff_f(double * *,double *,int,int)
 ?randomRotation@matrix3x3@OpenBabel@@QAEXAAVOBRandom@2@@Z @ 1295 NONAME ; public: void __thiscall OpenBabel::matrix3x3::randomRotation(class OpenBabel::OBRandom &)
 ?SetupRotMat@matrix3x3@OpenBabel@@QAEXNNN@Z @ 1296 NONAME ; public: void __thiscall OpenBabel::matrix3x3::SetupRotMat(double,double,double)
 ?PlaneReflection@matrix3x3@OpenBabel@@QAEXABVvector3@2@@Z @ 1297 NONAME ; public: void __thiscall OpenBabel::matrix3x3::PlaneReflection(class OpenBabel::vector3 const &)
 ??D@YA?AVvector3@OpenBabel@@ABNABV01@@Z @ 1298 NONAME ; class OpenBabel::vector3 __cdecl operator*(double const &,class OpenBabel::vector3 const &)
 ?RotAboutAxisByAngle@matrix3x3@OpenBabel@@QAEXABVvector3@2@N@Z @ 1299 NONAME ; public: void __thiscall OpenBabel::matrix3x3::RotAboutAxisByAngle(class OpenBabel::vector3 const &,double)
 ?SetColumn@matrix3x3@OpenBabel@@QAEXHABVvector3@2@@Z @ 1300 NONAME ; public: void __thiscall OpenBabel::matrix3x3::SetColumn(int,class OpenBabel::vector3 const &)
 ??1OBError@OpenBabel@@QAE@XZ @ 1301 NONAME ; public: __thiscall OpenBabel::OBError::~OBError(void)
 ??0OBError@OpenBabel@@QAE@ABV01@@Z @ 1302 NONAME ; public: __thiscall OpenBabel::OBError::OBError(class OpenBabel::OBError const &)
 ?SetRow@matrix3x3@OpenBabel@@QAEXHABVvector3@2@@Z @ 1303 NONAME ; public: void __thiscall OpenBabel::matrix3x3::SetRow(int,class OpenBabel::vector3 const &)
 ?GetColumn@matrix3x3@OpenBabel@@QBE?AVvector3@2@I@Z @ 1304 NONAME ; public: class OpenBabel::vector3 __thiscall OpenBabel::matrix3x3::GetColumn(unsigned int)const 
 ?GetRow@matrix3x3@OpenBabel@@QBE?AVvector3@2@I@Z @ 1305 NONAME ; public: class OpenBabel::vector3 __thiscall OpenBabel::matrix3x3::GetRow(unsigned int)const 
 ??DOpenBabel@@YA?AVvector3@0@ABVmatrix3x3@0@ABV10@@Z @ 1306 NONAME ; class OpenBabel::vector3 __cdecl OpenBabel::operator*(class OpenBabel::matrix3x3 const &,class OpenBabel::vector3 const &)
 ??DOpenBabel@@YA?AVmatrix3x3@0@ABV10@0@Z @ 1307 NONAME ; class OpenBabel::matrix3x3 __cdecl OpenBabel::operator*(class OpenBabel::matrix3x3 const &,class OpenBabel::matrix3x3 const &)
 ??Xvector3@OpenBabel@@QAEAAV01@ABVmatrix3x3@1@@Z @ 1308 NONAME ; public: class OpenBabel::vector3 & __thiscall OpenBabel::vector3::operator*=(class OpenBabel::matrix3x3 const &)
 ?SetX@vector3@OpenBabel@@QAEXN@Z @ 1309 NONAME ; public: void __thiscall OpenBabel::vector3::SetX(double)
 ?SetY@vector3@OpenBabel@@QAEXN@Z @ 1310 NONAME ; public: void __thiscall OpenBabel::vector3::SetY(double)
 ?SetZ@vector3@OpenBabel@@QAEXN@Z @ 1311 NONAME ; public: void __thiscall OpenBabel::vector3::SetZ(double)
 ?Get@matrix3x3@OpenBabel@@QBENHH@Z @ 1312 NONAME ; public: double __thiscall OpenBabel::matrix3x3::Get(int,int)const 
 ?inverse@matrix3x3@OpenBabel@@QBE?AV12@XZ @ 1313 NONAME ; public: class OpenBabel::matrix3x3 __thiscall OpenBabel::matrix3x3::inverse(void)const 
 ?transpose@matrix3x3@OpenBabel@@QBE?AV12@XZ @ 1314 NONAME ; public: class OpenBabel::matrix3x3 __thiscall OpenBabel::matrix3x3::transpose(void)const 
 ?determinant@matrix3x3@OpenBabel@@QBENXZ @ 1315 NONAME ; public: double __thiscall OpenBabel::matrix3x3::determinant(void)const 
 ?isSymmetric@matrix3x3@OpenBabel@@QBE_NXZ @ 1316 NONAME ; public: bool __thiscall OpenBabel::matrix3x3::isSymmetric(void)const 
 ?isDiagonal@matrix3x3@OpenBabel@@QBE_NXZ @ 1317 NONAME ; public: bool __thiscall OpenBabel::matrix3x3::isDiagonal(void)const 
 ?isUnitMatrix@matrix3x3@OpenBabel@@QBE_NXZ @ 1318 NONAME ; public: bool __thiscall OpenBabel::matrix3x3::isUnitMatrix(void)const 
 ?findEigenvectorsIfSymmetric@matrix3x3@OpenBabel@@QBE?AV12@AAVvector3@2@@Z @ 1319 NONAME ; public: class OpenBabel::matrix3x3 __thiscall OpenBabel::matrix3x3::findEigenvectorsIfSymmetric(class OpenBabel::vector3 &)const 
 ??_0matrix3x3@OpenBabel@@QAEAAV01@ABN@Z @ 1320 NONAME ; public: class OpenBabel::matrix3x3 & __thiscall OpenBabel::matrix3x3::operator/=(double const &)
 ?FillOrth@matrix3x3@OpenBabel@@QAEXNNNNNN@Z @ 1321 NONAME ; public: void __thiscall OpenBabel::matrix3x3::FillOrth(double,double,double,double,double,double)
 ??6OpenBabel@@YAAAV?$basic_ostream@DU?$char_traits@D@std@@@std@@AAV12@ABVmatrix3x3@0@@Z @ 1322 NONAME ; class std::basic_ostream<char,struct std::char_traits<char> > & __cdecl OpenBabel::operator<<(class std::basic_ostream<char,struct std::char_traits<char> > &,class OpenBabel::matrix3x3 const &)
 ?jacobi@matrix3x3@OpenBabel@@SAXIPAN00@Z @ 1323 NONAME ; public: static void __cdecl OpenBabel::matrix3x3::jacobi(unsigned int,double *,double *,double *)
 ?SortVVInt@OpenBabel@@YA_NABV?$vector@HV?$allocator@H@std@@@std@@0@Z @ 1324 NONAME ; bool __cdecl OpenBabel::SortVVInt(class std::vector<int,class std::allocator<int> > const &,class std::vector<int,class std::allocator<int> > const &)
 ?SortAtomZ@OpenBabel@@YA_NABU?$pair@PAVOBAtom@OpenBabel@@N@std@@0@Z @ 1325 NONAME ; bool __cdecl OpenBabel::SortAtomZ(struct std::pair<class OpenBabel::OBAtom *,double> const &,struct std::pair<class OpenBabel::OBAtom *,double> const &)
 ?GetTorsion@OBMol@OpenBabel@@QAENHHHH@Z @ 1326 NONAME ; public: double __thiscall OpenBabel::OBMol::GetTorsion(int,int,int,int)
 ?SetTorsion@OBMol@OpenBabel@@QAEXPAVOBAtom@2@000N@Z @ 1327 NONAME ; public: void __thiscall OpenBabel::OBMol::SetTorsion(class OpenBabel::OBAtom *,class OpenBabel::OBAtom *,class OpenBabel::OBAtom *,class OpenBabel::OBAtom *,double)
 ?GetTorsion@OBMol@OpenBabel@@QAENPAVOBAtom@2@000@Z @ 1328 NONAME ; public: double __thiscall OpenBabel::OBMol::GetTorsion(class OpenBabel::OBAtom *,class OpenBabel::OBAtom *,class OpenBabel::OBAtom *,class OpenBabel::OBAtom *)
 ?ContigFragList@OBMol@OpenBabel@@QAEXAAV?$vector@V?$vector@HV?$allocator@H@std@@@std@@V?$allocator@V?$vector@HV?$allocator@H@std@@@std@@@2@@std@@@Z @ 1329 NONAME ; public: void __thiscall OpenBabel::OBMol::ContigFragList(class std::vector<class std::vector<int,class std::allocator<int> >,class std::allocator<class std::vector<int,class std::allocator<int> > > > &)
 ?EndBit@OBBitVec@OpenBabel@@QAEHXZ @ 1330 NONAME ; public: int __thiscall OpenBabel::OBBitVec::EndBit(void)
 ?GetNbrAtomIdx@OBBond@OpenBabel@@QAEHPAVOBAtom@2@@Z @ 1331 NONAME ; public: int __thiscall OpenBabel::OBBond::GetNbrAtomIdx(class OpenBabel::OBAtom *)
 ?FindTorsions@OBMol@OpenBabel@@QAEXXZ @ 1332 NONAME ; public: void __thiscall OpenBabel::OBMol::FindTorsions(void)
 ??0OBTorsion@OpenBabel@@IAE@XZ @ 1333 NONAME ; protected: __thiscall OpenBabel::OBTorsion::OBTorsion(void)
 ?GetSize@OBTorsion@OpenBabel@@QBEIXZ @ 1334 NONAME ; public: unsigned int __thiscall OpenBabel::OBTorsion::GetSize(void)const 
 ?FindLargestFragment@OBMol@OpenBabel@@QAEXAAVOBBitVec@2@@Z @ 1335 NONAME ; public: void __thiscall OpenBabel::OBMol::FindLargestFragment(class OpenBabel::OBBitVec &)
 ?Empty@OBBitVec@OpenBabel@@QAE_NXZ @ 1336 NONAME ; public: bool __thiscall OpenBabel::OBBitVec::Empty(void)
 ?FindChildren@OBMol@OpenBabel@@QAEXAAV?$vector@PAVOBAtom@OpenBabel@@V?$allocator@PAVOBAtom@OpenBabel@@@std@@@std@@PAVOBAtom@2@1@Z @ 1337 NONAME ; public: void __thiscall OpenBabel::OBMol::FindChildren(class std::vector<class OpenBabel::OBAtom *,class std::allocator<class OpenBabel::OBAtom *> > &,class OpenBabel::OBAtom *,class OpenBabel::OBAtom *)
 ?FindChildren@OBMol@OpenBabel@@QAEXAAV?$vector@HV?$allocator@H@std@@@std@@HH@Z @ 1338 NONAME ; public: void __thiscall OpenBabel::OBMol::FindChildren(class std::vector<int,class std::allocator<int> > &,int,int)
 ?BeginBonds@OBAtom@OpenBabel@@QAEPAPAVOBEdgeBase@2@XZ @ 1339 NONAME ; public: class OpenBabel::OBEdgeBase * * __thiscall OpenBabel::OBAtom::BeginBonds(void)
 ?EndBonds@OBAtom@OpenBabel@@QAEPAPAVOBEdgeBase@2@XZ @ 1340 NONAME ; public: class OpenBabel::OBEdgeBase * * __thiscall OpenBabel::OBAtom::EndBonds(void)
 ?GetGTDVector@OBMol@OpenBabel@@QAE_NAAV?$vector@HV?$allocator@H@std@@@std@@@Z @ 1341 NONAME ; public: bool __thiscall OpenBabel::OBMol::GetGTDVector(class std::vector<int,class std::allocator<int> > &)
 ?GetGIVector@OBMol@OpenBabel@@QAEXAAV?$vector@IV?$allocator@I@std@@@std@@@Z @ 1342 NONAME ; public: void __thiscall OpenBabel::OBMol::GetGIVector(class std::vector<unsigned int,class std::allocator<unsigned int> > &)
 ?GetGIDVector@OBMol@OpenBabel@@QAEXAAV?$vector@IV?$allocator@I@std@@@std@@@Z @ 1343 NONAME ; public: void __thiscall OpenBabel::OBMol::GetGIDVector(class std::vector<unsigned int,class std::allocator<unsigned int> > &)
 ?NumHvyAtoms@OBMol@OpenBabel@@QAEIXZ @ 1344 NONAME ; public: unsigned int __thiscall OpenBabel::OBMol::NumHvyAtoms(void)
 ?NumRotors@OBMol@OpenBabel@@QAEIXZ @ 1345 NONAME ; public: unsigned int __thiscall OpenBabel::OBMol::NumRotors(void)
 ?GetAtom@OBMol@OpenBabel@@QAEPAVOBAtom@2@H@Z @ 1346 NONAME ; public: class OpenBabel::OBAtom * __thiscall OpenBabel::OBMol::GetAtom(int)
 ?GetFirstAtom@OBMol@OpenBabel@@QAEPAVOBAtom@2@XZ @ 1347 NONAME ; public: class OpenBabel::OBAtom * __thiscall OpenBabel::OBMol::GetFirstAtom(void)
 ?GetBond@OBMol@OpenBabel@@QAEPAVOBBond@2@H@Z @ 1348 NONAME ; public: class OpenBabel::OBBond * __thiscall OpenBabel::OBMol::GetBond(int)
 ?GetBond@OBMol@OpenBabel@@QAEPAVOBBond@2@HH@Z @ 1349 NONAME ; public: class OpenBabel::OBBond * __thiscall OpenBabel::OBMol::GetBond(int,int)
 ?GetBond@OBMol@OpenBabel@@QAEPAVOBBond@2@PAVOBAtom@2@0@Z @ 1350 NONAME ; public: class OpenBabel::OBBond * __thiscall OpenBabel::OBMol::GetBond(class OpenBabel::OBAtom *,class OpenBabel::OBAtom *)
 ?GetResidue@OBMol@OpenBabel@@QAEPAVOBResidue@2@H@Z @ 1351 NONAME ; public: class OpenBabel::OBResidue * __thiscall OpenBabel::OBMol::GetResidue(int)
 ?GetInternalCoord@OBMol@OpenBabel@@QAE?AV?$vector@PAVOBInternalCoord@OpenBabel@@V?$allocator@PAVOBInternalCoord@OpenBabel@@@std@@@std@@XZ @ 1352 NONAME ; public: class std::vector<class OpenBabel::OBInternalCoord *,class std::allocator<class OpenBabel::OBInternalCoord *> > __thiscall OpenBabel::OBMol::GetInternalCoord(void)
 ??0OBInternalCoord@OpenBabel@@QAE@PAVOBAtom@1@00@Z @ 1353 NONAME ; public: __thiscall OpenBabel::OBInternalCoord::OBInternalCoord(class OpenBabel::OBAtom *,class OpenBabel::OBAtom *,class OpenBabel::OBAtom *)
 ?GetSSSR@OBMol@OpenBabel@@QAEAAV?$vector@PAVOBRing@OpenBabel@@V?$allocator@PAVOBRing@OpenBabel@@@std@@@std@@XZ @ 1354 NONAME ; public: class std::vector<class OpenBabel::OBRing *,class std::allocator<class OpenBabel::OBRing *> > & __thiscall OpenBabel::OBMol::GetSSSR(void)
 ?GetData@OBRingData@OpenBabel@@QAEAAV?$vector@PAVOBRing@OpenBabel@@V?$allocator@PAVOBRing@OpenBabel@@@std@@@std@@XZ @ 1355 NONAME ; public: class std::vector<class OpenBabel::OBRing *,class std::allocator<class OpenBabel::OBRing *> > & __thiscall OpenBabel::OBRingData::GetData(void)
 ?GetMolWt@OBMol@OpenBabel@@QAENXZ @ 1356 NONAME ; public: double __thiscall OpenBabel::OBMol::GetMolWt(void)
 ?GetExactMass@OBMol@OpenBabel@@QAENXZ @ 1357 NONAME ; public: double __thiscall OpenBabel::OBMol::GetExactMass(void)
 ?SetTotalCharge@OBMol@OpenBabel@@QAEXH@Z @ 1358 NONAME ; public: void __thiscall OpenBabel::OBMol::SetTotalCharge(int)
 ?GetTotalCharge@OBMol@OpenBabel@@QAEHXZ @ 1359 NONAME ; public: int __thiscall OpenBabel::OBMol::GetTotalCharge(void)
 ?SetTotalSpinMultiplicity@OBMol@OpenBabel@@QAEXI@Z @ 1360 NONAME ; public: void __thiscall OpenBabel::OBMol::SetTotalSpinMultiplicity(unsigned int)
 ?GetTotalSpinMultiplicity@OBMol@OpenBabel@@QAEIXZ @ 1361 NONAME ; public: unsigned int __thiscall OpenBabel::OBMol::GetTotalSpinMultiplicity(void)
 ?GetSpinMultiplicity@OBAtom@OpenBabel@@QBEHXZ @ 1362 NONAME ; public: int __thiscall OpenBabel::OBAtom::GetSpinMultiplicity(void)const 
 ??4OBMol@OpenBabel@@QAEAAV01@ABV01@@Z @ 1363 NONAME ; public: class OpenBabel::OBMol & __thiscall OpenBabel::OBMol::operator=(class OpenBabel::OBMol const &)
 ?GetInputType@OBMol@OpenBabel@@QBE?AW4io_type@2@XZ @ 1364 NONAME ; public: enum OpenBabel::io_type __thiscall OpenBabel::OBMol::GetInputType(void)const 
 ?GetOutputType@OBMol@OpenBabel@@QBE?AW4io_type@2@XZ @ 1365 NONAME ; public: enum OpenBabel::io_type __thiscall OpenBabel::OBMol::GetOutputType(void)const 
 ?GetEnergy@OBMol@OpenBabel@@QBENXZ @ 1366 NONAME ; public: double __thiscall OpenBabel::OBMol::GetEnergy(void)const 
 ?GetConformer@OBMol@OpenBabel@@QAEPANH@Z @ 1367 NONAME ; public: double * __thiscall OpenBabel::OBMol::GetConformer(int)
 ??YOBMol@OpenBabel@@QAEAAV01@ABV01@@Z @ 1368 NONAME ; public: class OpenBabel::OBMol & __thiscall OpenBabel::OBMol::operator+=(class OpenBabel::OBMol const &)
 ?Clear@OBMol@OpenBabel@@QAE_NXZ @ 1369 NONAME ; public: bool __thiscall OpenBabel::OBMol::Clear(void)
 ?BeginModify@OBMol@OpenBabel@@UAEXXZ @ 1370 NONAME ; public: virtual void __thiscall OpenBabel::OBMol::BeginModify(void)
 ?ClearCoordPtr@OBAtom@OpenBabel@@QAEXXZ @ 1371 NONAME ; public: void __thiscall OpenBabel::OBAtom::ClearCoordPtr(void)
 ?Empty@OBMol@OpenBabel@@QAE_NXZ @ 1372 NONAME ; public: bool __thiscall OpenBabel::OBMol::Empty(void)
 ?EndModify@OBMol@OpenBabel@@UAEX_N@Z @ 1373 NONAME ; public: virtual void __thiscall OpenBabel::OBMol::EndModify(bool)
 ?SetIdx@OBAtom@OpenBabel@@QAEXH@Z @ 1374 NONAME ; public: void __thiscall OpenBabel::OBAtom::SetIdx(int)
 ?SetCoordPtr@OBAtom@OpenBabel@@QAEXPAPAN@Z @ 1375 NONAME ; public: void __thiscall OpenBabel::OBAtom::SetCoordPtr(double * *)
 ?UnsetAromaticPerceived@OBMol@OpenBabel@@QAEXXZ @ 1376 NONAME ; public: void __thiscall OpenBabel::OBMol::UnsetAromaticPerceived(void)
 ?UnsetImplicitValencePerceived@OBMol@OpenBabel@@QAEXXZ @ 1377 NONAME ; public: void __thiscall OpenBabel::OBMol::UnsetImplicitValencePerceived(void)
 ?CreateAtom@OBMol@OpenBabel@@UAEPAVOBAtom@2@XZ @ 1378 NONAME ; public: virtual class OpenBabel::OBAtom * __thiscall OpenBabel::OBMol::CreateAtom(void)
 ?CreateBond@OBMol@OpenBabel@@UAEPAVOBBond@2@XZ @ 1379 NONAME ; public: virtual class OpenBabel::OBBond * __thiscall OpenBabel::OBMol::CreateBond(void)
 ?DestroyAtom@OBMol@OpenBabel@@UAEXPAVOBNodeBase@2@@Z @ 1380 NONAME ; public: virtual void __thiscall OpenBabel::OBMol::DestroyAtom(class OpenBabel::OBNodeBase *)
 ?DestroyBond@OBMol@OpenBabel@@UAEXPAVOBEdgeBase@2@@Z @ 1381 NONAME ; public: virtual void __thiscall OpenBabel::OBMol::DestroyBond(class OpenBabel::OBEdgeBase *)
 ?NewAtom@OBMol@OpenBabel@@QAEPAVOBAtom@2@XZ @ 1382 NONAME ; public: class OpenBabel::OBAtom * __thiscall OpenBabel::OBMol::NewAtom(void)
 ?GetBgn@OBVirtualBond@OpenBabel@@QAEHXZ @ 1383 NONAME ; public: int __thiscall OpenBabel::OBVirtualBond::GetBgn(void)
 ?GetEnd@OBVirtualBond@OpenBabel@@QAEHXZ @ 1384 NONAME ; public: int __thiscall OpenBabel::OBVirtualBond::GetEnd(void)
 ?GetOrder@OBVirtualBond@OpenBabel@@QAEHXZ @ 1385 NONAME ; public: int __thiscall OpenBabel::OBVirtualBond::GetOrder(void)
 ?BeginData@OBMol@OpenBabel@@QAEPAPAVOBGenericData@2@XZ @ 1386 NONAME ; public: class OpenBabel::OBGenericData * * __thiscall OpenBabel::OBMol::BeginData(void)
 ?EndData@OBMol@OpenBabel@@QAEPAPAVOBGenericData@2@XZ @ 1387 NONAME ; public: class OpenBabel::OBGenericData * * __thiscall OpenBabel::OBMol::EndData(void)
 ?NewResidue@OBMol@OpenBabel@@QAEPAVOBResidue@2@XZ @ 1388 NONAME ; public: class OpenBabel::OBResidue * __thiscall OpenBabel::OBMol::NewResidue(void)
 ?AddAtom@OBMol@OpenBabel@@QAE_NAAVOBAtom@2@@Z @ 1389 NONAME ; public: bool __thiscall OpenBabel::OBMol::AddAtom(class OpenBabel::OBAtom &)
 ?InsertAtom@OBMol@OpenBabel@@QAE_NAAVOBAtom@2@@Z @ 1390 NONAME ; public: bool __thiscall OpenBabel::OBMol::InsertAtom(class OpenBabel::OBAtom &)
 ?AddResidue@OBMol@OpenBabel@@QAE_NAAVOBResidue@2@@Z @ 1391 NONAME ; public: bool __thiscall OpenBabel::OBMol::AddResidue(class OpenBabel::OBResidue &)
 ?StripSalts@OBMol@OpenBabel@@QAE_NXZ @ 1392 NONAME ; public: bool __thiscall OpenBabel::OBMol::StripSalts(void)
 ?DeleteNonPolarHydrogens@OBMol@OpenBabel@@QAE_NXZ @ 1393 NONAME ; public: bool __thiscall OpenBabel::OBMol::DeleteNonPolarHydrogens(void)
 ?DeleteHydrogens@OBMol@OpenBabel@@QAE_NXZ @ 1394 NONAME ; public: bool __thiscall OpenBabel::OBMol::DeleteHydrogens(void)
 ?DeleteHydrogens@OBMol@OpenBabel@@QAE_NPAVOBAtom@2@@Z @ 1395 NONAME ; public: bool __thiscall OpenBabel::OBMol::DeleteHydrogens(class OpenBabel::OBAtom *)
 ?DeleteHydrogen@OBMol@OpenBabel@@QAE_NPAVOBAtom@2@@Z @ 1396 NONAME ; public: bool __thiscall OpenBabel::OBMol::DeleteHydrogen(class OpenBabel::OBAtom *)
 ?AddHydrogens@OBMol@OpenBabel@@QAE_N_N0@Z @ 1397 NONAME ; public: bool __thiscall OpenBabel::OBMol::AddHydrogens(bool,bool)
 ?SetResidue@OBAtom@OpenBabel@@QAEXPAVOBResidue@2@@Z @ 1398 NONAME ; public: void __thiscall OpenBabel::OBAtom::SetResidue(class OpenBabel::OBResidue *)
 ?HasResidue@OBAtom@OpenBabel@@QAE_NXZ @ 1399 NONAME ; public: bool __thiscall OpenBabel::OBAtom::HasResidue(void)
 ?SetHydrogensAdded@OBMol@OpenBabel@@QAEXXZ @ 1400 NONAME ; public: void __thiscall OpenBabel::OBMol::SetHydrogensAdded(void)
 ?HasHydrogensAdded@OBMol@OpenBabel@@QAE_NXZ @ 1401 NONAME ; public: bool __thiscall OpenBabel::OBMol::HasHydrogensAdded(void)
 ?IsCorrectedForPH@OBMol@OpenBabel@@QAE_NXZ @ 1402 NONAME ; public: bool __thiscall OpenBabel::OBMol::IsCorrectedForPH(void)
 ?SetConformer@OBMol@OpenBabel@@QAEXH@Z @ 1403 NONAME ; public: void __thiscall OpenBabel::OBMol::SetConformer(int)
 ?AddPolarHydrogens@OBMol@OpenBabel@@QAE_NXZ @ 1404 NONAME ; public: bool __thiscall OpenBabel::OBMol::AddPolarHydrogens(void)
 ?AddHydrogens@OBMol@OpenBabel@@QAE_NPAVOBAtom@2@@Z @ 1405 NONAME ; public: bool __thiscall OpenBabel::OBMol::AddHydrogens(class OpenBabel::OBAtom *)
 ?CorrectForPH@OBMol@OpenBabel@@QAE_NXZ @ 1406 NONAME ; public: bool __thiscall OpenBabel::OBMol::CorrectForPH(void)
 ?AssignSpinMultiplicity@OBMol@OpenBabel@@QAE_NXZ @ 1407 NONAME ; public: bool __thiscall OpenBabel::OBMol::AssignSpinMultiplicity(void)
 ?DecrementImplicitValence@OBAtom@OpenBabel@@QAEXXZ @ 1408 NONAME ; public: void __thiscall OpenBabel::OBAtom::DecrementImplicitValence(void)
 ?SetSpinMultiplicity@OBAtom@OpenBabel@@QAEXH@Z @ 1409 NONAME ; public: void __thiscall OpenBabel::OBAtom::SetSpinMultiplicity(int)
 ?SetSpinMultiplicityAssigned@OBMol@OpenBabel@@QAEXXZ @ 1410 NONAME ; public: void __thiscall OpenBabel::OBMol::SetSpinMultiplicityAssigned(void)
 ?HasSpinMultiplicityAssigned@OBMol@OpenBabel@@QAE_NXZ @ 1411 NONAME ; public: bool __thiscall OpenBabel::OBMol::HasSpinMultiplicityAssigned(void)
 ?GetCurrentValence@OpenBabel@@YAHPAVOBAtom@1@@Z @ 1412 NONAME ; int __cdecl OpenBabel::GetCurrentValence(class OpenBabel::OBAtom *)
 ?ExpandKekule@OpenBabel@@YA_NAAVOBMol@1@AAV?$vector@PAVOBNodeBase@OpenBabel@@V?$allocator@PAVOBNodeBase@OpenBabel@@@std@@@std@@PAPAVOBNodeBase@1@AAV?$vector@HV?$allocator@H@std@@@4@_N@Z @ 1413 NONAME ; bool __cdecl OpenBabel::ExpandKekule(class OpenBabel::OBMol &,class std::vector<class OpenBabel::OBNodeBase *,class std::allocator<class OpenBabel::OBNodeBase *> > &,class OpenBabel::OBNodeBase * *,class std::vector<int,class std::allocator<int> > &,bool)
 ?IncrementImplicitValence@OBAtom@OpenBabel@@QAEXXZ @ 1414 NONAME ; public: void __thiscall OpenBabel::OBAtom::IncrementImplicitValence(void)
 ?SetFormalCharge@OBAtom@OpenBabel@@QAEXH@Z @ 1415 NONAME ; public: void __thiscall OpenBabel::OBAtom::SetFormalCharge(int)
 ?CorrectBadResonanceForm@OpenBabel@@YAXAAVOBMol@1@@Z @ 1416 NONAME ; void __cdecl OpenBabel::CorrectBadResonanceForm(class OpenBabel::OBMol &)
 ?PerceiveKekuleBonds@OBMol@OpenBabel@@QAE_NXZ @ 1417 NONAME ; public: bool __thiscall OpenBabel::OBMol::PerceiveKekuleBonds(void)
 ?SetKekulePerceived@OBMol@OpenBabel@@QAEXXZ @ 1418 NONAME ; public: void __thiscall OpenBabel::OBMol::SetKekulePerceived(void)
 ?Kekulize@OBMol@OpenBabel@@QAE_NXZ @ 1419 NONAME ; public: bool __thiscall OpenBabel::OBMol::Kekulize(void)
 ?DeleteAtom@OBMol@OpenBabel@@QAE_NPAVOBAtom@2@@Z @ 1420 NONAME ; public: bool __thiscall OpenBabel::OBMol::DeleteAtom(class OpenBabel::OBAtom *)
 ?DeleteResidue@OBMol@OpenBabel@@QAE_NPAVOBResidue@2@@Z @ 1421 NONAME ; public: bool __thiscall OpenBabel::OBMol::DeleteResidue(class OpenBabel::OBResidue *)
 ?AddBond@OBMol@OpenBabel@@QAE_NHHHHH@Z @ 1422 NONAME ; public: bool __thiscall OpenBabel::OBMol::AddBond(int,int,int,int,int)
 ?AddBond@OBAtom@OpenBabel@@QAEXPAVOBBond@2@@Z @ 1423 NONAME ; public: void __thiscall OpenBabel::OBAtom::AddBond(class OpenBabel::OBBond *)
 ?InsertBond@OBAtom@OpenBabel@@QAEXAAPAPAVOBEdgeBase@2@PAVOBBond@2@@Z @ 1424 NONAME ; public: void __thiscall OpenBabel::OBAtom::InsertBond(class OpenBabel::OBEdgeBase * * &,class OpenBabel::OBBond *)
 ?AddBond@OBMol@OpenBabel@@QAE_NAAVOBBond@2@@Z @ 1425 NONAME ; public: bool __thiscall OpenBabel::OBMol::AddBond(class OpenBabel::OBBond &)
 ?GetFlags@OBBond@OpenBabel@@QBEIXZ @ 1426 NONAME ; public: unsigned int __thiscall OpenBabel::OBBond::GetFlags(void)const 
 ?DeleteBond@OBMol@OpenBabel@@QAE_NPAVOBBond@2@@Z @ 1427 NONAME ; public: bool __thiscall OpenBabel::OBMol::DeleteBond(class OpenBabel::OBBond *)
 ?Align@OBMol@OpenBabel@@QAEXPAVOBAtom@2@0AAVvector3@2@1@Z @ 1428 NONAME ; public: void __thiscall OpenBabel::OBMol::Align(class OpenBabel::OBAtom *,class OpenBabel::OBAtom *,class OpenBabel::vector3 &,class OpenBabel::vector3 &)
 ?ToInertialFrame@OBMol@OpenBabel@@QAEXXZ @ 1429 NONAME ; public: void __thiscall OpenBabel::OBMol::ToInertialFrame(void)
 ?ToInertialFrame@OBMol@OpenBabel@@QAEXHPAN@Z @ 1430 NONAME ; public: void __thiscall OpenBabel::OBMol::ToInertialFrame(int,double *)
 ??0OBMol@OpenBabel@@QAE@W4io_type@1@0@Z @ 1431 NONAME ; public: __thiscall OpenBabel::OBMol::OBMol(enum OpenBabel::io_type,enum OpenBabel::io_type)
 ??0OBGraphBase@OpenBabel@@QAE@XZ @ 1432 NONAME ; public: __thiscall OpenBabel::OBGraphBase::OBGraphBase(void)
 ??1OBGraphBase@OpenBabel@@UAE@XZ @ 1433 NONAME ; public: virtual __thiscall OpenBabel::OBGraphBase::~OBGraphBase(void)
 ?SingleMatch@OBGraphBase@OpenBabel@@UBE_NXZ @ 1434 NONAME ; public: virtual bool __thiscall OpenBabel::OBGraphBase::SingleMatch(void)const 
 ?SetSingleMatch@OBGraphBase@OpenBabel@@UAEX_N@Z @ 1435 NONAME ; public: virtual void __thiscall OpenBabel::OBGraphBase::SetSingleMatch(bool)
 ?FinishedMatch@OBGraphBase@OpenBabel@@UBE_NXZ @ 1436 NONAME ; public: virtual bool __thiscall OpenBabel::OBGraphBase::FinishedMatch(void)const 
 ?SetFinishedMatch@OBGraphBase@OpenBabel@@UAEX_N@Z @ 1437 NONAME ; public: virtual void __thiscall OpenBabel::OBGraphBase::SetFinishedMatch(bool)
 ?ClearMatches@OBGraphBase@OpenBabel@@UAEXXZ @ 1438 NONAME ; public: virtual void __thiscall OpenBabel::OBGraphBase::ClearMatches(void)
 ?PushBack@OBGraphBase@OpenBabel@@UAEXAAV?$vector@PAVOBNodeBase@OpenBabel@@V?$allocator@PAVOBNodeBase@OpenBabel@@@std@@@std@@@Z @ 1439 NONAME ; public: virtual void __thiscall OpenBabel::OBGraphBase::PushBack(class std::vector<class OpenBabel::OBNodeBase *,class std::allocator<class OpenBabel::OBNodeBase *> > &)
 ?PrepForMatch@OBGraphBase@OpenBabel@@UAEXXZ @ 1440 NONAME ; public: virtual void __thiscall OpenBabel::OBGraphBase::PrepForMatch(void)
 ?BgnMatch@OBGraphBase@OpenBabel@@UAEPAU?$pair@PAVOBNodeBase@OpenBabel@@V?$vector@PAVOBEdgeBase@OpenBabel@@V?$allocator@PAVOBEdgeBase@OpenBabel@@@std@@@std@@@std@@XZ @ 1441 NONAME ; public: virtual struct std::pair<class OpenBabel::OBNodeBase *,class std::vector<class OpenBabel::OBEdgeBase *,class std::allocator<class OpenBabel::OBEdgeBase *> > > * __thiscall OpenBabel::OBGraphBase::BgnMatch(void)
 ?EndMatch@OBGraphBase@OpenBabel@@UAEPAU?$pair@PAVOBNodeBase@OpenBabel@@V?$vector@PAVOBEdgeBase@OpenBabel@@V?$allocator@PAVOBEdgeBase@OpenBabel@@@std@@@std@@@std@@XZ @ 1442 NONAME ; public: virtual struct std::pair<class OpenBabel::OBNodeBase *,class std::vector<class OpenBabel::OBEdgeBase *,class std::allocator<class OpenBabel::OBEdgeBase *> > > * __thiscall OpenBabel::OBGraphBase::EndMatch(void)
 ?GetFirstSeed@OBGraphBase@OpenBabel@@UAEPAVOBNodeBase@2@XZ @ 1443 NONAME ; public: virtual class OpenBabel::OBNodeBase * __thiscall OpenBabel::OBGraphBase::GetFirstSeed(void)
 ??0OBMol@OpenBabel@@QAE@ABV01@@Z @ 1444 NONAME ; public: __thiscall OpenBabel::OBMol::OBMol(class OpenBabel::OBMol const &)
 ??1OBMol@OpenBabel@@UAE@XZ @ 1445 NONAME ; public: virtual __thiscall OpenBabel::OBMol::~OBMol(void)
 ?HasData@OBMol@OpenBabel@@QAE_NAAV?$basic_string@DU?$char_traits@D@std@@V?$allocator@D@2@@std@@@Z @ 1446 NONAME ; public: bool __thiscall OpenBabel::OBMol::HasData(class std::basic_string<char,struct std::char_traits<char>,class std::allocator<char> > &)
 ?HasData@OBMol@OpenBabel@@QAE_NPBD@Z @ 1447 NONAME ; public: bool __thiscall OpenBabel::OBMol::HasData(char const *)
 ?HasData@OBMol@OpenBabel@@QAE_NW4obDataType@2@@Z @ 1448 NONAME ; public: bool __thiscall OpenBabel::OBMol::HasData(enum OpenBabel::obDataType)
 ?GetData@OBMol@OpenBabel@@QAEPAVOBGenericData@2@AAV?$basic_string@DU?$char_traits@D@std@@V?$allocator@D@2@@std@@@Z @ 1449 NONAME ; public: class OpenBabel::OBGenericData * __thiscall OpenBabel::OBMol::GetData(class std::basic_string<char,struct std::char_traits<char>,class std::allocator<char> > &)
 ?GetData@OBMol@OpenBabel@@QAEPAVOBGenericData@2@PBD@Z @ 1450 NONAME ; public: class OpenBabel::OBGenericData * __thiscall OpenBabel::OBMol::GetData(char const *)
 ?GetData@OBMol@OpenBabel@@QAEPAVOBGenericData@2@W4obDataType@2@@Z @ 1451 NONAME ; public: class OpenBabel::OBGenericData * __thiscall OpenBabel::OBMol::GetData(enum OpenBabel::obDataType)
 ?DeleteData@OBMol@OpenBabel@@QAEXW4obDataType@2@@Z @ 1452 NONAME ; public: void __thiscall OpenBabel::OBMol::DeleteData(enum OpenBabel::obDataType)
 ?DeleteData@OBMol@OpenBabel@@QAEXAAV?$vector@PAVOBGenericData@OpenBabel@@V?$allocator@PAVOBGenericData@OpenBabel@@@std@@@std@@@Z @ 1453 NONAME ; public: void __thiscall OpenBabel::OBMol::DeleteData(class std::vector<class OpenBabel::OBGenericData *,class std::allocator<class OpenBabel::OBGenericData *> > &)
 ?DeleteData@OBMol@OpenBabel@@QAEXPAVOBGenericData@2@@Z @ 1454 NONAME ; public: void __thiscall OpenBabel::OBMol::DeleteData(class OpenBabel::OBGenericData *)
 ?HasNonZeroCoords@OBMol@OpenBabel@@QAE_NXZ @ 1455 NONAME ; public: bool __thiscall OpenBabel::OBMol::HasNonZeroCoords(void)
 ?Has2D@OBMol@OpenBabel@@QAE_NXZ @ 1456 NONAME ; public: bool __thiscall OpenBabel::OBMol::Has2D(void)
 ?Has3D@OBMol@OpenBabel@@QAE_NXZ @ 1457 NONAME ; public: bool __thiscall OpenBabel::OBMol::Has3D(void)
 ?IsChiral@OBMol@OpenBabel@@QAE_NXZ @ 1458 NONAME ; public: bool __thiscall OpenBabel::OBMol::IsChiral(void)
 ?RenumberAtoms@OBMol@OpenBabel@@QAEXAAV?$vector@PAVOBNodeBase@OpenBabel@@V?$allocator@PAVOBNodeBase@OpenBabel@@@std@@@std@@@Z @ 1459 NONAME ; public: void __thiscall OpenBabel::OBMol::RenumberAtoms(class std::vector<class OpenBabel::OBNodeBase *,class std::allocator<class OpenBabel::OBNodeBase *> > &)
 ?SetIdx@OBNodeBase@OpenBabel@@QAEXH@Z @ 1460 NONAME ; public: void __thiscall OpenBabel::OBNodeBase::SetIdx(int)
 ?WriteTitles@OpenBabel@@YA_NAAV?$basic_ostream@DU?$char_traits@D@std@@@std@@AAVOBMol@1@@Z @ 1461 NONAME ; bool __cdecl OpenBabel::WriteTitles(class std::basic_ostream<char,struct std::char_traits<char> > &,class OpenBabel::OBMol &)
 ?ConnectTheDots@OBMol@OpenBabel@@QAEXXZ @ 1462 NONAME ; public: void __thiscall OpenBabel::OBMol::ConnectTheDots(void)
 ?PerceiveBondOrders@OBMol@OpenBabel@@QAEXXZ @ 1463 NONAME ; public: void __thiscall OpenBabel::OBMol::PerceiveBondOrders(void)
 ?HasDoubleBond@OBAtom@OpenBabel@@QAE_NXZ @ 1464 NONAME ; public: bool __thiscall OpenBabel::OBAtom::HasDoubleBond(void)
 ?UnsetKekule@OBBond@OpenBabel@@QAEXXZ @ 1465 NONAME ; public: void __thiscall OpenBabel::OBBond::UnsetKekule(void)
 ?SetHybridizationPerceived@OBMol@OpenBabel@@QAEXXZ @ 1466 NONAME ; public: void __thiscall OpenBabel::OBMol::SetHybridizationPerceived(void)
 ?Center@OBMol@OpenBabel@@QAEXXZ @ 1467 NONAME ; public: void __thiscall OpenBabel::OBMol::Center(void)
 ?Center@OBMol@OpenBabel@@QAE?AVvector3@2@H@Z @ 1468 NONAME ; public: class OpenBabel::vector3 __thiscall OpenBabel::OBMol::Center(int)
 ?Translate@OBMol@OpenBabel@@QAEXABVvector3@2@@Z @ 1469 NONAME ; public: void __thiscall OpenBabel::OBMol::Translate(class OpenBabel::vector3 const &)
 ?Translate@OBMol@OpenBabel@@QAEXABVvector3@2@H@Z @ 1470 NONAME ; public: void __thiscall OpenBabel::OBMol::Translate(class OpenBabel::vector3 const &,int)
 ?Rotate@OBMol@OpenBabel@@QAEXQAY02$$CBN@Z @ 1471 NONAME ; public: void __thiscall OpenBabel::OBMol::Rotate(double const (* const)[3])
 ?Rotate@OBMol@OpenBabel@@QAEXQBN@Z @ 1472 NONAME ; public: void __thiscall OpenBabel::OBMol::Rotate(double const * const)
 ?Rotate@OBMol@OpenBabel@@QAEXQBNH@Z @ 1473 NONAME ; public: void __thiscall OpenBabel::OBMol::Rotate(double const * const,int)
 ?SetConformers@OBMol@OpenBabel@@QAEXAAV?$vector@PANV?$allocator@PAN@std@@@std@@@Z @ 1474 NONAME ; public: void __thiscall OpenBabel::OBMol::SetConformers(class std::vector<double *,class std::allocator<double *> > &)
 ?CopyConformer@OBMol@OpenBabel@@QAEXPANH@Z @ 1475 NONAME ; public: void __thiscall OpenBabel::OBMol::CopyConformer(double *,int)
 ?DeleteConformer@OBMol@OpenBabel@@QAEXH@Z @ 1476 NONAME ; public: void __thiscall OpenBabel::OBMol::DeleteConformer(int)
 ?BeginAtom@OBMol@OpenBabel@@QAEPAVOBAtom@2@AAPAPAVOBNodeBase@2@@Z @ 1477 NONAME ; public: class OpenBabel::OBAtom * __thiscall OpenBabel::OBMol::BeginAtom(class OpenBabel::OBNodeBase * * &)
 ?NextAtom@OBMol@OpenBabel@@QAEPAVOBAtom@2@AAPAPAVOBNodeBase@2@@Z @ 1478 NONAME ; public: class OpenBabel::OBAtom * __thiscall OpenBabel::OBMol::NextAtom(class OpenBabel::OBNodeBase * * &)
 ?BeginBond@OBMol@OpenBabel@@QAEPAVOBBond@2@AAPAPAVOBEdgeBase@2@@Z @ 1479 NONAME ; public: class OpenBabel::OBBond * __thiscall OpenBabel::OBMol::BeginBond(class OpenBabel::OBEdgeBase * * &)
 ?NextBond@OBMol@OpenBabel@@QAEPAVOBBond@2@AAPAPAVOBEdgeBase@2@@Z @ 1480 NONAME ; public: class OpenBabel::OBBond * __thiscall OpenBabel::OBMol::NextBond(class OpenBabel::OBEdgeBase * * &)
 ?resize@?$vector@PAVOBEdgeBase@OpenBabel@@V?$allocator@PAVOBEdgeBase@OpenBabel@@@std@@@std@@QAEXIABQAVOBEdgeBase@OpenBabel@@@Z @ 1481 NONAME ; public: void __thiscall std::vector<class OpenBabel::OBEdgeBase *,class std::allocator<class OpenBabel::OBEdgeBase *> >::resize(unsigned int,class OpenBabel::OBEdgeBase * const &)
 ??A?$vector@PAVOBEdgeBase@OpenBabel@@V?$allocator@PAVOBEdgeBase@OpenBabel@@@std@@@std@@QAEAAPAVOBEdgeBase@OpenBabel@@I@Z @ 1482 NONAME ; public: class OpenBabel::OBEdgeBase * & __thiscall std::vector<class OpenBabel::OBEdgeBase *,class std::allocator<class OpenBabel::OBEdgeBase *> >::operator[](unsigned int)
 ?push_back@?$vector@PAVOBEdgeBase@OpenBabel@@V?$allocator@PAVOBEdgeBase@OpenBabel@@@std@@@std@@QAEXABQAVOBEdgeBase@OpenBabel@@@Z @ 1483 NONAME ; public: void __thiscall std::vector<class OpenBabel::OBEdgeBase *,class std::allocator<class OpenBabel::OBEdgeBase *> >::push_back(class OpenBabel::OBEdgeBase * const &)
 ?insert@?$vector@PAVOBEdgeBase@OpenBabel@@V?$allocator@PAVOBEdgeBase@OpenBabel@@@std@@@std@@QAEPAPAVOBEdgeBase@OpenBabel@@PAPAV34@ABQAV34@@Z @ 1484 NONAME ; public: class OpenBabel::OBEdgeBase * * __thiscall std::vector<class OpenBabel::OBEdgeBase *,class std::allocator<class OpenBabel::OBEdgeBase *> >::insert(class OpenBabel::OBEdgeBase * *,class OpenBabel::OBEdgeBase * const &)
 ?reserve@?$vector@PAVOBNodeBase@OpenBabel@@V?$allocator@PAVOBNodeBase@OpenBabel@@@std@@@std@@QAEXI@Z @ 1485 NONAME ; public: void __thiscall std::vector<class OpenBabel::OBNodeBase *,class std::allocator<class OpenBabel::OBNodeBase *> >::reserve(unsigned int)
 ?resize@?$vector@PAVOBNodeBase@OpenBabel@@V?$allocator@PAVOBNodeBase@OpenBabel@@@std@@@std@@QAEXIABQAVOBNodeBase@OpenBabel@@@Z @ 1486 NONAME ; public: void __thiscall std::vector<class OpenBabel::OBNodeBase *,class std::allocator<class OpenBabel::OBNodeBase *> >::resize(unsigned int,class OpenBabel::OBNodeBase * const &)
 ??A?$vector@PAVOBNodeBase@OpenBabel@@V?$allocator@PAVOBNodeBase@OpenBabel@@@std@@@std@@QAEAAPAVOBNodeBase@OpenBabel@@I@Z @ 1487 NONAME ; public: class OpenBabel::OBNodeBase * & __thiscall std::vector<class OpenBabel::OBNodeBase *,class std::allocator<class OpenBabel::OBNodeBase *> >::operator[](unsigned int)
 ?erase@?$vector@PAVOBNodeBase@OpenBabel@@V?$allocator@PAVOBNodeBase@OpenBabel@@@std@@@std@@QAEPAPAVOBNodeBase@OpenBabel@@PAPAV34@@Z @ 1488 NONAME ; public: class OpenBabel::OBNodeBase * * __thiscall std::vector<class OpenBabel::OBNodeBase *,class std::allocator<class OpenBabel::OBNodeBase *> >::erase(class OpenBabel::OBNodeBase * *)
 ?resize@?$vector@_NV?$allocator@_N@std@@@std@@QAEXIAB_N@Z @ 1489 NONAME ; public: void __thiscall std::vector<bool,class std::allocator<bool> >::resize(unsigned int,bool const &)
 ?empty@?$vector@V?$vector@HV?$allocator@H@std@@@std@@V?$allocator@V?$vector@HV?$allocator@H@std@@@std@@@2@@std@@QBE_NXZ @ 1490 NONAME ; public: bool __thiscall std::vector<class std::vector<int,class std::allocator<int> >,class std::allocator<class std::vector<int,class std::allocator<int> > > >::empty(void)const 
 ?push_back@?$vector@V?$vector@HV?$allocator@H@std@@@std@@V?$allocator@V?$vector@HV?$allocator@H@std@@@std@@@2@@std@@QAEXABV?$vector@HV?$allocator@H@std@@@2@@Z @ 1491 NONAME ; public: void __thiscall std::vector<class std::vector<int,class std::allocator<int> >,class std::allocator<class std::vector<int,class std::allocator<int> > > >::push_back(class std::vector<int,class std::allocator<int> > const &)
 ?clear@?$vector@PAVOBAtom@OpenBabel@@V?$allocator@PAVOBAtom@OpenBabel@@@std@@@std@@QAEXXZ @ 1492 NONAME ; public: void __thiscall std::vector<class OpenBabel::OBAtom *,class std::allocator<class OpenBabel::OBAtom *> >::clear(void)
 ?erase@?$vector@PAVOBResidue@OpenBabel@@V?$allocator@PAVOBResidue@OpenBabel@@@std@@@std@@QAEPAPAVOBResidue@OpenBabel@@PAPAV34@@Z @ 1493 NONAME ; public: class OpenBabel::OBResidue * * __thiscall std::vector<class OpenBabel::OBResidue *,class std::allocator<class OpenBabel::OBResidue *> >::erase(class OpenBabel::OBResidue * *)
 ??0?$vector@PAVOBInternalCoord@OpenBabel@@V?$allocator@PAVOBInternalCoord@OpenBabel@@@std@@@std@@QAE@ABV?$allocator@PAVOBInternalCoord@OpenBabel@@@1@@Z @ 1494 NONAME ; public: __thiscall std::vector<class OpenBabel::OBInternalCoord *,class std::allocator<class OpenBabel::OBInternalCoord *> >::vector<class OpenBabel::OBInternalCoord *,class std::allocator<class OpenBabel::OBInternalCoord *> >(class std::allocator<class OpenBabel::OBInternalCoord *> const &)
 ??0?$vector@PAVOBInternalCoord@OpenBabel@@V?$allocator@PAVOBInternalCoord@OpenBabel@@@std@@@std@@QAE@ABV01@@Z @ 1495 NONAME ; public: __thiscall std::vector<class OpenBabel::OBInternalCoord *,class std::allocator<class OpenBabel::OBInternalCoord *> >::vector<class OpenBabel::OBInternalCoord *,class std::allocator<class OpenBabel::OBInternalCoord *> >(class std::vector<class OpenBabel::OBInternalCoord *,class std::allocator<class OpenBabel::OBInternalCoord *> > const &)
 ??1?$vector@PAVOBInternalCoord@OpenBabel@@V?$allocator@PAVOBInternalCoord@OpenBabel@@@std@@@std@@QAE@XZ @ 1496 NONAME ; public: __thiscall std::vector<class OpenBabel::OBInternalCoord *,class std::allocator<class OpenBabel::OBInternalCoord *> >::~vector<class OpenBabel::OBInternalCoord *,class std::allocator<class OpenBabel::OBInternalCoord *> >(void)
 ?empty@?$vector@PAVOBInternalCoord@OpenBabel@@V?$allocator@PAVOBInternalCoord@OpenBabel@@@std@@@std@@QBE_NXZ @ 1497 NONAME ; public: bool __thiscall std::vector<class OpenBabel::OBInternalCoord *,class std::allocator<class OpenBabel::OBInternalCoord *> >::empty(void)const 
 ?push_back@?$vector@PAVOBInternalCoord@OpenBabel@@V?$allocator@PAVOBInternalCoord@OpenBabel@@@std@@@std@@QAEXABQAVOBInternalCoord@OpenBabel@@@Z @ 1498 NONAME ; public: void __thiscall std::vector<class OpenBabel::OBInternalCoord *,class std::allocator<class OpenBabel::OBInternalCoord *> >::push_back(class OpenBabel::OBInternalCoord * const &)
 ?end@?$vector@PAVOBInternalCoord@OpenBabel@@V?$allocator@PAVOBInternalCoord@OpenBabel@@@std@@@std@@QAEPAPAVOBInternalCoord@OpenBabel@@XZ @ 1499 NONAME ; public: class OpenBabel::OBInternalCoord * * __thiscall std::vector<class OpenBabel::OBInternalCoord *,class std::allocator<class OpenBabel::OBInternalCoord *> >::end(void)
 ?resize@?$vector@PANV?$allocator@PAN@std@@@std@@QAEXIABQAN@Z @ 1500 NONAME ; public: void __thiscall std::vector<double *,class std::allocator<double *> >::resize(unsigned int,double * const &)
 ?erase@?$vector@PANV?$allocator@PAN@std@@@std@@QAEPAPANPAPAN@Z @ 1501 NONAME ; public: double * * __thiscall std::vector<double *,class std::allocator<double *> >::erase(double * *)
 ??0?$pair@PAVOBAtom@OpenBabel@@N@std@@QAE@ABQAVOBAtom@OpenBabel@@ABN@Z @ 1502 NONAME ; public: __thiscall std::pair<class OpenBabel::OBAtom *,double>::pair<class OpenBabel::OBAtom *,double>(class OpenBabel::OBAtom * const &,double const &)
 ??0?$pair@PAVOBAtom@OpenBabel@@I@std@@QAE@ABQAVOBAtom@OpenBabel@@ABI@Z @ 1503 NONAME ; public: __thiscall std::pair<class OpenBabel::OBAtom *,unsigned int>::pair<class OpenBabel::OBAtom *,unsigned int>(class OpenBabel::OBAtom * const &,unsigned int const &)
 ??0?$vector@U?$pair@PAVOBAtom@OpenBabel@@I@std@@V?$allocator@U?$pair@PAVOBAtom@OpenBabel@@I@std@@@2@@std@@QAE@ABV?$allocator@U?$pair@PAVOBAtom@OpenBabel@@I@std@@@1@@Z @ 1504 NONAME ; public: __thiscall std::vector<struct std::pair<class OpenBabel::OBAtom *,unsigned int>,class std::allocator<struct std::pair<class OpenBabel::OBAtom *,unsigned int> > >::vector<struct std::pair<class OpenBabel::OBAtom *,unsigned int>,class std::allocator<struct std::pair<class OpenBabel::OBAtom *,unsigned int> > >(class std::allocator<struct std::pair<class OpenBabel::OBAtom *,unsigned int> > const &)
 ??1?$vector@U?$pair@PAVOBAtom@OpenBabel@@I@std@@V?$allocator@U?$pair@PAVOBAtom@OpenBabel@@I@std@@@2@@std@@QAE@XZ @ 1505 NONAME ; public: __thiscall std::vector<struct std::pair<class OpenBabel::OBAtom *,unsigned int>,class std::allocator<struct std::pair<class OpenBabel::OBAtom *,unsigned int> > >::~vector<struct std::pair<class OpenBabel::OBAtom *,unsigned int>,class std::allocator<struct std::pair<class OpenBabel::OBAtom *,unsigned int> > >(void)
 ??4?$vector@U?$pair@PAVOBAtom@OpenBabel@@I@std@@V?$allocator@U?$pair@PAVOBAtom@OpenBabel@@I@std@@@2@@std@@QAEAAV01@ABV01@@Z @ 1506 NONAME ; public: class std::vector<struct std::pair<class OpenBabel::OBAtom *,unsigned int>,class std::allocator<struct std::pair<class OpenBabel::OBAtom *,unsigned int> > > & __thiscall std::vector<struct std::pair<class OpenBabel::OBAtom *,unsigned int>,class std::allocator<struct std::pair<class OpenBabel::OBAtom *,unsigned int> > >::operator=(class std::vector<struct std::pair<class OpenBabel::OBAtom *,unsigned int>,class std::allocator<struct std::pair<class OpenBabel::OBAtom *,unsigned int> > > const &)
 ?begin@?$vector@U?$pair@PAVOBAtom@OpenBabel@@I@std@@V?$allocator@U?$pair@PAVOBAtom@OpenBabel@@I@std@@@2@@std@@QAEPAU?$pair@PAVOBAtom@OpenBabel@@I@2@XZ @ 1507 NONAME ; public: struct std::pair<class OpenBabel::OBAtom *,unsigned int> * __thiscall std::vector<struct std::pair<class OpenBabel::OBAtom *,unsigned int>,class std::allocator<struct std::pair<class OpenBabel::OBAtom *,unsigned int> > >::begin(void)
 ?end@?$vector@U?$pair@PAVOBAtom@OpenBabel@@I@std@@V?$allocator@U?$pair@PAVOBAtom@OpenBabel@@I@std@@@2@@std@@QAEPAU?$pair@PAVOBAtom@OpenBabel@@I@2@XZ @ 1508 NONAME ; public: struct std::pair<class OpenBabel::OBAtom *,unsigned int> * __thiscall std::vector<struct std::pair<class OpenBabel::OBAtom *,unsigned int>,class std::allocator<struct std::pair<class OpenBabel::OBAtom *,unsigned int> > >::end(void)
 ??A?$vector@U?$pair@PAVOBAtom@OpenBabel@@I@std@@V?$allocator@U?$pair@PAVOBAtom@OpenBabel@@I@std@@@2@@std@@QAEAAU?$pair@PAVOBAtom@OpenBabel@@I@1@I@Z @ 1509 NONAME ; public: struct std::pair<class OpenBabel::OBAtom *,unsigned int> & __thiscall std::vector<struct std::pair<class OpenBabel::OBAtom *,unsigned int>,class std::allocator<struct std::pair<class OpenBabel::OBAtom *,unsigned int> > >::operator[](unsigned int)
 ?push_back@?$vector@U?$pair@PAVOBAtom@OpenBabel@@I@std@@V?$allocator@U?$pair@PAVOBAtom@OpenBabel@@I@std@@@2@@std@@QAEXABU?$pair@PAVOBAtom@OpenBabel@@I@2@@Z @ 1510 NONAME ; public: void __thiscall std::vector<struct std::pair<class OpenBabel::OBAtom *,unsigned int>,class std::allocator<struct std::pair<class OpenBabel::OBAtom *,unsigned int> > >::push_back(struct std::pair<class OpenBabel::OBAtom *,unsigned int> const &)
 ?clear@?$vector@U?$pair@PAVOBAtom@OpenBabel@@I@std@@V?$allocator@U?$pair@PAVOBAtom@OpenBabel@@I@std@@@2@@std@@QAEXXZ @ 1511 NONAME ; public: void __thiscall std::vector<struct std::pair<class OpenBabel::OBAtom *,unsigned int>,class std::allocator<struct std::pair<class OpenBabel::OBAtom *,unsigned int> > >::clear(void)
 ??0?$vector@U?$pair@PAVOBAtom@OpenBabel@@H@std@@V?$allocator@U?$pair@PAVOBAtom@OpenBabel@@H@std@@@2@@std@@QAE@ABV?$allocator@U?$pair@PAVOBAtom@OpenBabel@@H@std@@@1@@Z @ 1512 NONAME ; public: __thiscall std::vector<struct std::pair<class OpenBabel::OBAtom *,int>,class std::allocator<struct std::pair<class OpenBabel::OBAtom *,int> > >::vector<struct std::pair<class OpenBabel::OBAtom *,int>,class std::allocator<struct std::pair<class OpenBabel::OBAtom *,int> > >(class std::allocator<struct std::pair<class OpenBabel::OBAtom *,int> > const &)
 ??1?$vector@U?$pair@PAVOBAtom@OpenBabel@@H@std@@V?$allocator@U?$pair@PAVOBAtom@OpenBabel@@H@std@@@2@@std@@QAE@XZ @ 1513 NONAME ; public: __thiscall std::vector<struct std::pair<class OpenBabel::OBAtom *,int>,class std::allocator<struct std::pair<class OpenBabel::OBAtom *,int> > >::~vector<struct std::pair<class OpenBabel::OBAtom *,int>,class std::allocator<struct std::pair<class OpenBabel::OBAtom *,int> > >(void)
 ?begin@?$vector@U?$pair@PAVOBAtom@OpenBabel@@H@std@@V?$allocator@U?$pair@PAVOBAtom@OpenBabel@@H@std@@@2@@std@@QAEPAU?$pair@PAVOBAtom@OpenBabel@@H@2@XZ @ 1514 NONAME ; public: struct std::pair<class OpenBabel::OBAtom *,int> * __thiscall std::vector<struct std::pair<class OpenBabel::OBAtom *,int>,class std::allocator<struct std::pair<class OpenBabel::OBAtom *,int> > >::begin(void)
 ?end@?$vector@U?$pair@PAVOBAtom@OpenBabel@@H@std@@V?$allocator@U?$pair@PAVOBAtom@OpenBabel@@H@std@@@2@@std@@QAEPAU?$pair@PAVOBAtom@OpenBabel@@H@2@XZ @ 1515 NONAME ; public: struct std::pair<class OpenBabel::OBAtom *,int> * __thiscall std::vector<struct std::pair<class OpenBabel::OBAtom *,int>,class std::allocator<struct std::pair<class OpenBabel::OBAtom *,int> > >::end(void)
 ?push_back@?$vector@U?$pair@PAVOBAtom@OpenBabel@@H@std@@V?$allocator@U?$pair@PAVOBAtom@OpenBabel@@H@std@@@2@@std@@QAEXABU?$pair@PAVOBAtom@OpenBabel@@H@2@@Z @ 1516 NONAME ; public: void __thiscall std::vector<struct std::pair<class OpenBabel::OBAtom *,int>,class std::allocator<struct std::pair<class OpenBabel::OBAtom *,int> > >::push_back(struct std::pair<class OpenBabel::OBAtom *,int> const &)
 ??0?$pair@PAVOBAtom@OpenBabel@@H@std@@QAE@ABQAVOBAtom@OpenBabel@@ABH@Z @ 1517 NONAME ; public: __thiscall std::pair<class OpenBabel::OBAtom *,int>::pair<class OpenBabel::OBAtom *,int>(class OpenBabel::OBAtom * const &,int const &)
 ??0?$vector@U?$pair@PAVOBAtom@OpenBabel@@N@std@@V?$allocator@U?$pair@PAVOBAtom@OpenBabel@@N@std@@@2@@std@@QAE@ABV?$allocator@U?$pair@PAVOBAtom@OpenBabel@@N@std@@@1@@Z @ 1518 NONAME ; public: __thiscall std::vector<struct std::pair<class OpenBabel::OBAtom *,double>,class std::allocator<struct std::pair<class OpenBabel::OBAtom *,double> > >::vector<struct std::pair<class OpenBabel::OBAtom *,double>,class std::allocator<struct std::pair<class OpenBabel::OBAtom *,double> > >(class std::allocator<struct std::pair<class OpenBabel::OBAtom *,double> > const &)
 ??1?$vector@U?$pair@PAVOBAtom@OpenBabel@@N@std@@V?$allocator@U?$pair@PAVOBAtom@OpenBabel@@N@std@@@2@@std@@QAE@XZ @ 1519 NONAME ; public: __thiscall std::vector<struct std::pair<class OpenBabel::OBAtom *,double>,class std::allocator<struct std::pair<class OpenBabel::OBAtom *,double> > >::~vector<struct std::pair<class OpenBabel::OBAtom *,double>,class std::allocator<struct std::pair<class OpenBabel::OBAtom *,double> > >(void)
 ?begin@?$vector@U?$pair@PAVOBAtom@OpenBabel@@N@std@@V?$allocator@U?$pair@PAVOBAtom@OpenBabel@@N@std@@@2@@std@@QAEPAU?$pair@PAVOBAtom@OpenBabel@@N@2@XZ @ 1520 NONAME ; public: struct std::pair<class OpenBabel::OBAtom *,double> * __thiscall std::vector<struct std::pair<class OpenBabel::OBAtom *,double>,class std::allocator<struct std::pair<class OpenBabel::OBAtom *,double> > >::begin(void)
 ?end@?$vector@U?$pair@PAVOBAtom@OpenBabel@@N@std@@V?$allocator@U?$pair@PAVOBAtom@OpenBabel@@N@std@@@2@@std@@QAEPAU?$pair@PAVOBAtom@OpenBabel@@N@2@XZ @ 1521 NONAME ; public: struct std::pair<class OpenBabel::OBAtom *,double> * __thiscall std::vector<struct std::pair<class OpenBabel::OBAtom *,double>,class std::allocator<struct std::pair<class OpenBabel::OBAtom *,double> > >::end(void)
 ?size@?$vector@U?$pair@PAVOBAtom@OpenBabel@@N@std@@V?$allocator@U?$pair@PAVOBAtom@OpenBabel@@N@std@@@2@@std@@QBEIXZ @ 1522 NONAME ; public: unsigned int __thiscall std::vector<struct std::pair<class OpenBabel::OBAtom *,double>,class std::allocator<struct std::pair<class OpenBabel::OBAtom *,double> > >::size(void)const 
 ??A?$vector@U?$pair@PAVOBAtom@OpenBabel@@N@std@@V?$allocator@U?$pair@PAVOBAtom@OpenBabel@@N@std@@@2@@std@@QAEAAU?$pair@PAVOBAtom@OpenBabel@@N@1@I@Z @ 1523 NONAME ; public: struct std::pair<class OpenBabel::OBAtom *,double> & __thiscall std::vector<struct std::pair<class OpenBabel::OBAtom *,double>,class std::allocator<struct std::pair<class OpenBabel::OBAtom *,double> > >::operator[](unsigned int)
 ?push_back@?$vector@U?$pair@PAVOBAtom@OpenBabel@@N@std@@V?$allocator@U?$pair@PAVOBAtom@OpenBabel@@N@std@@@2@@std@@QAEXABU?$pair@PAVOBAtom@OpenBabel@@N@2@@Z @ 1524 NONAME ; public: void __thiscall std::vector<struct std::pair<class OpenBabel::OBAtom *,double>,class std::allocator<struct std::pair<class OpenBabel::OBAtom *,double> > >::push_back(struct std::pair<class OpenBabel::OBAtom *,double> const &)
 ?insert@?$vector@PAVOBEdgeBase@OpenBabel@@V?$allocator@PAVOBEdgeBase@OpenBabel@@@std@@@std@@QAEXPAPAVOBEdgeBase@OpenBabel@@IABQAV34@@Z @ 1525 NONAME ; public: void __thiscall std::vector<class OpenBabel::OBEdgeBase *,class std::allocator<class OpenBabel::OBEdgeBase *> >::insert(class OpenBabel::OBEdgeBase * *,unsigned int,class OpenBabel::OBEdgeBase * const &)
 ?end@?$vector@_NV?$allocator@_N@std@@@std@@QAEPA_NXZ @ 1526 NONAME ; public: bool * __thiscall std::vector<bool,class std::allocator<bool> >::end(void)
 ?size@?$vector@_NV?$allocator@_N@std@@@std@@QBEIXZ @ 1527 NONAME ; public: unsigned int __thiscall std::vector<bool,class std::allocator<bool> >::size(void)const 
 ?insert@?$vector@_NV?$allocator@_N@std@@@std@@QAEXPA_NIAB_N@Z @ 1528 NONAME ; public: void __thiscall std::vector<bool,class std::allocator<bool> >::insert(bool *,unsigned int,bool const &)
 ?erase@?$vector@_NV?$allocator@_N@std@@@std@@QAEPA_NPA_N0@Z @ 1529 NONAME ; public: bool * __thiscall std::vector<bool,class std::allocator<bool> >::erase(bool *,bool *)
 ?insert@?$vector@V?$vector@HV?$allocator@H@std@@@std@@V?$allocator@V?$vector@HV?$allocator@H@std@@@std@@@2@@std@@QAEPAV?$vector@HV?$allocator@H@std@@@2@PAV32@ABV32@@Z @ 1530 NONAME ; public: class std::vector<int,class std::allocator<int> > * __thiscall std::vector<class std::vector<int,class std::allocator<int> >,class std::allocator<class std::vector<int,class std::allocator<int> > > >::insert(class std::vector<int,class std::allocator<int> > *,class std::vector<int,class std::allocator<int> > const &)
 ?erase@?$vector@PAVOBAtom@OpenBabel@@V?$allocator@PAVOBAtom@OpenBabel@@@std@@@std@@QAEPAPAVOBAtom@OpenBabel@@PAPAV34@0@Z @ 1531 NONAME ; public: class OpenBabel::OBAtom * * __thiscall std::vector<class OpenBabel::OBAtom *,class std::allocator<class OpenBabel::OBAtom *> >::erase(class OpenBabel::OBAtom * *,class OpenBabel::OBAtom * *)
 ?begin@?$vector@PAVOBInternalCoord@OpenBabel@@V?$allocator@PAVOBInternalCoord@OpenBabel@@@std@@@std@@QBEPBQAVOBInternalCoord@OpenBabel@@XZ @ 1532 NONAME ; public: class OpenBabel::OBInternalCoord * const * __thiscall std::vector<class OpenBabel::OBInternalCoord *,class std::allocator<class OpenBabel::OBInternalCoord *> >::begin(void)const 
 ?end@?$vector@PAVOBInternalCoord@OpenBabel@@V?$allocator@PAVOBInternalCoord@OpenBabel@@@std@@@std@@QBEPBQAVOBInternalCoord@OpenBabel@@XZ @ 1533 NONAME ; public: class OpenBabel::OBInternalCoord * const * __thiscall std::vector<class OpenBabel::OBInternalCoord *,class std::allocator<class OpenBabel::OBInternalCoord *> >::end(void)const 
 ?size@?$vector@PAVOBInternalCoord@OpenBabel@@V?$allocator@PAVOBInternalCoord@OpenBabel@@@std@@@std@@QBEIXZ @ 1534 NONAME ; public: unsigned int __thiscall std::vector<class OpenBabel::OBInternalCoord *,class std::allocator<class OpenBabel::OBInternalCoord *> >::size(void)const 
 ?insert@?$vector@PAVOBInternalCoord@OpenBabel@@V?$allocator@PAVOBInternalCoord@OpenBabel@@@std@@@std@@QAEPAPAVOBInternalCoord@OpenBabel@@PAPAV34@ABQAV34@@Z @ 1535 NONAME ; public: class OpenBabel::OBInternalCoord * * __thiscall std::vector<class OpenBabel::OBInternalCoord *,class std::allocator<class OpenBabel::OBInternalCoord *> >::insert(class OpenBabel::OBInternalCoord * *,class OpenBabel::OBInternalCoord * const &)
 ?begin@?$vector@PAVOBInternalCoord@OpenBabel@@V?$allocator@PAVOBInternalCoord@OpenBabel@@@std@@@std@@QAEPAPAVOBInternalCoord@OpenBabel@@XZ @ 1536 NONAME ; public: class OpenBabel::OBInternalCoord * * __thiscall std::vector<class OpenBabel::OBInternalCoord *,class std::allocator<class OpenBabel::OBInternalCoord *> >::begin(void)
 ?_Destroy@?$vector@PAVOBInternalCoord@OpenBabel@@V?$allocator@PAVOBInternalCoord@OpenBabel@@@std@@@std@@IAEXPAPAVOBInternalCoord@OpenBabel@@0@Z @ 1537 NONAME ; protected: void __thiscall std::vector<class OpenBabel::OBInternalCoord *,class std::allocator<class OpenBabel::OBInternalCoord *> >::_Destroy(class OpenBabel::OBInternalCoord * *,class OpenBabel::OBInternalCoord * *)
 ?_Ucopy@?$vector@PAVOBInternalCoord@OpenBabel@@V?$allocator@PAVOBInternalCoord@OpenBabel@@@std@@@std@@IAEPAPAVOBInternalCoord@OpenBabel@@PBQAV34@0PAPAV34@@Z @ 1538 NONAME ; protected: class OpenBabel::OBInternalCoord * * __thiscall std::vector<class OpenBabel::OBInternalCoord *,class std::allocator<class OpenBabel::OBInternalCoord *> >::_Ucopy(class OpenBabel::OBInternalCoord * const *,class OpenBabel::OBInternalCoord * const *,class OpenBabel::OBInternalCoord * *)
 ?allocate@?$allocator@PAVOBInternalCoord@OpenBabel@@@std@@QAEPAPAVOBInternalCoord@OpenBabel@@IPBX@Z @ 1539 NONAME ; public: class OpenBabel::OBInternalCoord * * __thiscall std::allocator<class OpenBabel::OBInternalCoord *>::allocate(unsigned int,void const *)
 ?deallocate@?$allocator@PAVOBInternalCoord@OpenBabel@@@std@@QAEXPAXI@Z @ 1540 NONAME ; public: void __thiscall std::allocator<class OpenBabel::OBInternalCoord *>::deallocate(void *,unsigned int)
 ?capacity@?$vector@U?$pair@PAVOBAtom@OpenBabel@@I@std@@V?$allocator@U?$pair@PAVOBAtom@OpenBabel@@I@std@@@2@@std@@QBEIXZ @ 1541 NONAME ; public: unsigned int __thiscall std::vector<struct std::pair<class OpenBabel::OBAtom *,unsigned int>,class std::allocator<struct std::pair<class OpenBabel::OBAtom *,unsigned int> > >::capacity(void)const 
 ?begin@?$vector@U?$pair@PAVOBAtom@OpenBabel@@I@std@@V?$allocator@U?$pair@PAVOBAtom@OpenBabel@@I@std@@@2@@std@@QBEPBU?$pair@PAVOBAtom@OpenBabel@@I@2@XZ @ 1542 NONAME ; public: struct std::pair<class OpenBabel::OBAtom *,unsigned int> const * __thiscall std::vector<struct std::pair<class OpenBabel::OBAtom *,unsigned int>,class std::allocator<struct std::pair<class OpenBabel::OBAtom *,unsigned int> > >::begin(void)const 
 ?end@?$vector@U?$pair@PAVOBAtom@OpenBabel@@I@std@@V?$allocator@U?$pair@PAVOBAtom@OpenBabel@@I@std@@@2@@std@@QBEPBU?$pair@PAVOBAtom@OpenBabel@@I@2@XZ @ 1543 NONAME ; public: struct std::pair<class OpenBabel::OBAtom *,unsigned int> const * __thiscall std::vector<struct std::pair<class OpenBabel::OBAtom *,unsigned int>,class std::allocator<struct std::pair<class OpenBabel::OBAtom *,unsigned int> > >::end(void)const 
 ?size@?$vector@U?$pair@PAVOBAtom@OpenBabel@@I@std@@V?$allocator@U?$pair@PAVOBAtom@OpenBabel@@I@std@@@2@@std@@QBEIXZ @ 1544 NONAME ; public: unsigned int __thiscall std::vector<struct std::pair<class OpenBabel::OBAtom *,unsigned int>,class std::allocator<struct std::pair<class OpenBabel::OBAtom *,unsigned int> > >::size(void)const 
 ?insert@?$vector@U?$pair@PAVOBAtom@OpenBabel@@I@std@@V?$allocator@U?$pair@PAVOBAtom@OpenBabel@@I@std@@@2@@std@@QAEPAU?$pair@PAVOBAtom@OpenBabel@@I@2@PAU32@ABU32@@Z @ 1545 NONAME ; public: struct std::pair<class OpenBabel::OBAtom *,unsigned int> * __thiscall std::vector<struct std::pair<class OpenBabel::OBAtom *,unsigned int>,class std::allocator<struct std::pair<class OpenBabel::OBAtom *,unsigned int> > >::insert(struct std::pair<class OpenBabel::OBAtom *,unsigned int> *,struct std::pair<class OpenBabel::OBAtom *,unsigned int> const &)
 ?erase@?$vector@U?$pair@PAVOBAtom@OpenBabel@@I@std@@V?$allocator@U?$pair@PAVOBAtom@OpenBabel@@I@std@@@2@@std@@QAEPAU?$pair@PAVOBAtom@OpenBabel@@I@2@PAU32@0@Z @ 1546 NONAME ; public: struct std::pair<class OpenBabel::OBAtom *,unsigned int> * __thiscall std::vector<struct std::pair<class OpenBabel::OBAtom *,unsigned int>,class std::allocator<struct std::pair<class OpenBabel::OBAtom *,unsigned int> > >::erase(struct std::pair<class OpenBabel::OBAtom *,unsigned int> *,struct std::pair<class OpenBabel::OBAtom *,unsigned int> *)
 ?_Destroy@?$vector@U?$pair@PAVOBAtom@OpenBabel@@I@std@@V?$allocator@U?$pair@PAVOBAtom@OpenBabel@@I@std@@@2@@std@@IAEXPAU?$pair@PAVOBAtom@OpenBabel@@I@2@0@Z @ 1547 NONAME ; protected: void __thiscall std::vector<struct std::pair<class OpenBabel::OBAtom *,unsigned int>,class std::allocator<struct std::pair<class OpenBabel::OBAtom *,unsigned int> > >::_Destroy(struct std::pair<class OpenBabel::OBAtom *,unsigned int> *,struct std::pair<class OpenBabel::OBAtom *,unsigned int> *)
 ?_Ucopy@?$vector@U?$pair@PAVOBAtom@OpenBabel@@I@std@@V?$allocator@U?$pair@PAVOBAtom@OpenBabel@@I@std@@@2@@std@@IAEPAU?$pair@PAVOBAtom@OpenBabel@@I@2@PBU32@0PAU32@@Z @ 1548 NONAME ; protected: struct std::pair<class OpenBabel::OBAtom *,unsigned int> * __thiscall std::vector<struct std::pair<class OpenBabel::OBAtom *,unsigned int>,class std::allocator<struct std::pair<class OpenBabel::OBAtom *,unsigned int> > >::_Ucopy(struct std::pair<class OpenBabel::OBAtom *,unsigned int> const *,struct std::pair<class OpenBabel::OBAtom *,unsigned int> const *,struct std::pair<class OpenBabel::OBAtom *,unsigned int> *)
 ?allocate@?$allocator@U?$pair@PAVOBAtom@OpenBabel@@I@std@@@std@@QAEPAU?$pair@PAVOBAtom@OpenBabel@@I@2@IPBX@Z @ 1549 NONAME ; public: struct std::pair<class OpenBabel::OBAtom *,unsigned int> * __thiscall std::allocator<struct std::pair<class OpenBabel::OBAtom *,unsigned int> >::allocate(unsigned int,void const *)
 ?deallocate@?$allocator@U?$pair@PAVOBAtom@OpenBabel@@I@std@@@std@@QAEXPAXI@Z @ 1550 NONAME ; public: void __thiscall std::allocator<struct std::pair<class OpenBabel::OBAtom *,unsigned int> >::deallocate(void *,unsigned int)
 ?insert@?$vector@U?$pair@PAVOBAtom@OpenBabel@@H@std@@V?$allocator@U?$pair@PAVOBAtom@OpenBabel@@H@std@@@2@@std@@QAEPAU?$pair@PAVOBAtom@OpenBabel@@H@2@PAU32@ABU32@@Z @ 1551 NONAME ; public: struct std::pair<class OpenBabel::OBAtom *,int> * __thiscall std::vector<struct std::pair<class OpenBabel::OBAtom *,int>,class std::allocator<struct std::pair<class OpenBabel::OBAtom *,int> > >::insert(struct std::pair<class OpenBabel::OBAtom *,int> *,struct std::pair<class OpenBabel::OBAtom *,int> const &)
 ?_Destroy@?$vector@U?$pair@PAVOBAtom@OpenBabel@@H@std@@V?$allocator@U?$pair@PAVOBAtom@OpenBabel@@H@std@@@2@@std@@IAEXPAU?$pair@PAVOBAtom@OpenBabel@@H@2@0@Z @ 1552 NONAME ; protected: void __thiscall std::vector<struct std::pair<class OpenBabel::OBAtom *,int>,class std::allocator<struct std::pair<class OpenBabel::OBAtom *,int> > >::_Destroy(struct std::pair<class OpenBabel::OBAtom *,int> *,struct std::pair<class OpenBabel::OBAtom *,int> *)
 ?deallocate@?$allocator@U?$pair@PAVOBAtom@OpenBabel@@H@std@@@std@@QAEXPAXI@Z @ 1553 NONAME ; public: void __thiscall std::allocator<struct std::pair<class OpenBabel::OBAtom *,int> >::deallocate(void *,unsigned int)
 ?insert@?$vector@U?$pair@PAVOBAtom@OpenBabel@@N@std@@V?$allocator@U?$pair@PAVOBAtom@OpenBabel@@N@std@@@2@@std@@QAEPAU?$pair@PAVOBAtom@OpenBabel@@N@2@PAU32@ABU32@@Z @ 1554 NONAME ; public: struct std::pair<class OpenBabel::OBAtom *,double> * __thiscall std::vector<struct std::pair<class OpenBabel::OBAtom *,double>,class std::allocator<struct std::pair<class OpenBabel::OBAtom *,double> > >::insert(struct std::pair<class OpenBabel::OBAtom *,double> *,struct std::pair<class OpenBabel::OBAtom *,double> const &)
 ?_Destroy@?$vector@U?$pair@PAVOBAtom@OpenBabel@@N@std@@V?$allocator@U?$pair@PAVOBAtom@OpenBabel@@N@std@@@2@@std@@IAEXPAU?$pair@PAVOBAtom@OpenBabel@@N@2@0@Z @ 1555 NONAME ; protected: void __thiscall std::vector<struct std::pair<class OpenBabel::OBAtom *,double>,class std::allocator<struct std::pair<class OpenBabel::OBAtom *,double> > >::_Destroy(struct std::pair<class OpenBabel::OBAtom *,double> *,struct std::pair<class OpenBabel::OBAtom *,double> *)
 ?deallocate@?$allocator@U?$pair@PAVOBAtom@OpenBabel@@N@std@@@std@@QAEXPAXI@Z @ 1556 NONAME ; public: void __thiscall std::allocator<struct std::pair<class OpenBabel::OBAtom *,double> >::deallocate(void *,unsigned int)
 ?_Ufill@?$vector@PAVOBEdgeBase@OpenBabel@@V?$allocator@PAVOBEdgeBase@OpenBabel@@@std@@@std@@IAEXPAPAVOBEdgeBase@OpenBabel@@IABQAV34@@Z @ 1557 NONAME ; protected: void __thiscall std::vector<class OpenBabel::OBEdgeBase *,class std::allocator<class OpenBabel::OBEdgeBase *> >::_Ufill(class OpenBabel::OBEdgeBase * *,unsigned int,class OpenBabel::OBEdgeBase * const &)
 ?_Ucopy@?$vector@_NV?$allocator@_N@std@@@std@@IAEPA_NPB_N0PA_N@Z @ 1558 NONAME ; protected: bool * __thiscall std::vector<bool,class std::allocator<bool> >::_Ucopy(bool const *,bool const *,bool *)
 ?_Ufill@?$vector@_NV?$allocator@_N@std@@@std@@IAEXPA_NIAB_N@Z @ 1559 NONAME ; protected: void __thiscall std::vector<bool,class std::allocator<bool> >::_Ufill(bool *,unsigned int,bool const &)
 ?allocate@?$allocator@_N@std@@QAEPA_NIPBX@Z @ 1560 NONAME ; public: bool * __thiscall std::allocator<bool>::allocate(unsigned int,void const *)
 ?insert@?$vector@PAVOBInternalCoord@OpenBabel@@V?$allocator@PAVOBInternalCoord@OpenBabel@@@std@@@std@@QAEXPAPAVOBInternalCoord@OpenBabel@@IABQAV34@@Z @ 1561 NONAME ; public: void __thiscall std::vector<class OpenBabel::OBInternalCoord *,class std::allocator<class OpenBabel::OBInternalCoord *> >::insert(class OpenBabel::OBInternalCoord * *,unsigned int,class OpenBabel::OBInternalCoord * const &)
 ?construct@?$allocator@PAVOBInternalCoord@OpenBabel@@@std@@QAEXPAPAVOBInternalCoord@OpenBabel@@ABQAV34@@Z @ 1562 NONAME ; public: void __thiscall std::allocator<class OpenBabel::OBInternalCoord *>::construct(class OpenBabel::OBInternalCoord * *,class OpenBabel::OBInternalCoord * const &)
 ?destroy@?$allocator@PAVOBInternalCoord@OpenBabel@@@std@@QAEXPAPAVOBInternalCoord@OpenBabel@@@Z @ 1563 NONAME ; public: void __thiscall std::allocator<class OpenBabel::OBInternalCoord *>::destroy(class OpenBabel::OBInternalCoord * *)
 ?insert@?$vector@U?$pair@PAVOBAtom@OpenBabel@@I@std@@V?$allocator@U?$pair@PAVOBAtom@OpenBabel@@I@std@@@2@@std@@QAEXPAU?$pair@PAVOBAtom@OpenBabel@@I@2@IABU32@@Z @ 1564 NONAME ; public: void __thiscall std::vector<struct std::pair<class OpenBabel::OBAtom *,unsigned int>,class std::allocator<struct std::pair<class OpenBabel::OBAtom *,unsigned int> > >::insert(struct std::pair<class OpenBabel::OBAtom *,unsigned int> *,unsigned int,struct std::pair<class OpenBabel::OBAtom *,unsigned int> const &)
 ?construct@?$allocator@U?$pair@PAVOBAtom@OpenBabel@@I@std@@@std@@QAEXPAU?$pair@PAVOBAtom@OpenBabel@@I@2@ABU32@@Z @ 1565 NONAME ; public: void __thiscall std::allocator<struct std::pair<class OpenBabel::OBAtom *,unsigned int> >::construct(struct std::pair<class OpenBabel::OBAtom *,unsigned int> *,struct std::pair<class OpenBabel::OBAtom *,unsigned int> const &)
 ?destroy@?$allocator@U?$pair@PAVOBAtom@OpenBabel@@I@std@@@std@@QAEXPAU?$pair@PAVOBAtom@OpenBabel@@I@2@@Z @ 1566 NONAME ; public: void __thiscall std::allocator<struct std::pair<class OpenBabel::OBAtom *,unsigned int> >::destroy(struct std::pair<class OpenBabel::OBAtom *,unsigned int> *)
 ?insert@?$vector@U?$pair@PAVOBAtom@OpenBabel@@H@std@@V?$allocator@U?$pair@PAVOBAtom@OpenBabel@@H@std@@@2@@std@@QAEXPAU?$pair@PAVOBAtom@OpenBabel@@H@2@IABU32@@Z @ 1567 NONAME ; public: void __thiscall std::vector<struct std::pair<class OpenBabel::OBAtom *,int>,class std::allocator<struct std::pair<class OpenBabel::OBAtom *,int> > >::insert(struct std::pair<class OpenBabel::OBAtom *,int> *,unsigned int,struct std::pair<class OpenBabel::OBAtom *,int> const &)
 ?destroy@?$allocator@U?$pair@PAVOBAtom@OpenBabel@@H@std@@@std@@QAEXPAU?$pair@PAVOBAtom@OpenBabel@@H@2@@Z @ 1568 NONAME ; public: void __thiscall std::allocator<struct std::pair<class OpenBabel::OBAtom *,int> >::destroy(struct std::pair<class OpenBabel::OBAtom *,int> *)
 ?insert@?$vector@U?$pair@PAVOBAtom@OpenBabel@@N@std@@V?$allocator@U?$pair@PAVOBAtom@OpenBabel@@N@std@@@2@@std@@QAEXPAU?$pair@PAVOBAtom@OpenBabel@@N@2@IABU32@@Z @ 1569 NONAME ; public: void __thiscall std::vector<struct std::pair<class OpenBabel::OBAtom *,double>,class std::allocator<struct std::pair<class OpenBabel::OBAtom *,double> > >::insert(struct std::pair<class OpenBabel::OBAtom *,double> *,unsigned int,struct std::pair<class OpenBabel::OBAtom *,double> const &)
 ?destroy@?$allocator@U?$pair@PAVOBAtom@OpenBabel@@N@std@@@std@@QAEXPAU?$pair@PAVOBAtom@OpenBabel@@N@2@@Z @ 1570 NONAME ; public: void __thiscall std::allocator<struct std::pair<class OpenBabel::OBAtom *,double> >::destroy(struct std::pair<class OpenBabel::OBAtom *,double> *)
 ?construct@?$allocator@_N@std@@QAEXPA_NAB_N@Z @ 1571 NONAME ; public: void __thiscall std::allocator<bool>::construct(bool *,bool const &)
 ?_Ufill@?$vector@PAVOBInternalCoord@OpenBabel@@V?$allocator@PAVOBInternalCoord@OpenBabel@@@std@@@std@@IAEXPAPAVOBInternalCoord@OpenBabel@@IABQAV34@@Z @ 1572 NONAME ; protected: void __thiscall std::vector<class OpenBabel::OBInternalCoord *,class std::allocator<class OpenBabel::OBInternalCoord *> >::_Ufill(class OpenBabel::OBInternalCoord * *,unsigned int,class OpenBabel::OBInternalCoord * const &)
 ?_Ufill@?$vector@U?$pair@PAVOBAtom@OpenBabel@@I@std@@V?$allocator@U?$pair@PAVOBAtom@OpenBabel@@I@std@@@2@@std@@IAEXPAU?$pair@PAVOBAtom@OpenBabel@@I@2@IABU32@@Z @ 1573 NONAME ; protected: void __thiscall std::vector<struct std::pair<class OpenBabel::OBAtom *,unsigned int>,class std::allocator<struct std::pair<class OpenBabel::OBAtom *,unsigned int> > >::_Ufill(struct std::pair<class OpenBabel::OBAtom *,unsigned int> *,unsigned int,struct std::pair<class OpenBabel::OBAtom *,unsigned int> const &)
 ?size@?$vector@U?$pair@PAVOBAtom@OpenBabel@@H@std@@V?$allocator@U?$pair@PAVOBAtom@OpenBabel@@H@std@@@2@@std@@QBEIXZ @ 1574 NONAME ; public: unsigned int __thiscall std::vector<struct std::pair<class OpenBabel::OBAtom *,int>,class std::allocator<struct std::pair<class OpenBabel::OBAtom *,int> > >::size(void)const 
 ?_Ucopy@?$vector@U?$pair@PAVOBAtom@OpenBabel@@H@std@@V?$allocator@U?$pair@PAVOBAtom@OpenBabel@@H@std@@@2@@std@@IAEPAU?$pair@PAVOBAtom@OpenBabel@@H@2@PBU32@0PAU32@@Z @ 1575 NONAME ; protected: struct std::pair<class OpenBabel::OBAtom *,int> * __thiscall std::vector<struct std::pair<class OpenBabel::OBAtom *,int>,class std::allocator<struct std::pair<class OpenBabel::OBAtom *,int> > >::_Ucopy(struct std::pair<class OpenBabel::OBAtom *,int> const *,struct std::pair<class OpenBabel::OBAtom *,int> const *,struct std::pair<class OpenBabel::OBAtom *,int> *)
 ?_Ufill@?$vector@U?$pair@PAVOBAtom@OpenBabel@@H@std@@V?$allocator@U?$pair@PAVOBAtom@OpenBabel@@H@std@@@2@@std@@IAEXPAU?$pair@PAVOBAtom@OpenBabel@@H@2@IABU32@@Z @ 1576 NONAME ; protected: void __thiscall std::vector<struct std::pair<class OpenBabel::OBAtom *,int>,class std::allocator<struct std::pair<class OpenBabel::OBAtom *,int> > >::_Ufill(struct std::pair<class OpenBabel::OBAtom *,int> *,unsigned int,struct std::pair<class OpenBabel::OBAtom *,int> const &)
 ?allocate@?$allocator@U?$pair@PAVOBAtom@OpenBabel@@H@std@@@std@@QAEPAU?$pair@PAVOBAtom@OpenBabel@@H@2@IPBX@Z @ 1577 NONAME ; public: struct std::pair<class OpenBabel::OBAtom *,int> * __thiscall std::allocator<struct std::pair<class OpenBabel::OBAtom *,int> >::allocate(unsigned int,void const *)
 ?_Ucopy@?$vector@U?$pair@PAVOBAtom@OpenBabel@@N@std@@V?$allocator@U?$pair@PAVOBAtom@OpenBabel@@N@std@@@2@@std@@IAEPAU?$pair@PAVOBAtom@OpenBabel@@N@2@PBU32@0PAU32@@Z @ 1578 NONAME ; protected: struct std::pair<class OpenBabel::OBAtom *,double> * __thiscall std::vector<struct std::pair<class OpenBabel::OBAtom *,double>,class std::allocator<struct std::pair<class OpenBabel::OBAtom *,double> > >::_Ucopy(struct std::pair<class OpenBabel::OBAtom *,double> const *,struct std::pair<class OpenBabel::OBAtom *,double> const *,struct std::pair<class OpenBabel::OBAtom *,double> *)
 ?_Ufill@?$vector@U?$pair@PAVOBAtom@OpenBabel@@N@std@@V?$allocator@U?$pair@PAVOBAtom@OpenBabel@@N@std@@@2@@std@@IAEXPAU?$pair@PAVOBAtom@OpenBabel@@N@2@IABU32@@Z @ 1579 NONAME ; protected: void __thiscall std::vector<struct std::pair<class OpenBabel::OBAtom *,double>,class std::allocator<struct std::pair<class OpenBabel::OBAtom *,double> > >::_Ufill(struct std::pair<class OpenBabel::OBAtom *,double> *,unsigned int,struct std::pair<class OpenBabel::OBAtom *,double> const &)
 ?allocate@?$allocator@U?$pair@PAVOBAtom@OpenBabel@@N@std@@@std@@QAEPAU?$pair@PAVOBAtom@OpenBabel@@N@2@IPBX@Z @ 1580 NONAME ; public: struct std::pair<class OpenBabel::OBAtom *,double> * __thiscall std::allocator<struct std::pair<class OpenBabel::OBAtom *,double> >::allocate(unsigned int,void const *)
 ?construct@?$allocator@U?$pair@PAVOBAtom@OpenBabel@@H@std@@@std@@QAEXPAU?$pair@PAVOBAtom@OpenBabel@@H@2@ABU32@@Z @ 1581 NONAME ; public: void __thiscall std::allocator<struct std::pair<class OpenBabel::OBAtom *,int> >::construct(struct std::pair<class OpenBabel::OBAtom *,int> *,struct std::pair<class OpenBabel::OBAtom *,int> const &)
 ?construct@?$allocator@U?$pair@PAVOBAtom@OpenBabel@@N@std@@@std@@QAEXPAU?$pair@PAVOBAtom@OpenBabel@@N@2@ABU32@@Z @ 1582 NONAME ; public: void __thiscall std::allocator<struct std::pair<class OpenBabel::OBAtom *,double> >::construct(struct std::pair<class OpenBabel::OBAtom *,double> *,struct std::pair<class OpenBabel::OBAtom *,double> const &)
 ?sort@std@@YAXPAV?$vector@HV?$allocator@H@std@@@1@0P6A_NABV21@1@Z@Z @ 1583 NONAME ; void __cdecl std::sort(class std::vector<int,class std::allocator<int> > *,class std::vector<int,class std::allocator<int> > *,bool (__cdecl*)(class std::vector<int,class std::allocator<int> > const &,class std::vector<int,class std::allocator<int> > const &))
 ?sort@std@@YAXPAU?$pair@PAVOBAtom@OpenBabel@@I@1@0P6A_NABU21@1@Z@Z @ 1584 NONAME ; void __cdecl std::sort(struct std::pair<class OpenBabel::OBAtom *,unsigned int> *,struct std::pair<class OpenBabel::OBAtom *,unsigned int> *,bool (__cdecl*)(struct std::pair<class OpenBabel::OBAtom *,unsigned int> const &,struct std::pair<class OpenBabel::OBAtom *,unsigned int> const &))
 ?sort@std@@YAXPAI0P6A_NABI1@Z@Z @ 1585 NONAME ; void __cdecl std::sort(unsigned int *,unsigned int *,bool (__cdecl*)(unsigned int const &,unsigned int const &))
 ?sort@std@@YAXPAU?$pair@PAVOBAtom@OpenBabel@@N@1@0P6A_NABU21@1@Z@Z @ 1586 NONAME ; void __cdecl std::sort(struct std::pair<class OpenBabel::OBAtom *,double> *,struct std::pair<class OpenBabel::OBAtom *,double> *,bool (__cdecl*)(struct std::pair<class OpenBabel::OBAtom *,double> const &,struct std::pair<class OpenBabel::OBAtom *,double> const &))
 ?copy@std@@YAPAU?$pair@PAVOBAtom@OpenBabel@@I@1@PBU21@0PAU21@@Z @ 1587 NONAME ; struct std::pair<class OpenBabel::OBAtom *,unsigned int> * __cdecl std::copy(struct std::pair<class OpenBabel::OBAtom *,unsigned int> const *,struct std::pair<class OpenBabel::OBAtom *,unsigned int> const *,struct std::pair<class OpenBabel::OBAtom *,unsigned int> *)
 ?fill@std@@YAXPAPAVOBEdgeBase@OpenBabel@@0ABQAV23@@Z @ 1588 NONAME ; void __cdecl std::fill(class OpenBabel::OBEdgeBase * *,class OpenBabel::OBEdgeBase * *,class OpenBabel::OBEdgeBase * const &)
 ?copy_backward@std@@YAPAPAVOBEdgeBase@OpenBabel@@PAPAV23@00@Z @ 1589 NONAME ; class OpenBabel::OBEdgeBase * * __cdecl std::copy_backward(class OpenBabel::OBEdgeBase * *,class OpenBabel::OBEdgeBase * *,class OpenBabel::OBEdgeBase * *)
 ?fill@std@@YAXPA_N0AB_N@Z @ 1590 NONAME ; void __cdecl std::fill(bool *,bool *,bool const &)
 ?copy_backward@std@@YAPA_NPA_N00@Z @ 1591 NONAME ; bool * __cdecl std::copy_backward(bool *,bool *,bool *)
 ?copy@std@@YAPA_NPA_N00@Z @ 1592 NONAME ; bool * __cdecl std::copy(bool *,bool *,bool *)
 ?copy@std@@YAPAPAVOBAtom@OpenBabel@@PAPAV23@00@Z @ 1593 NONAME ; class OpenBabel::OBAtom * * __cdecl std::copy(class OpenBabel::OBAtom * *,class OpenBabel::OBAtom * *,class OpenBabel::OBAtom * *)
 ?_Allocate@std@@YAPAPAVOBInternalCoord@OpenBabel@@HPAPAV23@@Z @ 1594 NONAME ; class OpenBabel::OBInternalCoord * * __cdecl std::_Allocate(int,class OpenBabel::OBInternalCoord * *)
 ?copy@std@@YAPAU?$pair@PAVOBAtom@OpenBabel@@I@1@PAU21@00@Z @ 1595 NONAME ; struct std::pair<class OpenBabel::OBAtom *,unsigned int> * __cdecl std::copy(struct std::pair<class OpenBabel::OBAtom *,unsigned int> *,struct std::pair<class OpenBabel::OBAtom *,unsigned int> *,struct std::pair<class OpenBabel::OBAtom *,unsigned int> *)
 ?_Allocate@std@@YAPAU?$pair@PAVOBAtom@OpenBabel@@I@1@HPAU21@@Z @ 1596 NONAME ; struct std::pair<class OpenBabel::OBAtom *,unsigned int> * __cdecl std::_Allocate(int,struct std::pair<class OpenBabel::OBAtom *,unsigned int> *)
 ?_Allocate@std@@YAPA_NHPA_N@Z @ 1597 NONAME ; bool * __cdecl std::_Allocate(int,bool *)
 ?fill@std@@YAXPAPAVOBInternalCoord@OpenBabel@@0ABQAV23@@Z @ 1598 NONAME ; void __cdecl std::fill(class OpenBabel::OBInternalCoord * *,class OpenBabel::OBInternalCoord * *,class OpenBabel::OBInternalCoord * const &)
 ?copy_backward@std@@YAPAPAVOBInternalCoord@OpenBabel@@PAPAV23@00@Z @ 1599 NONAME ; class OpenBabel::OBInternalCoord * * __cdecl std::copy_backward(class OpenBabel::OBInternalCoord * *,class OpenBabel::OBInternalCoord * *,class OpenBabel::OBInternalCoord * *)
 ?_Construct@std@@YAXPAPAVOBInternalCoord@OpenBabel@@ABQAV23@@Z @ 1600 NONAME ; void __cdecl std::_Construct(class OpenBabel::OBInternalCoord * *,class OpenBabel::OBInternalCoord * const &)
 ?_Destroy@std@@YAXPAPAVOBInternalCoord@OpenBabel@@@Z @ 1601 NONAME ; void __cdecl std::_Destroy(class OpenBabel::OBInternalCoord * *)
 ?fill@std@@YAXPAU?$pair@PAVOBAtom@OpenBabel@@I@1@0ABU21@@Z @ 1602 NONAME ; void __cdecl std::fill(struct std::pair<class OpenBabel::OBAtom *,unsigned int> *,struct std::pair<class OpenBabel::OBAtom *,unsigned int> *,struct std::pair<class OpenBabel::OBAtom *,unsigned int> const &)
 ?copy_backward@std@@YAPAU?$pair@PAVOBAtom@OpenBabel@@I@1@PAU21@00@Z @ 1603 NONAME ; struct std::pair<class OpenBabel::OBAtom *,unsigned int> * __cdecl std::copy_backward(struct std::pair<class OpenBabel::OBAtom *,unsigned int> *,struct std::pair<class OpenBabel::OBAtom *,unsigned int> *,struct std::pair<class OpenBabel::OBAtom *,unsigned int> *)
 ?_Construct@std@@YAXPAU?$pair@PAVOBAtom@OpenBabel@@I@1@ABU21@@Z @ 1604 NONAME ; void __cdecl std::_Construct(struct std::pair<class OpenBabel::OBAtom *,unsigned int> *,struct std::pair<class OpenBabel::OBAtom *,unsigned int> const &)
 ?_Destroy@std@@YAXPAU?$pair@PAVOBAtom@OpenBabel@@I@1@@Z @ 1605 NONAME ; void __cdecl std::_Destroy(struct std::pair<class OpenBabel::OBAtom *,unsigned int> *)
 ?fill@std@@YAXPAU?$pair@PAVOBAtom@OpenBabel@@H@1@0ABU21@@Z @ 1606 NONAME ; void __cdecl std::fill(struct std::pair<class OpenBabel::OBAtom *,int> *,struct std::pair<class OpenBabel::OBAtom *,int> *,struct std::pair<class OpenBabel::OBAtom *,int> const &)
 ?copy_backward@std@@YAPAU?$pair@PAVOBAtom@OpenBabel@@H@1@PAU21@00@Z @ 1607 NONAME ; struct std::pair<class OpenBabel::OBAtom *,int> * __cdecl std::copy_backward(struct std::pair<class OpenBabel::OBAtom *,int> *,struct std::pair<class OpenBabel::OBAtom *,int> *,struct std::pair<class OpenBabel::OBAtom *,int> *)
 ?_Destroy@std@@YAXPAU?$pair@PAVOBAtom@OpenBabel@@H@1@@Z @ 1608 NONAME ; void __cdecl std::_Destroy(struct std::pair<class OpenBabel::OBAtom *,int> *)
 ?fill@std@@YAXPAU?$pair@PAVOBAtom@OpenBabel@@N@1@0ABU21@@Z @ 1609 NONAME ; void __cdecl std::fill(struct std::pair<class OpenBabel::OBAtom *,double> *,struct std::pair<class OpenBabel::OBAtom *,double> *,struct std::pair<class OpenBabel::OBAtom *,double> const &)
 ?copy_backward@std@@YAPAU?$pair@PAVOBAtom@OpenBabel@@N@1@PAU21@00@Z @ 1610 NONAME ; struct std::pair<class OpenBabel::OBAtom *,double> * __cdecl std::copy_backward(struct std::pair<class OpenBabel::OBAtom *,double> *,struct std::pair<class OpenBabel::OBAtom *,double> *,struct std::pair<class OpenBabel::OBAtom *,double> *)
 ?_Destroy@std@@YAXPAU?$pair@PAVOBAtom@OpenBabel@@N@1@@Z @ 1611 NONAME ; void __cdecl std::_Destroy(struct std::pair<class OpenBabel::OBAtom *,double> *)
 ?_Construct@std@@YAXPA_NAB_N@Z @ 1612 NONAME ; void __cdecl std::_Construct(bool *,bool const &)
 ?_Allocate@std@@YAPAU?$pair@PAVOBAtom@OpenBabel@@H@1@HPAU21@@Z @ 1613 NONAME ; struct std::pair<class OpenBabel::OBAtom *,int> * __cdecl std::_Allocate(int,struct std::pair<class OpenBabel::OBAtom *,int> *)
 ?_Allocate@std@@YAPAU?$pair@PAVOBAtom@OpenBabel@@N@1@HPAU21@@Z @ 1614 NONAME ; struct std::pair<class OpenBabel::OBAtom *,double> * __cdecl std::_Allocate(int,struct std::pair<class OpenBabel::OBAtom *,double> *)
 ?_Construct@std@@YAXPAU?$pair@PAVOBAtom@OpenBabel@@H@1@ABU21@@Z @ 1615 NONAME ; void __cdecl std::_Construct(struct std::pair<class OpenBabel::OBAtom *,int> *,struct std::pair<class OpenBabel::OBAtom *,int> const &)
 ?_Construct@std@@YAXPAU?$pair@PAVOBAtom@OpenBabel@@N@1@ABU21@@Z @ 1616 NONAME ; void __cdecl std::_Construct(struct std::pair<class OpenBabel::OBAtom *,double> *,struct std::pair<class OpenBabel::OBAtom *,double> const &)
 ?_Val_type@std@@YAPAV?$vector@HV?$allocator@H@std@@@1@PBV21@@Z @ 1617 NONAME ; class std::vector<int,class std::allocator<int> > * __cdecl std::_Val_type(class std::vector<int,class std::allocator<int> > const *)
 ?_Sort_0@std@@YAXPAV?$vector@HV?$allocator@H@std@@@1@0P6A_NABV21@1@Z0@Z @ 1618 NONAME ; void __cdecl std::_Sort_0(class std::vector<int,class std::allocator<int> > *,class std::vector<int,class std::allocator<int> > *,bool (__cdecl*)(class std::vector<int,class std::allocator<int> > const &,class std::vector<int,class std::allocator<int> > const &),class std::vector<int,class std::allocator<int> > *)
 ?_Val_type@std@@YAPAU?$pair@PAVOBAtom@OpenBabel@@I@1@PBU21@@Z @ 1619 NONAME ; struct std::pair<class OpenBabel::OBAtom *,unsigned int> * __cdecl std::_Val_type(struct std::pair<class OpenBabel::OBAtom *,unsigned int> const *)
 ?_Sort_0@std@@YAXPAU?$pair@PAVOBAtom@OpenBabel@@I@1@0P6A_NABU21@1@Z0@Z @ 1620 NONAME ; void __cdecl std::_Sort_0(struct std::pair<class OpenBabel::OBAtom *,unsigned int> *,struct std::pair<class OpenBabel::OBAtom *,unsigned int> *,bool (__cdecl*)(struct std::pair<class OpenBabel::OBAtom *,unsigned int> const &,struct std::pair<class OpenBabel::OBAtom *,unsigned int> const &),struct std::pair<class OpenBabel::OBAtom *,unsigned int> *)
 ?_Val_type@std@@YAPAIPBI@Z @ 1621 NONAME ; unsigned int * __cdecl std::_Val_type(unsigned int const *)
 ?_Sort_0@std@@YAXPAI0P6A_NABI1@Z0@Z @ 1622 NONAME ; void __cdecl std::_Sort_0(unsigned int *,unsigned int *,bool (__cdecl*)(unsigned int const &,unsigned int const &),unsigned int *)
 ?_Val_type@std@@YAPAU?$pair@PAVOBAtom@OpenBabel@@N@1@PBU21@@Z @ 1623 NONAME ; struct std::pair<class OpenBabel::OBAtom *,double> * __cdecl std::_Val_type(struct std::pair<class OpenBabel::OBAtom *,double> const *)
 ?_Sort_0@std@@YAXPAU?$pair@PAVOBAtom@OpenBabel@@N@1@0P6A_NABU21@1@Z0@Z @ 1624 NONAME ; void __cdecl std::_Sort_0(struct std::pair<class OpenBabel::OBAtom *,double> *,struct std::pair<class OpenBabel::OBAtom *,double> *,bool (__cdecl*)(struct std::pair<class OpenBabel::OBAtom *,double> const &,struct std::pair<class OpenBabel::OBAtom *,double> const &),struct std::pair<class OpenBabel::OBAtom *,double> *)
 ?_Insertion_sort@std@@YAXPAV?$vector@HV?$allocator@H@std@@@1@0P6A_NABV21@1@Z@Z @ 1625 NONAME ; void __cdecl std::_Insertion_sort(class std::vector<int,class std::allocator<int> > *,class std::vector<int,class std::allocator<int> > *,bool (__cdecl*)(class std::vector<int,class std::allocator<int> > const &,class std::vector<int,class std::allocator<int> > const &))
 ?_Sort@std@@YAXPAV?$vector@HV?$allocator@H@std@@@1@0P6A_NABV21@1@Z0@Z @ 1626 NONAME ; void __cdecl std::_Sort(class std::vector<int,class std::allocator<int> > *,class std::vector<int,class std::allocator<int> > *,bool (__cdecl*)(class std::vector<int,class std::allocator<int> > const &,class std::vector<int,class std::allocator<int> > const &),class std::vector<int,class std::allocator<int> > *)
 ?_Unguarded_insert@std@@YAXPAV?$vector@HV?$allocator@H@std@@@1@V21@P6A_NABV21@2@Z@Z @ 1627 NONAME ; void __cdecl std::_Unguarded_insert(class std::vector<int,class std::allocator<int> > *,class std::vector<int,class std::allocator<int> >,bool (__cdecl*)(class std::vector<int,class std::allocator<int> > const &,class std::vector<int,class std::allocator<int> > const &))
 ?_Insertion_sort@std@@YAXPAU?$pair@PAVOBAtom@OpenBabel@@I@1@0P6A_NABU21@1@Z@Z @ 1628 NONAME ; void __cdecl std::_Insertion_sort(struct std::pair<class OpenBabel::OBAtom *,unsigned int> *,struct std::pair<class OpenBabel::OBAtom *,unsigned int> *,bool (__cdecl*)(struct std::pair<class OpenBabel::OBAtom *,unsigned int> const &,struct std::pair<class OpenBabel::OBAtom *,unsigned int> const &))
 ?_Sort@std@@YAXPAU?$pair@PAVOBAtom@OpenBabel@@I@1@0P6A_NABU21@1@Z0@Z @ 1629 NONAME ; void __cdecl std::_Sort(struct std::pair<class OpenBabel::OBAtom *,unsigned int> *,struct std::pair<class OpenBabel::OBAtom *,unsigned int> *,bool (__cdecl*)(struct std::pair<class OpenBabel::OBAtom *,unsigned int> const &,struct std::pair<class OpenBabel::OBAtom *,unsigned int> const &),struct std::pair<class OpenBabel::OBAtom *,unsigned int> *)
 ?_Unguarded_insert@std@@YAXPAU?$pair@PAVOBAtom@OpenBabel@@I@1@U21@P6A_NABU21@2@Z@Z @ 1630 NONAME ; void __cdecl std::_Unguarded_insert(struct std::pair<class OpenBabel::OBAtom *,unsigned int> *,struct std::pair<class OpenBabel::OBAtom *,unsigned int>,bool (__cdecl*)(struct std::pair<class OpenBabel::OBAtom *,unsigned int> const &,struct std::pair<class OpenBabel::OBAtom *,unsigned int> const &))
 ?_Insertion_sort@std@@YAXPAI0P6A_NABI1@Z@Z @ 1631 NONAME ; void __cdecl std::_Insertion_sort(unsigned int *,unsigned int *,bool (__cdecl*)(unsigned int const &,unsigned int const &))
 ?_Sort@std@@YAXPAI0P6A_NABI1@Z0@Z @ 1632 NONAME ; void __cdecl std::_Sort(unsigned int *,unsigned int *,bool (__cdecl*)(unsigned int const &,unsigned int const &),unsigned int *)
 ?_Unguarded_insert@std@@YAXPAIIP6A_NABI1@Z@Z @ 1633 NONAME ; void __cdecl std::_Unguarded_insert(unsigned int *,unsigned int,bool (__cdecl*)(unsigned int const &,unsigned int const &))
 ?_Insertion_sort@std@@YAXPAU?$pair@PAVOBAtom@OpenBabel@@N@1@0P6A_NABU21@1@Z@Z @ 1634 NONAME ; void __cdecl std::_Insertion_sort(struct std::pair<class OpenBabel::OBAtom *,double> *,struct std::pair<class OpenBabel::OBAtom *,double> *,bool (__cdecl*)(struct std::pair<class OpenBabel::OBAtom *,double> const &,struct std::pair<class OpenBabel::OBAtom *,double> const &))
 ?_Sort@std@@YAXPAU?$pair@PAVOBAtom@OpenBabel@@N@1@0P6A_NABU21@1@Z0@Z @ 1635 NONAME ; void __cdecl std::_Sort(struct std::pair<class OpenBabel::OBAtom *,double> *,struct std::pair<class OpenBabel::OBAtom *,double> *,bool (__cdecl*)(struct std::pair<class OpenBabel::OBAtom *,double> const &,struct std::pair<class OpenBabel::OBAtom *,double> const &),struct std::pair<class OpenBabel::OBAtom *,double> *)
 ?_Unguarded_insert@std@@YAXPAU?$pair@PAVOBAtom@OpenBabel@@N@1@U21@P6A_NABU21@2@Z@Z @ 1636 NONAME ; void __cdecl std::_Unguarded_insert(struct std::pair<class OpenBabel::OBAtom *,double> *,struct std::pair<class OpenBabel::OBAtom *,double>,bool (__cdecl*)(struct std::pair<class OpenBabel::OBAtom *,double> const &,struct std::pair<class OpenBabel::OBAtom *,double> const &))
 ?_Insertion_sort_1@std@@YAXPAV?$vector@HV?$allocator@H@std@@@1@0P6A_NABV21@1@Z0@Z @ 1637 NONAME ; void __cdecl std::_Insertion_sort_1(class std::vector<int,class std::allocator<int> > *,class std::vector<int,class std::allocator<int> > *,bool (__cdecl*)(class std::vector<int,class std::allocator<int> > const &,class std::vector<int,class std::allocator<int> > const &),class std::vector<int,class std::allocator<int> > *)
 ?_Median@std@@YA?AV?$vector@HV?$allocator@H@std@@@1@V21@00P6A_NABV21@1@Z@Z @ 1638 NONAME ; class std::vector<int,class std::allocator<int> > __cdecl std::_Median(class std::vector<int,class std::allocator<int> >,class std::vector<int,class std::allocator<int> >,class std::vector<int,class std::allocator<int> >,bool (__cdecl*)(class std::vector<int,class std::allocator<int> > const &,class std::vector<int,class std::allocator<int> > const &))
 ?_Unguarded_partition@std@@YAPAV?$vector@HV?$allocator@H@std@@@1@PAV21@0V21@P6A_NABV21@2@Z@Z @ 1639 NONAME ; class std::vector<int,class std::allocator<int> > * __cdecl std::_Unguarded_partition(class std::vector<int,class std::allocator<int> > *,class std::vector<int,class std::allocator<int> > *,class std::vector<int,class std::allocator<int> >,bool (__cdecl*)(class std::vector<int,class std::allocator<int> > const &,class std::vector<int,class std::allocator<int> > const &))
 ?_Insertion_sort_1@std@@YAXPAU?$pair@PAVOBAtom@OpenBabel@@I@1@0P6A_NABU21@1@Z0@Z @ 1640 NONAME ; void __cdecl std::_Insertion_sort_1(struct std::pair<class OpenBabel::OBAtom *,unsigned int> *,struct std::pair<class OpenBabel::OBAtom *,unsigned int> *,bool (__cdecl*)(struct std::pair<class OpenBabel::OBAtom *,unsigned int> const &,struct std::pair<class OpenBabel::OBAtom *,unsigned int> const &),struct std::pair<class OpenBabel::OBAtom *,unsigned int> *)
 ?_Median@std@@YA?AU?$pair@PAVOBAtom@OpenBabel@@I@1@U21@00P6A_NABU21@1@Z@Z @ 1641 NONAME ; struct std::pair<class OpenBabel::OBAtom *,unsigned int> __cdecl std::_Median(struct std::pair<class OpenBabel::OBAtom *,unsigned int>,struct std::pair<class OpenBabel::OBAtom *,unsigned int>,struct std::pair<class OpenBabel::OBAtom *,unsigned int>,bool (__cdecl*)(struct std::pair<class OpenBabel::OBAtom *,unsigned int> const &,struct std::pair<class OpenBabel::OBAtom *,unsigned int> const &))
 ?_Unguarded_partition@std@@YAPAU?$pair@PAVOBAtom@OpenBabel@@I@1@PAU21@0U21@P6A_NABU21@2@Z@Z @ 1642 NONAME ; struct std::pair<class OpenBabel::OBAtom *,unsigned int> * __cdecl std::_Unguarded_partition(struct std::pair<class OpenBabel::OBAtom *,unsigned int> *,struct std::pair<class OpenBabel::OBAtom *,unsigned int> *,struct std::pair<class OpenBabel::OBAtom *,unsigned int>,bool (__cdecl*)(struct std::pair<class OpenBabel::OBAtom *,unsigned int> const &,struct std::pair<class OpenBabel::OBAtom *,unsigned int> const &))
 ?_Insertion_sort_1@std@@YAXPAI0P6A_NABI1@Z0@Z @ 1643 NONAME ; void __cdecl std::_Insertion_sort_1(unsigned int *,unsigned int *,bool (__cdecl*)(unsigned int const &,unsigned int const &),unsigned int *)
 ?_Median@std@@YAIIIIP6A_NABI0@Z@Z @ 1644 NONAME ; unsigned int __cdecl std::_Median(unsigned int,unsigned int,unsigned int,bool (__cdecl*)(unsigned int const &,unsigned int const &))
 ?_Unguarded_partition@std@@YAPAIPAI0IP6A_NABI1@Z@Z @ 1645 NONAME ; unsigned int * __cdecl std::_Unguarded_partition(unsigned int *,unsigned int *,unsigned int,bool (__cdecl*)(unsigned int const &,unsigned int const &))
 ?_Insertion_sort_1@std@@YAXPAU?$pair@PAVOBAtom@OpenBabel@@N@1@0P6A_NABU21@1@Z0@Z @ 1646 NONAME ; void __cdecl std::_Insertion_sort_1(struct std::pair<class OpenBabel::OBAtom *,double> *,struct std::pair<class OpenBabel::OBAtom *,double> *,bool (__cdecl*)(struct std::pair<class OpenBabel::OBAtom *,double> const &,struct std::pair<class OpenBabel::OBAtom *,double> const &),struct std::pair<class OpenBabel::OBAtom *,double> *)
 ?_Median@std@@YA?AU?$pair@PAVOBAtom@OpenBabel@@N@1@U21@00P6A_NABU21@1@Z@Z @ 1647 NONAME ; struct std::pair<class OpenBabel::OBAtom *,double> __cdecl std::_Median(struct std::pair<class OpenBabel::OBAtom *,double>,struct std::pair<class OpenBabel::OBAtom *,double>,struct std::pair<class OpenBabel::OBAtom *,double>,bool (__cdecl*)(struct std::pair<class OpenBabel::OBAtom *,double> const &,struct std::pair<class OpenBabel::OBAtom *,double> const &))
 ?_Unguarded_partition@std@@YAPAU?$pair@PAVOBAtom@OpenBabel@@N@1@PAU21@0U21@P6A_NABU21@2@Z@Z @ 1648 NONAME ; struct std::pair<class OpenBabel::OBAtom *,double> * __cdecl std::_Unguarded_partition(struct std::pair<class OpenBabel::OBAtom *,double> *,struct std::pair<class OpenBabel::OBAtom *,double> *,struct std::pair<class OpenBabel::OBAtom *,double>,bool (__cdecl*)(struct std::pair<class OpenBabel::OBAtom *,double> const &,struct std::pair<class OpenBabel::OBAtom *,double> const &))
 ?iter_swap@std@@YAXPAV?$vector@HV?$allocator@H@std@@@1@0@Z @ 1649 NONAME ; void __cdecl std::iter_swap(class std::vector<int,class std::allocator<int> > *,class std::vector<int,class std::allocator<int> > *)
 ?iter_swap@std@@YAXPAU?$pair@PAVOBAtom@OpenBabel@@I@1@0@Z @ 1650 NONAME ; void __cdecl std::iter_swap(struct std::pair<class OpenBabel::OBAtom *,unsigned int> *,struct std::pair<class OpenBabel::OBAtom *,unsigned int> *)
 ?iter_swap@std@@YAXPAI0@Z @ 1651 NONAME ; void __cdecl std::iter_swap(unsigned int *,unsigned int *)
 ?iter_swap@std@@YAXPAU?$pair@PAVOBAtom@OpenBabel@@N@1@0@Z @ 1652 NONAME ; void __cdecl std::iter_swap(struct std::pair<class OpenBabel::OBAtom *,double> *,struct std::pair<class OpenBabel::OBAtom *,double> *)
 ?_Iter_swap@std@@YAXPAV?$vector@HV?$allocator@H@std@@@1@00@Z @ 1653 NONAME ; void __cdecl std::_Iter_swap(class std::vector<int,class std::allocator<int> > *,class std::vector<int,class std::allocator<int> > *,class std::vector<int,class std::allocator<int> > *)
 ?_Iter_swap@std@@YAXPAU?$pair@PAVOBAtom@OpenBabel@@I@1@00@Z @ 1654 NONAME ; void __cdecl std::_Iter_swap(struct std::pair<class OpenBabel::OBAtom *,unsigned int> *,struct std::pair<class OpenBabel::OBAtom *,unsigned int> *,struct std::pair<class OpenBabel::OBAtom *,unsigned int> *)
 ?_Iter_swap@std@@YAXPAI00@Z @ 1655 NONAME ; void __cdecl std::_Iter_swap(unsigned int *,unsigned int *,unsigned int *)
 ?_Iter_swap@std@@YAXPAU?$pair@PAVOBAtom@OpenBabel@@N@1@00@Z @ 1656 NONAME ; void __cdecl std::_Iter_swap(struct std::pair<class OpenBabel::OBAtom *,double> *,struct std::pair<class OpenBabel::OBAtom *,double> *,struct std::pair<class OpenBabel::OBAtom *,double> *)
 ?AssignPartialCharges@OBGastChrg@OpenBabel@@QAE_NAAVOBMol@2@@Z @ 1657 NONAME ; public: bool __thiscall OpenBabel::OBGastChrg::AssignPartialCharges(class OpenBabel::OBMol &)
 ?SetValues@GasteigerState@OpenBabel@@QAEXNNNN@Z @ 1658 NONAME ; public: void __thiscall OpenBabel::GasteigerState::SetValues(double,double,double,double)
 ?InitialPartialCharges@OBGastChrg@OpenBabel@@AAEXAAVOBMol@2@@Z @ 1659 NONAME ; private: void __thiscall OpenBabel::OBGastChrg::InitialPartialCharges(class OpenBabel::OBMol &)
 ?GasteigerSigmaChi@OBGastChrg@OpenBabel@@AAE_NPAVOBAtom@2@AAN11@Z @ 1660 NONAME ; private: bool __thiscall OpenBabel::OBGastChrg::GasteigerSigmaChi(class OpenBabel::OBAtom *,double &,double &,double &)
 ?GSVResize@OBGastChrg@OpenBabel@@QAEXH@Z @ 1661 NONAME ; public: void __thiscall OpenBabel::OBGastChrg::GSVResize(int)
 ??1GasteigerState@OpenBabel@@QAE@XZ @ 1662 NONAME ; public: __thiscall OpenBabel::GasteigerState::~GasteigerState(void)
 ??1OBGastChrg@OpenBabel@@QAE@XZ @ 1663 NONAME ; public: __thiscall OpenBabel::OBGastChrg::~OBGastChrg(void)
 ??0GasteigerState@OpenBabel@@QAE@XZ @ 1664 NONAME ; public: __thiscall OpenBabel::GasteigerState::GasteigerState(void)
 ??1?$vector@PAVGasteigerState@OpenBabel@@V?$allocator@PAVGasteigerState@OpenBabel@@@std@@@std@@QAE@XZ @ 1665 NONAME ; public: __thiscall std::vector<class OpenBabel::GasteigerState *,class std::allocator<class OpenBabel::GasteigerState *> >::~vector<class OpenBabel::GasteigerState *,class std::allocator<class OpenBabel::GasteigerState *> >(void)
 ?begin@?$vector@PAVGasteigerState@OpenBabel@@V?$allocator@PAVGasteigerState@OpenBabel@@@std@@@std@@QAEPAPAVGasteigerState@OpenBabel@@XZ @ 1666 NONAME ; public: class OpenBabel::GasteigerState * * __thiscall std::vector<class OpenBabel::GasteigerState *,class std::allocator<class OpenBabel::GasteigerState *> >::begin(void)
 ?end@?$vector@PAVGasteigerState@OpenBabel@@V?$allocator@PAVGasteigerState@OpenBabel@@@std@@@std@@QAEPAPAVGasteigerState@OpenBabel@@XZ @ 1667 NONAME ; public: class OpenBabel::GasteigerState * * __thiscall std::vector<class OpenBabel::GasteigerState *,class std::allocator<class OpenBabel::GasteigerState *> >::end(void)
 ?size@?$vector@PAVGasteigerState@OpenBabel@@V?$allocator@PAVGasteigerState@OpenBabel@@@std@@@std@@QBEIXZ @ 1668 NONAME ; public: unsigned int __thiscall std::vector<class OpenBabel::GasteigerState *,class std::allocator<class OpenBabel::GasteigerState *> >::size(void)const 
 ??A?$vector@PAVGasteigerState@OpenBabel@@V?$allocator@PAVGasteigerState@OpenBabel@@@std@@@std@@QAEAAPAVGasteigerState@OpenBabel@@I@Z @ 1669 NONAME ; public: class OpenBabel::GasteigerState * & __thiscall std::vector<class OpenBabel::GasteigerState *,class std::allocator<class OpenBabel::GasteigerState *> >::operator[](unsigned int)
 ?push_back@?$vector@PAVGasteigerState@OpenBabel@@V?$allocator@PAVGasteigerState@OpenBabel@@@std@@@std@@QAEXABQAVGasteigerState@OpenBabel@@@Z @ 1670 NONAME ; public: void __thiscall std::vector<class OpenBabel::GasteigerState *,class std::allocator<class OpenBabel::GasteigerState *> >::push_back(class OpenBabel::GasteigerState * const &)
 ?clear@?$vector@PAVGasteigerState@OpenBabel@@V?$allocator@PAVGasteigerState@OpenBabel@@@std@@@std@@QAEXXZ @ 1671 NONAME ; public: void __thiscall std::vector<class OpenBabel::GasteigerState *,class std::allocator<class OpenBabel::GasteigerState *> >::clear(void)
 ?insert@?$vector@PAVGasteigerState@OpenBabel@@V?$allocator@PAVGasteigerState@OpenBabel@@@std@@@std@@QAEPAPAVGasteigerState@OpenBabel@@PAPAV34@ABQAV34@@Z @ 1672 NONAME ; public: class OpenBabel::GasteigerState * * __thiscall std::vector<class OpenBabel::GasteigerState *,class std::allocator<class OpenBabel::GasteigerState *> >::insert(class OpenBabel::GasteigerState * *,class OpenBabel::GasteigerState * const &)
 ?erase@?$vector@PAVGasteigerState@OpenBabel@@V?$allocator@PAVGasteigerState@OpenBabel@@@std@@@std@@QAEPAPAVGasteigerState@OpenBabel@@PAPAV34@0@Z @ 1673 NONAME ; public: class OpenBabel::GasteigerState * * __thiscall std::vector<class OpenBabel::GasteigerState *,class std::allocator<class OpenBabel::GasteigerState *> >::erase(class OpenBabel::GasteigerState * *,class OpenBabel::GasteigerState * *)
 ?_Destroy@?$vector@PAVGasteigerState@OpenBabel@@V?$allocator@PAVGasteigerState@OpenBabel@@@std@@@std@@IAEXPAPAVGasteigerState@OpenBabel@@0@Z @ 1674 NONAME ; protected: void __thiscall std::vector<class OpenBabel::GasteigerState *,class std::allocator<class OpenBabel::GasteigerState *> >::_Destroy(class OpenBabel::GasteigerState * *,class OpenBabel::GasteigerState * *)
 ?deallocate@?$allocator@PAVGasteigerState@OpenBabel@@@std@@QAEXPAXI@Z @ 1675 NONAME ; public: void __thiscall std::allocator<class OpenBabel::GasteigerState *>::deallocate(void *,unsigned int)
 ?insert@?$vector@PAVGasteigerState@OpenBabel@@V?$allocator@PAVGasteigerState@OpenBabel@@@std@@@std@@QAEXPAPAVGasteigerState@OpenBabel@@IABQAV34@@Z @ 1676 NONAME ; public: void __thiscall std::vector<class OpenBabel::GasteigerState *,class std::allocator<class OpenBabel::GasteigerState *> >::insert(class OpenBabel::GasteigerState * *,unsigned int,class OpenBabel::GasteigerState * const &)
 ?destroy@?$allocator@PAVGasteigerState@OpenBabel@@@std@@QAEXPAPAVGasteigerState@OpenBabel@@@Z @ 1677 NONAME ; public: void __thiscall std::allocator<class OpenBabel::GasteigerState *>::destroy(class OpenBabel::GasteigerState * *)
 ?_Ucopy@?$vector@PAVGasteigerState@OpenBabel@@V?$allocator@PAVGasteigerState@OpenBabel@@@std@@@std@@IAEPAPAVGasteigerState@OpenBabel@@PBQAV34@0PAPAV34@@Z @ 1678 NONAME ; protected: class OpenBabel::GasteigerState * * __thiscall std::vector<class OpenBabel::GasteigerState *,class std::allocator<class OpenBabel::GasteigerState *> >::_Ucopy(class OpenBabel::GasteigerState * const *,class OpenBabel::GasteigerState * const *,class OpenBabel::GasteigerState * *)
 ?_Ufill@?$vector@PAVGasteigerState@OpenBabel@@V?$allocator@PAVGasteigerState@OpenBabel@@@std@@@std@@IAEXPAPAVGasteigerState@OpenBabel@@IABQAV34@@Z @ 1679 NONAME ; protected: void __thiscall std::vector<class OpenBabel::GasteigerState *,class std::allocator<class OpenBabel::GasteigerState *> >::_Ufill(class OpenBabel::GasteigerState * *,unsigned int,class OpenBabel::GasteigerState * const &)
 ?allocate@?$allocator@PAVGasteigerState@OpenBabel@@@std@@QAEPAPAVGasteigerState@OpenBabel@@IPBX@Z @ 1680 NONAME ; public: class OpenBabel::GasteigerState * * __thiscall std::allocator<class OpenBabel::GasteigerState *>::allocate(unsigned int,void const *)
 ?construct@?$allocator@PAVGasteigerState@OpenBabel@@@std@@QAEXPAPAVGasteigerState@OpenBabel@@ABQAV34@@Z @ 1681 NONAME ; public: void __thiscall std::allocator<class OpenBabel::GasteigerState *>::construct(class OpenBabel::GasteigerState * *,class OpenBabel::GasteigerState * const &)
 ?copy@std@@YAPAPAVGasteigerState@OpenBabel@@PAPAV23@00@Z @ 1682 NONAME ; class OpenBabel::GasteigerState * * __cdecl std::copy(class OpenBabel::GasteigerState * *,class OpenBabel::GasteigerState * *,class OpenBabel::GasteigerState * *)
 ?fill@std@@YAXPAPAVGasteigerState@OpenBabel@@0ABQAV23@@Z @ 1683 NONAME ; void __cdecl std::fill(class OpenBabel::GasteigerState * *,class OpenBabel::GasteigerState * *,class OpenBabel::GasteigerState * const &)
 ?copy_backward@std@@YAPAPAVGasteigerState@OpenBabel@@PAPAV23@00@Z @ 1684 NONAME ; class OpenBabel::GasteigerState * * __cdecl std::copy_backward(class OpenBabel::GasteigerState * *,class OpenBabel::GasteigerState * *,class OpenBabel::GasteigerState * *)
 ?_Destroy@std@@YAXPAPAVGasteigerState@OpenBabel@@@Z @ 1685 NONAME ; void __cdecl std::_Destroy(class OpenBabel::GasteigerState * *)
 ?_Allocate@std@@YAPAPAVGasteigerState@OpenBabel@@HPAPAV23@@Z @ 1686 NONAME ; class OpenBabel::GasteigerState * * __cdecl std::_Allocate(int,class OpenBabel::GasteigerState * *)
 ?_Construct@std@@YAXPAPAVGasteigerState@OpenBabel@@ABQAV23@@Z @ 1687 NONAME ; void __cdecl std::_Construct(class OpenBabel::GasteigerState * *,class OpenBabel::GasteigerState * const &)
 ??0OBError@OpenBabel@@QAE@ABV?$basic_string@DU?$char_traits@D@std@@V?$allocator@D@2@@std@@0000@Z @ 1688 NONAME ; public: __thiscall OpenBabel::OBError::OBError(class std::basic_string<char,struct std::char_traits<char>,class std::allocator<char> > const &,class std::basic_string<char,struct std::char_traits<char>,class std::allocator<char> > const &,class std::basic_string<char,struct std::char_traits<char>,class std::allocator<char> > const &,class std::basic_string<char,struct std::char_traits<char>,class std::allocator<char> > const &,class std::basic_string<char,struct std::char_traits<char>,class std::allocator<
 ?message@OBError@OpenBabel@@QBE?AV?$basic_string@DU?$char_traits@D@std@@V?$allocator@D@2@@std@@XZ @ 1689 NONAME ; public: class std::basic_string<char,struct std::char_traits<char>,class std::allocator<char> > __thiscall OpenBabel::OBError::message(void)const 
 ?ThrowError@OpenBabel@@YAXPAD@Z @ 1690 NONAME ; void __cdecl OpenBabel::ThrowError(char *)
 ?ThrowError@OpenBabel@@YAXAAV?$basic_string@DU?$char_traits@D@std@@V?$allocator@D@2@@std@@@Z @ 1691 NONAME ; void __cdecl OpenBabel::ThrowError(class std::basic_string<char,struct std::char_traits<char>,class std::allocator<char> > &)
 ?PauseExit@OpenBabel@@YAXXZ @ 1692 NONAME ; void __cdecl OpenBabel::PauseExit(void)
 ?OBCompareInt@OpenBabel@@YA_NABH0@Z @ 1693 NONAME ; bool __cdecl OpenBabel::OBCompareInt(int const &,int const &)
 ?OBCompareUnsigned@OpenBabel@@YA_NABI0@Z @ 1694 NONAME ; bool __cdecl OpenBabel::OBCompareUnsigned(unsigned int const &,unsigned int const &)
 ?IsNear@OpenBabel@@YA_NABN0N@Z @ 1695 NONAME ; bool __cdecl OpenBabel::IsNear(double const &,double const &,double)
 ?IsNearZero@OpenBabel@@YA_NABNN@Z @ 1696 NONAME ; bool __cdecl OpenBabel::IsNearZero(double const &,double)
 ?NewExtension@OpenBabel@@YA?AV?$basic_string@DU?$char_traits@D@std@@V?$allocator@D@2@@std@@AAV23@PAD@Z @ 1697 NONAME ; class std::basic_string<char,struct std::char_traits<char>,class std::allocator<char> > __cdecl OpenBabel::NewExtension(class std::basic_string<char,struct std::char_traits<char>,class std::allocator<char> > &,char *)
 ?center_coords@OpenBabel@@YA?AVvector3@1@PANH@Z @ 1698 NONAME ; class OpenBabel::vector3 __cdecl OpenBabel::center_coords(double *,int)
 ?rotate_coords@OpenBabel@@YAXPANQAY02NH@Z @ 1699 NONAME ; void __cdecl OpenBabel::rotate_coords(double *,double (* const)[3],int)
 ?calc_rms@OpenBabel@@YANPAN0H@Z @ 1700 NONAME ; double __cdecl OpenBabel::calc_rms(double *,double *,int)
 ?SetRotorToAngle@OpenBabel@@YAXPANAAV?$vector@HV?$allocator@H@std@@@std@@N1@Z @ 1701 NONAME ; void __cdecl OpenBabel::SetRotorToAngle(double *,class std::vector<int,class std::allocator<int> > &,double,class std::vector<int,class std::allocator<int> > &)
 ?SafeOpen@OpenBabel@@YA_NAAV?$basic_ifstream@DU?$char_traits@D@std@@@std@@PAD@Z @ 1702 NONAME ; bool __cdecl OpenBabel::SafeOpen(class std::basic_ifstream<char,struct std::char_traits<char> > &,char *)
 ?SafeOpen@OpenBabel@@YA_NAAVobifstream@@PAD@Z @ 1703 NONAME ; bool __cdecl OpenBabel::SafeOpen(class obifstream &,char *)
 ?SafeOpen@OpenBabel@@YA_NAAV?$basic_ofstream@DU?$char_traits@D@std@@@std@@PAD@Z @ 1704 NONAME ; bool __cdecl OpenBabel::SafeOpen(class std::basic_ofstream<char,struct std::char_traits<char> > &,char *)
 ?SafeOpen@OpenBabel@@YA_NAAV?$basic_ifstream@DU?$char_traits@D@std@@@std@@AAV?$basic_string@DU?$char_traits@D@std@@V?$allocator@D@2@@3@@Z @ 1705 NONAME ; bool __cdecl OpenBabel::SafeOpen(class std::basic_ifstream<char,struct std::char_traits<char> > &,class std::basic_string<char,struct std::char_traits<char>,class std::allocator<char> > &)
 ?SafeOpen@OpenBabel@@YA_NAAVobifstream@@AAV?$basic_string@DU?$char_traits@D@std@@V?$allocator@D@2@@std@@@Z @ 1706 NONAME ; bool __cdecl OpenBabel::SafeOpen(class obifstream &,class std::basic_string<char,struct std::char_traits<char>,class std::allocator<char> > &)
 ?SafeOpen@OpenBabel@@YA_NAAV?$basic_ofstream@DU?$char_traits@D@std@@@std@@AAV?$basic_string@DU?$char_traits@D@std@@V?$allocator@D@2@@3@@Z @ 1707 NONAME ; bool __cdecl OpenBabel::SafeOpen(class std::basic_ofstream<char,struct std::char_traits<char> > &,class std::basic_string<char,struct std::char_traits<char>,class std::allocator<char> > &)
 ?ToUpper@OpenBabel@@YAXAAV?$basic_string@DU?$char_traits@D@std@@V?$allocator@D@2@@std@@@Z @ 1708 NONAME ; void __cdecl OpenBabel::ToUpper(class std::basic_string<char,struct std::char_traits<char>,class std::allocator<char> > &)
 ?ToUpper@OpenBabel@@YAXPAD@Z @ 1709 NONAME ; void __cdecl OpenBabel::ToUpper(char *)
 ?ToLower@OpenBabel@@YAXAAV?$basic_string@DU?$char_traits@D@std@@V?$allocator@D@2@@std@@@Z @ 1710 NONAME ; void __cdecl OpenBabel::ToLower(class std::basic_string<char,struct std::char_traits<char>,class std::allocator<char> > &)
 ?ToLower@OpenBabel@@YAXPAD@Z @ 1711 NONAME ; void __cdecl OpenBabel::ToLower(char *)
 ?CleanAtomType@OpenBabel@@YAXPAD@Z @ 1712 NONAME ; void __cdecl OpenBabel::CleanAtomType(char *)
 ?InternalToCartesian@OpenBabel@@YAXAAV?$vector@PAVOBInternalCoord@OpenBabel@@V?$allocator@PAVOBInternalCoord@OpenBabel@@@std@@@std@@AAVOBMol@1@@Z @ 1713 NONAME ; void __cdecl OpenBabel::InternalToCartesian(class std::vector<class OpenBabel::OBInternalCoord *,class std::allocator<class OpenBabel::OBInternalCoord *> > &,class OpenBabel::OBMol &)
 ?CartesianToInternal@OpenBabel@@YAXAAV?$vector@PAVOBInternalCoord@OpenBabel@@V?$allocator@PAVOBInternalCoord@OpenBabel@@@std@@@std@@AAVOBMol@1@@Z @ 1714 NONAME ; void __cdecl OpenBabel::CartesianToInternal(class std::vector<class OpenBabel::OBInternalCoord *,class std::allocator<class OpenBabel::OBInternalCoord *> > &,class OpenBabel::OBMol &)
 ?length_2@vector3@OpenBabel@@QBENXZ @ 1715 NONAME ; public: double __thiscall OpenBabel::vector3::length_2(void)const 
 ?qtrfit@OpenBabel@@YAXPAN0HQAY02N@Z @ 1716 NONAME ; void __cdecl OpenBabel::qtrfit(double *,double *,int,double (* const)[3])
 ?ob_make_rmat@OpenBabel@@YAXQAY02NQAN@Z @ 1717 NONAME ; void __cdecl OpenBabel::ob_make_rmat(double (* const)[3],double * const)
 ?superimpose@OpenBabel@@YANPAN0H@Z @ 1718 NONAME ; double __cdecl OpenBabel::superimpose(double *,double *,int)
 ?get_rmat@OpenBabel@@YAXPAN00H@Z @ 1719 NONAME ; void __cdecl OpenBabel::get_rmat(double *,double *,double *,int)
 ??A?$vector@PAVOBInternalCoord@OpenBabel@@V?$allocator@PAVOBInternalCoord@OpenBabel@@@std@@@std@@QAEAAPAVOBInternalCoord@OpenBabel@@I@Z @ 1720 NONAME ; public: class OpenBabel::OBInternalCoord * & __thiscall std::vector<class OpenBabel::OBInternalCoord *,class std::allocator<class OpenBabel::OBInternalCoord *> >::operator[](unsigned int)
 ?ParseSMARTSRecord@OpenBabel@@YAPAUPattern@1@PAD@Z @ 1721 NONAME ; struct OpenBabel::Pattern * __cdecl OpenBabel::ParseSMARTSRecord(char *)
 ?Init@OBSmartsPattern@OpenBabel@@QAE_NPBD@Z @ 1722 NONAME ; public: bool __thiscall OpenBabel::OBSmartsPattern::Init(char const *)
 ?Init@OBSmartsPattern@OpenBabel@@QAE_NABV?$basic_string@DU?$char_traits@D@std@@V?$allocator@D@2@@std@@@Z @ 1723 NONAME ; public: bool __thiscall OpenBabel::OBSmartsPattern::Init(class std::basic_string<char,struct std::char_traits<char>,class std::allocator<char> > const &)
 ??1OBSmartsPattern@OpenBabel@@UAE@XZ @ 1724 NONAME ; public: virtual __thiscall OpenBabel::OBSmartsPattern::~OBSmartsPattern(void)
 ?Match@OBSmartsPattern@OpenBabel@@QAE_NAAVOBMol@2@_N@Z @ 1725 NONAME ; public: bool __thiscall OpenBabel::OBSmartsPattern::Match(class OpenBabel::OBMol &,bool)
 ?RestrictedMatch@OBSmartsPattern@OpenBabel@@QAE_NAAVOBMol@2@AAV?$vector@U?$pair@HH@std@@V?$allocator@U?$pair@HH@std@@@2@@std@@_N@Z @ 1726 NONAME ; public: bool __thiscall OpenBabel::OBSmartsPattern::RestrictedMatch(class OpenBabel::OBMol &,class std::vector<struct std::pair<int,int>,class std::allocator<struct std::pair<int,int> > > &,bool)
 ?RestrictedMatch@OBSmartsPattern@OpenBabel@@QAE_NAAVOBMol@2@AAVOBBitVec@2@_N@Z @ 1727 NONAME ; public: bool __thiscall OpenBabel::OBSmartsPattern::RestrictedMatch(class OpenBabel::OBMol &,class OpenBabel::OBBitVec &,bool)
 ?SetupAtomMatchTable@OpenBabel@@YAXAAV?$vector@V?$vector@_NV?$allocator@_N@std@@@std@@V?$allocator@V?$vector@_NV?$allocator@_N@std@@@std@@@2@@std@@PAUPattern@1@AAVOBMol@1@@Z @ 1728 NONAME ; void __cdecl OpenBabel::SetupAtomMatchTable(class std::vector<class std::vector<bool,class std::allocator<bool> >,class std::allocator<class std::vector<bool,class std::allocator<bool> > > > &,struct OpenBabel::Pattern *,class OpenBabel::OBMol &)
 ??0OBBitVec@OpenBabel@@QAE@H@Z @ 1729 NONAME ; public: __thiscall OpenBabel::OBBitVec::OBBitVec(int)
 ??1?$pair@PAUPattern@OpenBabel@@V?$vector@_NV?$allocator@_N@std@@@std@@@std@@QAE@XZ @ 1730 NONAME ; public: __thiscall std::pair<struct OpenBabel::Pattern *,class std::vector<bool,class std::allocator<bool> > >::~pair<struct OpenBabel::Pattern *,class std::vector<bool,class std::allocator<bool> > >(void)
 ?GetUMapList@OBSmartsPattern@OpenBabel@@QAEAAV?$vector@V?$vector@HV?$allocator@H@std@@@std@@V?$allocator@V?$vector@HV?$allocator@H@std@@@std@@@2@@std@@XZ @ 1731 NONAME ; public: class std::vector<class std::vector<int,class std::allocator<int> >,class std::allocator<class std::vector<int,class std::allocator<int> > > > & __thiscall OpenBabel::OBSmartsPattern::GetUMapList(void)
 ?WriteMapList@OBSmartsPattern@OpenBabel@@QAEXAAV?$basic_ostream@DU?$char_traits@D@std@@@std@@@Z @ 1732 NONAME ; public: void __thiscall OpenBabel::OBSmartsPattern::WriteMapList(class std::basic_ostream<char,struct std::char_traits<char> > &)
 ??0OBSSMatch@OpenBabel@@QAE@AAVOBMol@1@PAUPattern@1@@Z @ 1733 NONAME ; public: __thiscall OpenBabel::OBSSMatch::OBSSMatch(class OpenBabel::OBMol &,struct OpenBabel::Pattern *)
 ??1OBSSMatch@OpenBabel@@QAE@XZ @ 1734 NONAME ; public: __thiscall OpenBabel::OBSSMatch::~OBSSMatch(void)
 ?Match@OBSSMatch@OpenBabel@@QAEXAAV?$vector@V?$vector@HV?$allocator@H@std@@@std@@V?$allocator@V?$vector@HV?$allocator@H@std@@@std@@@2@@std@@H@Z @ 1735 NONAME ; public: void __thiscall OpenBabel::OBSSMatch::Match(class std::vector<class std::vector<int,class std::allocator<int> >,class std::allocator<class std::vector<int,class std::allocator<int> > > > &,int)
 ?GetCharge@OBSmartsPattern@OpenBabel@@QAEHH@Z @ 1736 NONAME ; public: int __thiscall OpenBabel::OBSmartsPattern::GetCharge(int)
 ?GetAtomicNum@OBSmartsPattern@OpenBabel@@QAEHH@Z @ 1737 NONAME ; public: int __thiscall OpenBabel::OBSmartsPattern::GetAtomicNum(int)
 ?GetBond@OBSmartsPattern@OpenBabel@@QAEXAAH00H@Z @ 1738 NONAME ; public: void __thiscall OpenBabel::OBSmartsPattern::GetBond(int &,int &,int &,int)
 ?SmartsLexReplace@OpenBabel@@YAXAAV?$basic_string@DU?$char_traits@D@std@@V?$allocator@D@2@@std@@AAV?$vector@U?$pair@V?$basic_string@DU?$char_traits@D@std@@V?$allocator@D@2@@std@@V12@@std@@V?$allocator@U?$pair@V?$basic_string@DU?$char_traits@D@std@@V?$allocator@D@2@@std@@V12@@std@@@2@@3@@Z @ 1739 NONAME ; void __cdecl OpenBabel::SmartsLexReplace(class std::basic_string<char,struct std::char_traits<char>,class std::allocator<char> > &,class std::vector<struct std::pair<class std::basic_string<char,struct std::char_traits<char>,class std::allocator<char> >,class std::basic_string<char,struct std::char_traits<char>,class std::allocator<char> > >,class std::allocator<struct std::pair<class std::basic_string<char,struct std::char_traits<char>,class std::allocator<char> >,class std::basic_string<char,struct std::
 ??0?$vector@_NV?$allocator@_N@std@@@std@@QAE@IAB_NABV?$allocator@_N@1@@Z @ 1740 NONAME ; public: __thiscall std::vector<bool,class std::allocator<bool> >::vector<bool,class std::allocator<bool> >(unsigned int,bool const &,class std::allocator<bool> const &)
 ?clear@?$vector@V?$vector@HV?$allocator@H@std@@@std@@V?$allocator@V?$vector@HV?$allocator@H@std@@@std@@@2@@std@@QAEXXZ @ 1741 NONAME ; public: void __thiscall std::vector<class std::vector<int,class std::allocator<int> >,class std::allocator<class std::vector<int,class std::allocator<int> > > >::clear(void)
 ?begin@?$vector@U?$pair@HH@std@@V?$allocator@U?$pair@HH@std@@@2@@std@@QAEPAU?$pair@HH@2@XZ @ 1742 NONAME ; public: struct std::pair<int,int> * __thiscall std::vector<struct std::pair<int,int>,class std::allocator<struct std::pair<int,int> > >::begin(void)
 ?end@?$vector@U?$pair@HH@std@@V?$allocator@U?$pair@HH@std@@@2@@std@@QAEPAU?$pair@HH@2@XZ @ 1743 NONAME ; public: struct std::pair<int,int> * __thiscall std::vector<struct std::pair<int,int>,class std::allocator<struct std::pair<int,int> > >::end(void)
 ??0?$vector@U?$pair@PAUPattern@OpenBabel@@V?$vector@_NV?$allocator@_N@std@@@std@@@std@@V?$allocator@U?$pair@PAUPattern@OpenBabel@@V?$vector@_NV?$allocator@_N@std@@@std@@@std@@@2@@std@@QAE@ABV?$allocator@U?$pair@PAUPattern@OpenBabel@@V?$vector@_NV?$allocator@_N@std@@@std@@@std@@@1@@Z @ 1744 NONAME ; public: __thiscall std::vector<struct std::pair<struct OpenBabel::Pattern *,class std::vector<bool,class std::allocator<bool> > >,class std::allocator<struct std::pair<struct OpenBabel::Pattern *,class std::vector<bool,class std::allocator<bool> > > > >::vector<struct std::pair<struct OpenBabel::Pattern *,class std::vector<bool,class std::allocator<bool> > >,class std::allocator<struct std::pair<struct OpenBabel::Pattern *,class std::vector<bool,class std::allocator<bool> > > > >(class std::allocator<struc
 ??1?$vector@U?$pair@PAUPattern@OpenBabel@@V?$vector@_NV?$allocator@_N@std@@@std@@@std@@V?$allocator@U?$pair@PAUPattern@OpenBabel@@V?$vector@_NV?$allocator@_N@std@@@std@@@std@@@2@@std@@QAE@XZ @ 1745 NONAME ; public: __thiscall std::vector<struct std::pair<struct OpenBabel::Pattern *,class std::vector<bool,class std::allocator<bool> > >,class std::allocator<struct std::pair<struct OpenBabel::Pattern *,class std::vector<bool,class std::allocator<bool> > > > >::~vector<struct std::pair<struct OpenBabel::Pattern *,class std::vector<bool,class std::allocator<bool> > >,class std::allocator<struct std::pair<struct OpenBabel::Pattern *,class std::vector<bool,class std::allocator<bool> > > > >(void)
 ?begin@?$vector@U?$pair@PAUPattern@OpenBabel@@V?$vector@_NV?$allocator@_N@std@@@std@@@std@@V?$allocator@U?$pair@PAUPattern@OpenBabel@@V?$vector@_NV?$allocator@_N@std@@@std@@@std@@@2@@std@@QAEPAU?$pair@PAUPattern@OpenBabel@@V?$vector@_NV?$allocator@_N@std@@@std@@@2@XZ @ 1746 NONAME ; public: struct std::pair<struct OpenBabel::Pattern *,class std::vector<bool,class std::allocator<bool> > > * __thiscall std::vector<struct std::pair<struct OpenBabel::Pattern *,class std::vector<bool,class std::allocator<bool> > >,class std::allocator<struct std::pair<struct OpenBabel::Pattern *,class std::vector<bool,class std::allocator<bool> > > > >::begin(void)
 ?end@?$vector@U?$pair@PAUPattern@OpenBabel@@V?$vector@_NV?$allocator@_N@std@@@std@@@std@@V?$allocator@U?$pair@PAUPattern@OpenBabel@@V?$vector@_NV?$allocator@_N@std@@@std@@@std@@@2@@std@@QAEPAU?$pair@PAUPattern@OpenBabel@@V?$vector@_NV?$allocator@_N@std@@@std@@@2@XZ @ 1747 NONAME ; public: struct std::pair<struct OpenBabel::Pattern *,class std::vector<bool,class std::allocator<bool> > > * __thiscall std::vector<struct std::pair<struct OpenBabel::Pattern *,class std::vector<bool,class std::allocator<bool> > >,class std::allocator<struct std::pair<struct OpenBabel::Pattern *,class std::vector<bool,class std::allocator<bool> > > > >::end(void)
 ?push_back@?$vector@U?$pair@PAUPattern@OpenBabel@@V?$vector@_NV?$allocator@_N@std@@@std@@@std@@V?$allocator@U?$pair@PAUPattern@OpenBabel@@V?$vector@_NV?$allocator@_N@std@@@std@@@std@@@2@@std@@QAEXABU?$pair@PAUPattern@OpenBabel@@V?$vector@_NV?$allocator@_N@std@@@std@@@2@@Z @ 1748 NONAME ; public: void __thiscall std::vector<struct std::pair<struct OpenBabel::Pattern *,class std::vector<bool,class std::allocator<bool> > >,class std::allocator<struct std::pair<struct OpenBabel::Pattern *,class std::vector<bool,class std::allocator<bool> > > > >::push_back(struct std::pair<struct OpenBabel::Pattern *,class std::vector<bool,class std::allocator<bool> > > const &)
 ?clear@?$vector@U?$pair@PAUPattern@OpenBabel@@V?$vector@_NV?$allocator@_N@std@@@std@@@std@@V?$allocator@U?$pair@PAUPattern@OpenBabel@@V?$vector@_NV?$allocator@_N@std@@@std@@@std@@@2@@std@@QAEXXZ @ 1749 NONAME ; public: void __thiscall std::vector<struct std::pair<struct OpenBabel::Pattern *,class std::vector<bool,class std::allocator<bool> > >,class std::allocator<struct std::pair<struct OpenBabel::Pattern *,class std::vector<bool,class std::allocator<bool> > > > >::clear(void)
 ?resize@?$vector@V?$vector@_NV?$allocator@_N@std@@@std@@V?$allocator@V?$vector@_NV?$allocator@_N@std@@@std@@@2@@std@@QAEXIABV?$vector@_NV?$allocator@_N@std@@@2@@Z @ 1750 NONAME ; public: void __thiscall std::vector<class std::vector<bool,class std::allocator<bool> >,class std::allocator<class std::vector<bool,class std::allocator<bool> > > >::resize(unsigned int,class std::vector<bool,class std::allocator<bool> > const &)
 ??A?$vector@V?$vector@_NV?$allocator@_N@std@@@std@@V?$allocator@V?$vector@_NV?$allocator@_N@std@@@std@@@2@@std@@QAEAAV?$vector@_NV?$allocator@_N@std@@@1@I@Z @ 1751 NONAME ; public: class std::vector<bool,class std::allocator<bool> > & __thiscall std::vector<class std::vector<bool,class std::allocator<bool> >,class std::allocator<class std::vector<bool,class std::allocator<bool> > > >::operator[](unsigned int)
 ??0?$vector@PAPAVOBEdgeBase@OpenBabel@@V?$allocator@PAPAVOBEdgeBase@OpenBabel@@@std@@@std@@QAE@ABV?$allocator@PAPAVOBEdgeBase@OpenBabel@@@1@@Z @ 1752 NONAME ; public: __thiscall std::vector<class OpenBabel::OBEdgeBase * *,class std::allocator<class OpenBabel::OBEdgeBase * *> >::vector<class OpenBabel::OBEdgeBase * *,class std::allocator<class OpenBabel::OBEdgeBase * *> >(class std::allocator<class OpenBabel::OBEdgeBase * *> const &)
 ??1?$vector@PAPAVOBEdgeBase@OpenBabel@@V?$allocator@PAPAVOBEdgeBase@OpenBabel@@@std@@@std@@QAE@XZ @ 1753 NONAME ; public: __thiscall std::vector<class OpenBabel::OBEdgeBase * *,class std::allocator<class OpenBabel::OBEdgeBase * *> >::~vector<class OpenBabel::OBEdgeBase * *,class std::allocator<class OpenBabel::OBEdgeBase * *> >(void)
 ?resize@?$vector@PAPAVOBEdgeBase@OpenBabel@@V?$allocator@PAPAVOBEdgeBase@OpenBabel@@@std@@@std@@QAEXIABQAPAVOBEdgeBase@OpenBabel@@@Z @ 1754 NONAME ; public: void __thiscall std::vector<class OpenBabel::OBEdgeBase * *,class std::allocator<class OpenBabel::OBEdgeBase * *> >::resize(unsigned int,class OpenBabel::OBEdgeBase * * const &)
 ??A?$vector@PAPAVOBEdgeBase@OpenBabel@@V?$allocator@PAPAVOBEdgeBase@OpenBabel@@@std@@@std@@QAEAAPAPAVOBEdgeBase@OpenBabel@@I@Z @ 1755 NONAME ; public: class OpenBabel::OBEdgeBase * * & __thiscall std::vector<class OpenBabel::OBEdgeBase * *,class std::allocator<class OpenBabel::OBEdgeBase * *> >::operator[](unsigned int)
 ??0?$pair@PAUPattern@OpenBabel@@V?$vector@_NV?$allocator@_N@std@@@std@@@std@@QAE@ABQAUPattern@OpenBabel@@ABV?$vector@_NV?$allocator@_N@std@@@1@@Z @ 1756 NONAME ; public: __thiscall std::pair<struct OpenBabel::Pattern *,class std::vector<bool,class std::allocator<bool> > >::pair<struct OpenBabel::Pattern *,class std::vector<bool,class std::allocator<bool> > >(struct OpenBabel::Pattern * const &,class std::vector<bool,class std::allocator<bool> > const &)
 ??0?$vector@VOBBitVec@OpenBabel@@V?$allocator@VOBBitVec@OpenBabel@@@std@@@std@@QAE@ABV?$allocator@VOBBitVec@OpenBabel@@@1@@Z @ 1757 NONAME ; public: __thiscall std::vector<class OpenBabel::OBBitVec,class std::allocator<class OpenBabel::OBBitVec> >::vector<class OpenBabel::OBBitVec,class std::allocator<class OpenBabel::OBBitVec> >(class std::allocator<class OpenBabel::OBBitVec> const &)
 ??1?$vector@VOBBitVec@OpenBabel@@V?$allocator@VOBBitVec@OpenBabel@@@std@@@std@@QAE@XZ @ 1758 NONAME ; public: __thiscall std::vector<class OpenBabel::OBBitVec,class std::allocator<class OpenBabel::OBBitVec> >::~vector<class OpenBabel::OBBitVec,class std::allocator<class OpenBabel::OBBitVec> >(void)
 ?begin@?$vector@VOBBitVec@OpenBabel@@V?$allocator@VOBBitVec@OpenBabel@@@std@@@std@@QAEPAVOBBitVec@OpenBabel@@XZ @ 1759 NONAME ; public: class OpenBabel::OBBitVec * __thiscall std::vector<class OpenBabel::OBBitVec,class std::allocator<class OpenBabel::OBBitVec> >::begin(void)
 ?end@?$vector@VOBBitVec@OpenBabel@@V?$allocator@VOBBitVec@OpenBabel@@@std@@@std@@QAEPAVOBBitVec@OpenBabel@@XZ @ 1760 NONAME ; public: class OpenBabel::OBBitVec * __thiscall std::vector<class OpenBabel::OBBitVec,class std::allocator<class OpenBabel::OBBitVec> >::end(void)
 ?push_back@?$vector@VOBBitVec@OpenBabel@@V?$allocator@VOBBitVec@OpenBabel@@@std@@@std@@QAEXABVOBBitVec@OpenBabel@@@Z @ 1761 NONAME ; public: void __thiscall std::vector<class OpenBabel::OBBitVec,class std::allocator<class OpenBabel::OBBitVec> >::push_back(class OpenBabel::OBBitVec const &)
 ?begin@?$vector@U?$pair@V?$basic_string@DU?$char_traits@D@std@@V?$allocator@D@2@@std@@V12@@std@@V?$allocator@U?$pair@V?$basic_string@DU?$char_traits@D@std@@V?$allocator@D@2@@std@@V12@@std@@@2@@std@@QAEPAU?$pair@V?$basic_string@DU?$char_traits@D@std@@V?$allocator@D@2@@std@@V12@@2@XZ @ 1762 NONAME ; public: struct std::pair<class std::basic_string<char,struct std::char_traits<char>,class std::allocator<char> >,class std::basic_string<char,struct std::char_traits<char>,class std::allocator<char> > > * __thiscall std::vector<struct std::pair<class std::basic_string<char,struct std::char_traits<char>,class std::allocator<char> >,class std::basic_string<char,struct std::char_traits<char>,class std::allocator<char> > >,class std::allocator<struct std::pair<class std::basic_string<char,struct std::char_trai
 ?end@?$vector@U?$pair@V?$basic_string@DU?$char_traits@D@std@@V?$allocator@D@2@@std@@V12@@std@@V?$allocator@U?$pair@V?$basic_string@DU?$char_traits@D@std@@V?$allocator@D@2@@std@@V12@@std@@@2@@std@@QAEPAU?$pair@V?$basic_string@DU?$char_traits@D@std@@V?$allocator@D@2@@std@@V12@@2@XZ @ 1763 NONAME ; public: struct std::pair<class std::basic_string<char,struct std::char_traits<char>,class std::allocator<char> >,class std::basic_string<char,struct std::char_traits<char>,class std::allocator<char> > > * __thiscall std::vector<struct std::pair<class std::basic_string<char,struct std::char_traits<char>,class std::allocator<char> >,class std::basic_string<char,struct std::char_traits<char>,class std::allocator<char> > >,class std::allocator<struct std::pair<class std::basic_string<char,struct std::char_trai
 ??0?$vector@_NV?$allocator@_N@std@@@std@@QAE@ABV01@@Z @ 1764 NONAME ; public: __thiscall std::vector<bool,class std::allocator<bool> >::vector<bool,class std::allocator<bool> >(class std::vector<bool,class std::allocator<bool> > const &)
 ?insert@?$vector@U?$pair@PAUPattern@OpenBabel@@V?$vector@_NV?$allocator@_N@std@@@std@@@std@@V?$allocator@U?$pair@PAUPattern@OpenBabel@@V?$vector@_NV?$allocator@_N@std@@@std@@@std@@@2@@std@@QAEPAU?$pair@PAUPattern@OpenBabel@@V?$vector@_NV?$allocator@_N@std@@@std@@@2@PAU32@ABU32@@Z @ 1765 NONAME ; public: struct std::pair<struct OpenBabel::Pattern *,class std::vector<bool,class std::allocator<bool> > > * __thiscall std::vector<struct std::pair<struct OpenBabel::Pattern *,class std::vector<bool,class std::allocator<bool> > >,class std::allocator<struct std::pair<struct OpenBabel::Pattern *,class std::vector<bool,class std::allocator<bool> > > > >::insert(struct std::pair<struct OpenBabel::Pattern *,class std::vector<bool,class std::allocator<bool> > > *,struct std::pair<struct OpenBabel::Pattern *,cl
 ?erase@?$vector@U?$pair@PAUPattern@OpenBabel@@V?$vector@_NV?$allocator@_N@std@@@std@@@std@@V?$allocator@U?$pair@PAUPattern@OpenBabel@@V?$vector@_NV?$allocator@_N@std@@@std@@@std@@@2@@std@@QAEPAU?$pair@PAUPattern@OpenBabel@@V?$vector@_NV?$allocator@_N@std@@@std@@@2@PAU32@0@Z @ 1766 NONAME ; public: struct std::pair<struct OpenBabel::Pattern *,class std::vector<bool,class std::allocator<bool> > > * __thiscall std::vector<struct std::pair<struct OpenBabel::Pattern *,class std::vector<bool,class std::allocator<bool> > >,class std::allocator<struct std::pair<struct OpenBabel::Pattern *,class std::vector<bool,class std::allocator<bool> > > > >::erase(struct std::pair<struct OpenBabel::Pattern *,class std::vector<bool,class std::allocator<bool> > > *,struct std::pair<struct OpenBabel::Pattern *,cla
 ?_Destroy@?$vector@U?$pair@PAUPattern@OpenBabel@@V?$vector@_NV?$allocator@_N@std@@@std@@@std@@V?$allocator@U?$pair@PAUPattern@OpenBabel@@V?$vector@_NV?$allocator@_N@std@@@std@@@std@@@2@@std@@IAEXPAU?$pair@PAUPattern@OpenBabel@@V?$vector@_NV?$allocator@_N@std@@@std@@@2@0@Z @ 1767 NONAME ; protected: void __thiscall std::vector<struct std::pair<struct OpenBabel::Pattern *,class std::vector<bool,class std::allocator<bool> > >,class std::allocator<struct std::pair<struct OpenBabel::Pattern *,class std::vector<bool,class std::allocator<bool> > > > >::_Destroy(struct std::pair<struct OpenBabel::Pattern *,class std::vector<bool,class std::allocator<bool> > > *,struct std::pair<struct OpenBabel::Pattern *,class std::vector<bool,class std::allocator<bool> > > *)
 ?deallocate@?$allocator@U?$pair@PAUPattern@OpenBabel@@V?$vector@_NV?$allocator@_N@std@@@std@@@std@@@std@@QAEXPAXI@Z @ 1768 NONAME ; public: void __thiscall std::allocator<struct std::pair<struct OpenBabel::Pattern *,class std::vector<bool,class std::allocator<bool> > > >::deallocate(void *,unsigned int)
 ?begin@?$vector@V?$vector@_NV?$allocator@_N@std@@@std@@V?$allocator@V?$vector@_NV?$allocator@_N@std@@@std@@@2@@std@@QAEPAV?$vector@_NV?$allocator@_N@std@@@2@XZ @ 1769 NONAME ; public: class std::vector<bool,class std::allocator<bool> > * __thiscall std::vector<class std::vector<bool,class std::allocator<bool> >,class std::allocator<class std::vector<bool,class std::allocator<bool> > > >::begin(void)
 ?end@?$vector@V?$vector@_NV?$allocator@_N@std@@@std@@V?$allocator@V?$vector@_NV?$allocator@_N@std@@@std@@@2@@std@@QAEPAV?$vector@_NV?$allocator@_N@std@@@2@XZ @ 1770 NONAME ; public: class std::vector<bool,class std::allocator<bool> > * __thiscall std::vector<class std::vector<bool,class std::allocator<bool> >,class std::allocator<class std::vector<bool,class std::allocator<bool> > > >::end(void)
 ?size@?$vector@V?$vector@_NV?$allocator@_N@std@@@std@@V?$allocator@V?$vector@_NV?$allocator@_N@std@@@std@@@2@@std@@QBEIXZ @ 1771 NONAME ; public: unsigned int __thiscall std::vector<class std::vector<bool,class std::allocator<bool> >,class std::allocator<class std::vector<bool,class std::allocator<bool> > > >::size(void)const 
 ?insert@?$vector@V?$vector@_NV?$allocator@_N@std@@@std@@V?$allocator@V?$vector@_NV?$allocator@_N@std@@@std@@@2@@std@@QAEXPAV?$vector@_NV?$allocator@_N@std@@@2@IABV32@@Z @ 1772 NONAME ; public: void __thiscall std::vector<class std::vector<bool,class std::allocator<bool> >,class std::allocator<class std::vector<bool,class std::allocator<bool> > > >::insert(class std::vector<bool,class std::allocator<bool> > *,unsigned int,class std::vector<bool,class std::allocator<bool> > const &)
 ?erase@?$vector@V?$vector@_NV?$allocator@_N@std@@@std@@V?$allocator@V?$vector@_NV?$allocator@_N@std@@@std@@@2@@std@@QAEPAV?$vector@_NV?$allocator@_N@std@@@2@PAV32@0@Z @ 1773 NONAME ; public: class std::vector<bool,class std::allocator<bool> > * __thiscall std::vector<class std::vector<bool,class std::allocator<bool> >,class std::allocator<class std::vector<bool,class std::allocator<bool> > > >::erase(class std::vector<bool,class std::allocator<bool> > *,class std::vector<bool,class std::allocator<bool> > *)
 ?begin@?$vector@PAPAVOBEdgeBase@OpenBabel@@V?$allocator@PAPAVOBEdgeBase@OpenBabel@@@std@@@std@@QAEPAPAPAVOBEdgeBase@OpenBabel@@XZ @ 1774 NONAME ; public: class OpenBabel::OBEdgeBase * * * __thiscall std::vector<class OpenBabel::OBEdgeBase * *,class std::allocator<class OpenBabel::OBEdgeBase * *> >::begin(void)
 ?end@?$vector@PAPAVOBEdgeBase@OpenBabel@@V?$allocator@PAPAVOBEdgeBase@OpenBabel@@@std@@@std@@QAEPAPAPAVOBEdgeBase@OpenBabel@@XZ @ 1775 NONAME ; public: class OpenBabel::OBEdgeBase * * * __thiscall std::vector<class OpenBabel::OBEdgeBase * *,class std::allocator<class OpenBabel::OBEdgeBase * *> >::end(void)
 ?size@?$vector@PAPAVOBEdgeBase@OpenBabel@@V?$allocator@PAPAVOBEdgeBase@OpenBabel@@@std@@@std@@QBEIXZ @ 1776 NONAME ; public: unsigned int __thiscall std::vector<class OpenBabel::OBEdgeBase * *,class std::allocator<class OpenBabel::OBEdgeBase * *> >::size(void)const 
 ?insert@?$vector@PAPAVOBEdgeBase@OpenBabel@@V?$allocator@PAPAVOBEdgeBase@OpenBabel@@@std@@@std@@QAEXPAPAPAVOBEdgeBase@OpenBabel@@IABQAPAV34@@Z @ 1777 NONAME ; public: void __thiscall std::vector<class OpenBabel::OBEdgeBase * *,class std::allocator<class OpenBabel::OBEdgeBase * *> >::insert(class OpenBabel::OBEdgeBase * * *,unsigned int,class OpenBabel::OBEdgeBase * * const &)
 ?erase@?$vector@PAPAVOBEdgeBase@OpenBabel@@V?$allocator@PAPAVOBEdgeBase@OpenBabel@@@std@@@std@@QAEPAPAPAVOBEdgeBase@OpenBabel@@PAPAPAV34@0@Z @ 1778 NONAME ; public: class OpenBabel::OBEdgeBase * * * __thiscall std::vector<class OpenBabel::OBEdgeBase * *,class std::allocator<class OpenBabel::OBEdgeBase * *> >::erase(class OpenBabel::OBEdgeBase * * *,class OpenBabel::OBEdgeBase * * *)
 ?_Destroy@?$vector@PAPAVOBEdgeBase@OpenBabel@@V?$allocator@PAPAVOBEdgeBase@OpenBabel@@@std@@@std@@IAEXPAPAPAVOBEdgeBase@OpenBabel@@0@Z @ 1779 NONAME ; protected: void __thiscall std::vector<class OpenBabel::OBEdgeBase * *,class std::allocator<class OpenBabel::OBEdgeBase * *> >::_Destroy(class OpenBabel::OBEdgeBase * * *,class OpenBabel::OBEdgeBase * * *)
 ?deallocate@?$allocator@PAPAVOBEdgeBase@OpenBabel@@@std@@QAEXPAXI@Z @ 1780 NONAME ; public: void __thiscall std::allocator<class OpenBabel::OBEdgeBase * *>::deallocate(void *,unsigned int)
 ?insert@?$vector@VOBBitVec@OpenBabel@@V?$allocator@VOBBitVec@OpenBabel@@@std@@@std@@QAEPAVOBBitVec@OpenBabel@@PAV34@ABV34@@Z @ 1781 NONAME ; public: class OpenBabel::OBBitVec * __thiscall std::vector<class OpenBabel::OBBitVec,class std::allocator<class OpenBabel::OBBitVec> >::insert(class OpenBabel::OBBitVec *,class OpenBabel::OBBitVec const &)
 ?_Destroy@?$vector@VOBBitVec@OpenBabel@@V?$allocator@VOBBitVec@OpenBabel@@@std@@@std@@IAEXPAVOBBitVec@OpenBabel@@0@Z @ 1782 NONAME ; protected: void __thiscall std::vector<class OpenBabel::OBBitVec,class std::allocator<class OpenBabel::OBBitVec> >::_Destroy(class OpenBabel::OBBitVec *,class OpenBabel::OBBitVec *)
 ?deallocate@?$allocator@VOBBitVec@OpenBabel@@@std@@QAEXPAXI@Z @ 1783 NONAME ; public: void __thiscall std::allocator<class OpenBabel::OBBitVec>::deallocate(void *,unsigned int)
 ?begin@?$vector@_NV?$allocator@_N@std@@@std@@QBEPB_NXZ @ 1784 NONAME ; public: bool const * __thiscall std::vector<bool,class std::allocator<bool> >::begin(void)const 
 ?end@?$vector@_NV?$allocator@_N@std@@@std@@QBEPB_NXZ @ 1785 NONAME ; public: bool const * __thiscall std::vector<bool,class std::allocator<bool> >::end(void)const 
 ?insert@?$vector@U?$pair@PAUPattern@OpenBabel@@V?$vector@_NV?$allocator@_N@std@@@std@@@std@@V?$allocator@U?$pair@PAUPattern@OpenBabel@@V?$vector@_NV?$allocator@_N@std@@@std@@@std@@@2@@std@@QAEXPAU?$pair@PAUPattern@OpenBabel@@V?$vector@_NV?$allocator@_N@std@@@std@@@2@IABU32@@Z @ 1786 NONAME ; public: void __thiscall std::vector<struct std::pair<struct OpenBabel::Pattern *,class std::vector<bool,class std::allocator<bool> > >,class std::allocator<struct std::pair<struct OpenBabel::Pattern *,class std::vector<bool,class std::allocator<bool> > > > >::insert(struct std::pair<struct OpenBabel::Pattern *,class std::vector<bool,class std::allocator<bool> > > *,unsigned int,struct std::pair<struct OpenBabel::Pattern *,class std::vector<bool,class std::allocator<bool> > > const &)
 ?destroy@?$allocator@U?$pair@PAUPattern@OpenBabel@@V?$vector@_NV?$allocator@_N@std@@@std@@@std@@@std@@QAEXPAU?$pair@PAUPattern@OpenBabel@@V?$vector@_NV?$allocator@_N@std@@@std@@@2@@Z @ 1787 NONAME ; public: void __thiscall std::allocator<struct std::pair<struct OpenBabel::Pattern *,class std::vector<bool,class std::allocator<bool> > > >::destroy(struct std::pair<struct OpenBabel::Pattern *,class std::vector<bool,class std::allocator<bool> > > *)
 ?_Destroy@?$vector@V?$vector@_NV?$allocator@_N@std@@@std@@V?$allocator@V?$vector@_NV?$allocator@_N@std@@@std@@@2@@std@@IAEXPAV?$vector@_NV?$allocator@_N@std@@@2@0@Z @ 1788 NONAME ; protected: void __thiscall std::vector<class std::vector<bool,class std::allocator<bool> >,class std::allocator<class std::vector<bool,class std::allocator<bool> > > >::_Destroy(class std::vector<bool,class std::allocator<bool> > *,class std::vector<bool,class std::allocator<bool> > *)
 ?_Ucopy@?$vector@V?$vector@_NV?$allocator@_N@std@@@std@@V?$allocator@V?$vector@_NV?$allocator@_N@std@@@std@@@2@@std@@IAEPAV?$vector@_NV?$allocator@_N@std@@@2@PBV32@0PAV32@@Z @ 1789 NONAME ; protected: class std::vector<bool,class std::allocator<bool> > * __thiscall std::vector<class std::vector<bool,class std::allocator<bool> >,class std::allocator<class std::vector<bool,class std::allocator<bool> > > >::_Ucopy(class std::vector<bool,class std::allocator<bool> > const *,class std::vector<bool,class std::allocator<bool> > const *,class std::vector<bool,class std::allocator<bool> > *)
 ?_Ufill@?$vector@V?$vector@_NV?$allocator@_N@std@@@std@@V?$allocator@V?$vector@_NV?$allocator@_N@std@@@std@@@2@@std@@IAEXPAV?$vector@_NV?$allocator@_N@std@@@2@IABV32@@Z @ 1790 NONAME ; protected: void __thiscall std::vector<class std::vector<bool,class std::allocator<bool> >,class std::allocator<class std::vector<bool,class std::allocator<bool> > > >::_Ufill(class std::vector<bool,class std::allocator<bool> > *,unsigned int,class std::vector<bool,class std::allocator<bool> > const &)
 ?allocate@?$allocator@V?$vector@_NV?$allocator@_N@std@@@std@@@std@@QAEPAV?$vector@_NV?$allocator@_N@std@@@2@IPBX@Z @ 1791 NONAME ; public: class std::vector<bool,class std::allocator<bool> > * __thiscall std::allocator<class std::vector<bool,class std::allocator<bool> > >::allocate(unsigned int,void const *)
 ?deallocate@?$allocator@V?$vector@_NV?$allocator@_N@std@@@std@@@std@@QAEXPAXI@Z @ 1792 NONAME ; public: void __thiscall std::allocator<class std::vector<bool,class std::allocator<bool> > >::deallocate(void *,unsigned int)
 ?_Ucopy@?$vector@PAPAVOBEdgeBase@OpenBabel@@V?$allocator@PAPAVOBEdgeBase@OpenBabel@@@std@@@std@@IAEPAPAPAVOBEdgeBase@OpenBabel@@PBQAPAV34@0PAPAPAV34@@Z @ 1793 NONAME ; protected: class OpenBabel::OBEdgeBase * * * __thiscall std::vector<class OpenBabel::OBEdgeBase * *,class std::allocator<class OpenBabel::OBEdgeBase * *> >::_Ucopy(class OpenBabel::OBEdgeBase * * const *,class OpenBabel::OBEdgeBase * * const *,class OpenBabel::OBEdgeBase * * *)
 ?_Ufill@?$vector@PAPAVOBEdgeBase@OpenBabel@@V?$allocator@PAPAVOBEdgeBase@OpenBabel@@@std@@@std@@IAEXPAPAPAVOBEdgeBase@OpenBabel@@IABQAPAV34@@Z @ 1794 NONAME ; protected: void __thiscall std::vector<class OpenBabel::OBEdgeBase * *,class std::allocator<class OpenBabel::OBEdgeBase * *> >::_Ufill(class OpenBabel::OBEdgeBase * * *,unsigned int,class OpenBabel::OBEdgeBase * * const &)
 ?allocate@?$allocator@PAPAVOBEdgeBase@OpenBabel@@@std@@QAEPAPAPAVOBEdgeBase@OpenBabel@@IPBX@Z @ 1795 NONAME ; public: class OpenBabel::OBEdgeBase * * * __thiscall std::allocator<class OpenBabel::OBEdgeBase * *>::allocate(unsigned int,void const *)
 ?destroy@?$allocator@PAPAVOBEdgeBase@OpenBabel@@@std@@QAEXPAPAPAVOBEdgeBase@OpenBabel@@@Z @ 1796 NONAME ; public: void __thiscall std::allocator<class OpenBabel::OBEdgeBase * *>::destroy(class OpenBabel::OBEdgeBase * * *)
 ?insert@?$vector@VOBBitVec@OpenBabel@@V?$allocator@VOBBitVec@OpenBabel@@@std@@@std@@QAEXPAVOBBitVec@OpenBabel@@IABV34@@Z @ 1797 NONAME ; public: void __thiscall std::vector<class OpenBabel::OBBitVec,class std::allocator<class OpenBabel::OBBitVec> >::insert(class OpenBabel::OBBitVec *,unsigned int,class OpenBabel::OBBitVec const &)
 ?destroy@?$allocator@VOBBitVec@OpenBabel@@@std@@QAEXPAVOBBitVec@OpenBabel@@@Z @ 1798 NONAME ; public: void __thiscall std::allocator<class OpenBabel::OBBitVec>::destroy(class OpenBabel::OBBitVec *)
 ?size@?$vector@U?$pair@PAUPattern@OpenBabel@@V?$vector@_NV?$allocator@_N@std@@@std@@@std@@V?$allocator@U?$pair@PAUPattern@OpenBabel@@V?$vector@_NV?$allocator@_N@std@@@std@@@std@@@2@@std@@QBEIXZ @ 1799 NONAME ; public: unsigned int __thiscall std::vector<struct std::pair<struct OpenBabel::Pattern *,class std::vector<bool,class std::allocator<bool> > >,class std::allocator<struct std::pair<struct OpenBabel::Pattern *,class std::vector<bool,class std::allocator<bool> > > > >::size(void)const 
 ?_Ucopy@?$vector@U?$pair@PAUPattern@OpenBabel@@V?$vector@_NV?$allocator@_N@std@@@std@@@std@@V?$allocator@U?$pair@PAUPattern@OpenBabel@@V?$vector@_NV?$allocator@_N@std@@@std@@@std@@@2@@std@@IAEPAU?$pair@PAUPattern@OpenBabel@@V?$vector@_NV?$allocator@_N@std@@@std@@@2@PBU32@0PAU32@@Z @ 1800 NONAME ; protected: struct std::pair<struct OpenBabel::Pattern *,class std::vector<bool,class std::allocator<bool> > > * __thiscall std::vector<struct std::pair<struct OpenBabel::Pattern *,class std::vector<bool,class std::allocator<bool> > >,class std::allocator<struct std::pair<struct OpenBabel::Pattern *,class std::vector<bool,class std::allocator<bool> > > > >::_Ucopy(struct std::pair<struct OpenBabel::Pattern *,class std::vector<bool,class std::allocator<bool> > > const *,struct std::pair<struct OpenBabel::Pat
 ?_Ufill@?$vector@U?$pair@PAUPattern@OpenBabel@@V?$vector@_NV?$allocator@_N@std@@@std@@@std@@V?$allocator@U?$pair@PAUPattern@OpenBabel@@V?$vector@_NV?$allocator@_N@std@@@std@@@std@@@2@@std@@IAEXPAU?$pair@PAUPattern@OpenBabel@@V?$vector@_NV?$allocator@_N@std@@@std@@@2@IABU32@@Z @ 1801 NONAME ; protected: void __thiscall std::vector<struct std::pair<struct OpenBabel::Pattern *,class std::vector<bool,class std::allocator<bool> > >,class std::allocator<struct std::pair<struct OpenBabel::Pattern *,class std::vector<bool,class std::allocator<bool> > > > >::_Ufill(struct std::pair<struct OpenBabel::Pattern *,class std::vector<bool,class std::allocator<bool> > > *,unsigned int,struct std::pair<struct OpenBabel::Pattern *,class std::vector<bool,class std::allocator<bool> > > const &)
 ?allocate@?$allocator@U?$pair@PAUPattern@OpenBabel@@V?$vector@_NV?$allocator@_N@std@@@std@@@std@@@std@@QAEPAU?$pair@PAUPattern@OpenBabel@@V?$vector@_NV?$allocator@_N@std@@@std@@@2@IPBX@Z @ 1802 NONAME ; public: struct std::pair<struct OpenBabel::Pattern *,class std::vector<bool,class std::allocator<bool> > > * __thiscall std::allocator<struct std::pair<struct OpenBabel::Pattern *,class std::vector<bool,class std::allocator<bool> > > >::allocate(unsigned int,void const *)
 ?construct@?$allocator@V?$vector@_NV?$allocator@_N@std@@@std@@@std@@QAEXPAV?$vector@_NV?$allocator@_N@std@@@2@ABV32@@Z @ 1803 NONAME ; public: void __thiscall std::allocator<class std::vector<bool,class std::allocator<bool> > >::construct(class std::vector<bool,class std::allocator<bool> > *,class std::vector<bool,class std::allocator<bool> > const &)
 ?destroy@?$allocator@V?$vector@_NV?$allocator@_N@std@@@std@@@std@@QAEXPAV?$vector@_NV?$allocator@_N@std@@@2@@Z @ 1804 NONAME ; public: void __thiscall std::allocator<class std::vector<bool,class std::allocator<bool> > >::destroy(class std::vector<bool,class std::allocator<bool> > *)
 ?construct@?$allocator@PAPAVOBEdgeBase@OpenBabel@@@std@@QAEXPAPAPAVOBEdgeBase@OpenBabel@@ABQAPAV34@@Z @ 1805 NONAME ; public: void __thiscall std::allocator<class OpenBabel::OBEdgeBase * *>::construct(class OpenBabel::OBEdgeBase * * *,class OpenBabel::OBEdgeBase * * const &)
 ?size@?$vector@VOBBitVec@OpenBabel@@V?$allocator@VOBBitVec@OpenBabel@@@std@@@std@@QBEIXZ @ 1806 NONAME ; public: unsigned int __thiscall std::vector<class OpenBabel::OBBitVec,class std::allocator<class OpenBabel::OBBitVec> >::size(void)const 
 ?_Ucopy@?$vector@VOBBitVec@OpenBabel@@V?$allocator@VOBBitVec@OpenBabel@@@std@@@std@@IAEPAVOBBitVec@OpenBabel@@PBV34@0PAV34@@Z @ 1807 NONAME ; protected: class OpenBabel::OBBitVec * __thiscall std::vector<class OpenBabel::OBBitVec,class std::allocator<class OpenBabel::OBBitVec> >::_Ucopy(class OpenBabel::OBBitVec const *,class OpenBabel::OBBitVec const *,class OpenBabel::OBBitVec *)
 ?_Ufill@?$vector@VOBBitVec@OpenBabel@@V?$allocator@VOBBitVec@OpenBabel@@@std@@@std@@IAEXPAVOBBitVec@OpenBabel@@IABV34@@Z @ 1808 NONAME ; protected: void __thiscall std::vector<class OpenBabel::OBBitVec,class std::allocator<class OpenBabel::OBBitVec> >::_Ufill(class OpenBabel::OBBitVec *,unsigned int,class OpenBabel::OBBitVec const &)
 ?allocate@?$allocator@VOBBitVec@OpenBabel@@@std@@QAEPAVOBBitVec@OpenBabel@@IPBX@Z @ 1809 NONAME ; public: class OpenBabel::OBBitVec * __thiscall std::allocator<class OpenBabel::OBBitVec>::allocate(unsigned int,void const *)
 ?construct@?$allocator@U?$pair@PAUPattern@OpenBabel@@V?$vector@_NV?$allocator@_N@std@@@std@@@std@@@std@@QAEXPAU?$pair@PAUPattern@OpenBabel@@V?$vector@_NV?$allocator@_N@std@@@std@@@2@ABU32@@Z @ 1810 NONAME ; public: void __thiscall std::allocator<struct std::pair<struct OpenBabel::Pattern *,class std::vector<bool,class std::allocator<bool> > > >::construct(struct std::pair<struct OpenBabel::Pattern *,class std::vector<bool,class std::allocator<bool> > > *,struct std::pair<struct OpenBabel::Pattern *,class std::vector<bool,class std::allocator<bool> > > const &)
 ?construct@?$allocator@VOBBitVec@OpenBabel@@@std@@QAEXPAVOBBitVec@OpenBabel@@ABV34@@Z @ 1811 NONAME ; public: void __thiscall std::allocator<class OpenBabel::OBBitVec>::construct(class OpenBabel::OBBitVec *,class OpenBabel::OBBitVec const &)
 ?copy@std@@YAPAU?$pair@PAUPattern@OpenBabel@@V?$vector@_NV?$allocator@_N@std@@@std@@@1@PAU21@00@Z @ 1812 NONAME ; struct std::pair<struct OpenBabel::Pattern *,class std::vector<bool,class std::allocator<bool> > > * __cdecl std::copy(struct std::pair<struct OpenBabel::Pattern *,class std::vector<bool,class std::allocator<bool> > > *,struct std::pair<struct OpenBabel::Pattern *,class std::vector<bool,class std::allocator<bool> > > *,struct std::pair<struct OpenBabel::Pattern *,class std::vector<bool,class std::allocator<bool> > > *)
 ?fill@std@@YAXPAV?$vector@_NV?$allocator@_N@std@@@1@0ABV21@@Z @ 1813 NONAME ; void __cdecl std::fill(class std::vector<bool,class std::allocator<bool> > *,class std::vector<bool,class std::allocator<bool> > *,class std::vector<bool,class std::allocator<bool> > const &)
 ?copy_backward@std@@YAPAV?$vector@_NV?$allocator@_N@std@@@1@PAV21@00@Z @ 1814 NONAME ; class std::vector<bool,class std::allocator<bool> > * __cdecl std::copy_backward(class std::vector<bool,class std::allocator<bool> > *,class std::vector<bool,class std::allocator<bool> > *,class std::vector<bool,class std::allocator<bool> > *)
 ?copy@std@@YAPAV?$vector@_NV?$allocator@_N@std@@@1@PAV21@00@Z @ 1815 NONAME ; class std::vector<bool,class std::allocator<bool> > * __cdecl std::copy(class std::vector<bool,class std::allocator<bool> > *,class std::vector<bool,class std::allocator<bool> > *,class std::vector<bool,class std::allocator<bool> > *)
 ?fill@std@@YAXPAPAPAVOBEdgeBase@OpenBabel@@0ABQAPAV23@@Z @ 1816 NONAME ; void __cdecl std::fill(class OpenBabel::OBEdgeBase * * *,class OpenBabel::OBEdgeBase * * *,class OpenBabel::OBEdgeBase * * const &)
 ?copy_backward@std@@YAPAPAPAVOBEdgeBase@OpenBabel@@PAPAPAV23@00@Z @ 1817 NONAME ; class OpenBabel::OBEdgeBase * * * __cdecl std::copy_backward(class OpenBabel::OBEdgeBase * * *,class OpenBabel::OBEdgeBase * * *,class OpenBabel::OBEdgeBase * * *)
 ?copy@std@@YAPAPAPAVOBEdgeBase@OpenBabel@@PAPAPAV23@00@Z @ 1818 NONAME ; class OpenBabel::OBEdgeBase * * * __cdecl std::copy(class OpenBabel::OBEdgeBase * * *,class OpenBabel::OBEdgeBase * * *,class OpenBabel::OBEdgeBase * * *)
 ?fill@std@@YAXPAU?$pair@PAUPattern@OpenBabel@@V?$vector@_NV?$allocator@_N@std@@@std@@@1@0ABU21@@Z @ 1819 NONAME ; void __cdecl std::fill(struct std::pair<struct OpenBabel::Pattern *,class std::vector<bool,class std::allocator<bool> > > *,struct std::pair<struct OpenBabel::Pattern *,class std::vector<bool,class std::allocator<bool> > > *,struct std::pair<struct OpenBabel::Pattern *,class std::vector<bool,class std::allocator<bool> > > const &)
 ?copy_backward@std@@YAPAU?$pair@PAUPattern@OpenBabel@@V?$vector@_NV?$allocator@_N@std@@@std@@@1@PAU21@00@Z @ 1820 NONAME ; struct std::pair<struct OpenBabel::Pattern *,class std::vector<bool,class std::allocator<bool> > > * __cdecl std::copy_backward(struct std::pair<struct OpenBabel::Pattern *,class std::vector<bool,class std::allocator<bool> > > *,struct std::pair<struct OpenBabel::Pattern *,class std::vector<bool,class std::allocator<bool> > > *,struct std::pair<struct OpenBabel::Pattern *,class std::vector<bool,class std::allocator<bool> > > *)
 ?_Destroy@std@@YAXPAU?$pair@PAUPattern@OpenBabel@@V?$vector@_NV?$allocator@_N@std@@@std@@@1@@Z @ 1821 NONAME ; void __cdecl std::_Destroy(struct std::pair<struct OpenBabel::Pattern *,class std::vector<bool,class std::allocator<bool> > > *)
 ?_Allocate@std@@YAPAV?$vector@_NV?$allocator@_N@std@@@1@HPAV21@@Z @ 1822 NONAME ; class std::vector<bool,class std::allocator<bool> > * __cdecl std::_Allocate(int,class std::vector<bool,class std::allocator<bool> > *)
 ?_Allocate@std@@YAPAPAPAVOBEdgeBase@OpenBabel@@HPAPAPAV23@@Z @ 1823 NONAME ; class OpenBabel::OBEdgeBase * * * __cdecl std::_Allocate(int,class OpenBabel::OBEdgeBase * * *)
 ?_Destroy@std@@YAXPAPAPAVOBEdgeBase@OpenBabel@@@Z @ 1824 NONAME ; void __cdecl std::_Destroy(class OpenBabel::OBEdgeBase * * *)
 ?fill@std@@YAXPAVOBBitVec@OpenBabel@@0ABV23@@Z @ 1825 NONAME ; void __cdecl std::fill(class OpenBabel::OBBitVec *,class OpenBabel::OBBitVec *,class OpenBabel::OBBitVec const &)
 ?copy_backward@std@@YAPAVOBBitVec@OpenBabel@@PAV23@00@Z @ 1826 NONAME ; class OpenBabel::OBBitVec * __cdecl std::copy_backward(class OpenBabel::OBBitVec *,class OpenBabel::OBBitVec *,class OpenBabel::OBBitVec *)
 ?_Destroy@std@@YAXPAVOBBitVec@OpenBabel@@@Z @ 1827 NONAME ; void __cdecl std::_Destroy(class OpenBabel::OBBitVec *)
 ?_Allocate@std@@YAPAU?$pair@PAUPattern@OpenBabel@@V?$vector@_NV?$allocator@_N@std@@@std@@@1@HPAU21@@Z @ 1828 NONAME ; struct std::pair<struct OpenBabel::Pattern *,class std::vector<bool,class std::allocator<bool> > > * __cdecl std::_Allocate(int,struct std::pair<struct OpenBabel::Pattern *,class std::vector<bool,class std::allocator<bool> > > *)
 ?_Construct@std@@YAXPAV?$vector@_NV?$allocator@_N@std@@@1@ABV21@@Z @ 1829 NONAME ; void __cdecl std::_Construct(class std::vector<bool,class std::allocator<bool> > *,class std::vector<bool,class std::allocator<bool> > const &)
 ?_Destroy@std@@YAXPAV?$vector@_NV?$allocator@_N@std@@@1@@Z @ 1830 NONAME ; void __cdecl std::_Destroy(class std::vector<bool,class std::allocator<bool> > *)
 ?_Construct@std@@YAXPAPAPAVOBEdgeBase@OpenBabel@@ABQAPAV23@@Z @ 1831 NONAME ; void __cdecl std::_Construct(class OpenBabel::OBEdgeBase * * *,class OpenBabel::OBEdgeBase * * const &)
 ?_Allocate@std@@YAPAVOBBitVec@OpenBabel@@HPAV23@@Z @ 1832 NONAME ; class OpenBabel::OBBitVec * __cdecl std::_Allocate(int,class OpenBabel::OBBitVec *)
 ?_Construct@std@@YAXPAU?$pair@PAUPattern@OpenBabel@@V?$vector@_NV?$allocator@_N@std@@@std@@@1@ABU21@@Z @ 1833 NONAME ; void __cdecl std::_Construct(struct std::pair<struct OpenBabel::Pattern *,class std::vector<bool,class std::allocator<bool> > > *,struct std::pair<struct OpenBabel::Pattern *,class std::vector<bool,class std::allocator<bool> > > const &)
 ?_Construct@std@@YAXPAVOBBitVec@OpenBabel@@ABV23@@Z @ 1834 NONAME ; void __cdecl std::_Construct(class OpenBabel::OBBitVec *,class OpenBabel::OBBitVec const &)
 ??4?$pair@PAUPattern@OpenBabel@@V?$vector@_NV?$allocator@_N@std@@@std@@@std@@QAEAAU01@ABU01@@Z @ 1835 NONAME ; public: struct std::pair<struct OpenBabel::Pattern *,class std::vector<bool,class std::allocator<bool> > > & __thiscall std::pair<struct OpenBabel::Pattern *,class std::vector<bool,class std::allocator<bool> > >::operator=(struct std::pair<struct OpenBabel::Pattern *,class std::vector<bool,class std::allocator<bool> > > const &)
 ??0?$pair@PAUPattern@OpenBabel@@V?$vector@_NV?$allocator@_N@std@@@std@@@std@@QAE@ABU01@@Z @ 1836 NONAME ; public: __thiscall std::pair<struct OpenBabel::Pattern *,class std::vector<bool,class std::allocator<bool> > >::pair<struct OpenBabel::Pattern *,class std::vector<bool,class std::allocator<bool> > >(struct std::pair<struct OpenBabel::Pattern *,class std::vector<bool,class std::allocator<bool> > > const &)
 ??4?$vector@_NV?$allocator@_N@std@@@std@@QAEAAV01@ABV01@@Z @ 1837 NONAME ; public: class std::vector<bool,class std::allocator<bool> > & __thiscall std::vector<bool,class std::allocator<bool> >::operator=(class std::vector<bool,class std::allocator<bool> > const &)
 ?capacity@?$vector@_NV?$allocator@_N@std@@@std@@QBEIXZ @ 1838 NONAME ; public: unsigned int __thiscall std::vector<bool,class std::allocator<bool> >::capacity(void)const 
 ?copy@std@@YAPA_NPB_N0PA_N@Z @ 1839 NONAME ; bool * __cdecl std::copy(bool const *,bool const *,bool *)
 ?read_rules@patty@OpenBabel@@QAEXABV?$basic_string@DU?$char_traits@D@std@@V?$allocator@D@2@@std@@@Z @ 1840 NONAME ; public: void __thiscall OpenBabel::patty::read_rules(class std::basic_string<char,struct std::char_traits<char>,class std::allocator<char> > const &)
 ?assign_rules@patty@OpenBabel@@QAEXAAV?$vector@V?$basic_string@DU?$char_traits@D@std@@V?$allocator@D@2@@std@@V?$allocator@V?$basic_string@DU?$char_traits@D@std@@V?$allocator@D@2@@std@@@2@@std@@@Z @ 1841 NONAME ; public: void __thiscall OpenBabel::patty::assign_rules(class std::vector<class std::basic_string<char,struct std::char_traits<char>,class std::allocator<char> >,class std::allocator<class std::basic_string<char,struct std::char_traits<char>,class std::allocator<char> > > > &)
 ?assign_types@patty@OpenBabel@@QAEXAAVOBMol@2@AAV?$vector@V?$basic_string@DU?$char_traits@D@std@@V?$allocator@D@2@@std@@V?$allocator@V?$basic_string@DU?$char_traits@D@std@@V?$allocator@D@2@@std@@@2@@std@@@Z @ 1842 NONAME ; public: void __thiscall OpenBabel::patty::assign_types(class OpenBabel::OBMol &,class std::vector<class std::basic_string<char,struct std::char_traits<char>,class std::allocator<char> >,class std::allocator<class std::basic_string<char,struct std::char_traits<char>,class std::allocator<char> > > > &)
 ?GetMapList@OBSmartsPattern@OpenBabel@@QAEAAV?$vector@V?$vector@HV?$allocator@H@std@@@std@@V?$allocator@V?$vector@HV?$allocator@H@std@@@std@@@2@@std@@XZ @ 1843 NONAME ; public: class std::vector<class std::vector<int,class std::allocator<int> >,class std::allocator<class std::vector<int,class std::allocator<int> > > > & __thiscall OpenBabel::OBSmartsPattern::GetMapList(void)
 ?assign_types@patty@OpenBabel@@QAEXAAVOBMol@2@AAV?$vector@HV?$allocator@H@std@@@std@@@Z @ 1844 NONAME ; public: void __thiscall OpenBabel::patty::assign_types(class OpenBabel::OBMol &,class std::vector<int,class std::allocator<int> > &)
